GAS LISTING /tmp/ccXhxqOK.s 			page 1


   1              		.file	"MemoryAllocator.cpp"
   2              		.option pic
   3              		.option norelax
   4              		.text
   5              	.Ltext0:
   6              		.align	2
   7              		.globl	_ZN15MemoryAllocator18transferToNumBlockEm
   9              	_ZN15MemoryAllocator18transferToNumBlockEm:
  10              	.LFB0:
  11              		.file 1 "src/MemoryAllocator.cpp"
   1:src/MemoryAllocator.cpp **** #include "../h/MemoryAllocator.hpp"
   2:src/MemoryAllocator.cpp **** 
   3:src/MemoryAllocator.cpp **** 
   4:src/MemoryAllocator.cpp **** Free* MemoryAllocator::freeMemHead = nullptr;
   5:src/MemoryAllocator.cpp **** size_t MemoryAllocator::transferToNumBlock(size_t size){
  12              		.loc 1 5 56
  13              		.cfi_startproc
  14              	.LVL0:
  15 0000 130101FF 		addi	sp,sp,-16
  16              		.cfi_def_cfa_offset 16
  17 0004 23348100 		sd	s0,8(sp)
  18              		.cfi_offset 8, -8
  19 0008 13040101 		addi	s0,sp,16
  20              		.cfi_def_cfa 8, 0
   6:src/MemoryAllocator.cpp ****     if((size)%MEM_BLOCK_SIZE==0) size = (size)/MEM_BLOCK_SIZE;
  21              		.loc 1 6 5
  22              		.loc 1 6 14 is_stmt 0
  23 000c 9377F503 		andi	a5,a0,63
  24              		.loc 1 6 5
  25 0010 639A0700 		bnez	a5,.L2
  26              		.loc 1 6 34 is_stmt 1 discriminator 1
  27              		.loc 1 6 39 is_stmt 0 discriminator 1
  28 0014 13556500 		srli	a0,a0,6
  29              	.LVL1:
  30              	.L1:
   7:src/MemoryAllocator.cpp ****     else
   8:src/MemoryAllocator.cpp ****         size = (size)/MEM_BLOCK_SIZE + 1;
   9:src/MemoryAllocator.cpp ****     return size;
  10:src/MemoryAllocator.cpp **** }
  31              		.loc 1 10 1
  32 0018 03348100 		ld	s0,8(sp)
  33              		.cfi_remember_state
  34              		.cfi_restore 8
  35              		.cfi_def_cfa 2, 16
  36 001c 13010101 		addi	sp,sp,16
  37              		.cfi_def_cfa_offset 0
  38 0020 67800000 		jr	ra
  39              	.L2:
  40              		.cfi_restore_state
   8:src/MemoryAllocator.cpp ****     return size;
  41              		.loc 1 8 9 is_stmt 1
   8:src/MemoryAllocator.cpp ****     return size;
  42              		.loc 1 8 22 is_stmt 0
  43 0024 13556500 		srli	a0,a0,6
  44              	.LVL2:
   8:src/MemoryAllocator.cpp ****     return size;
  45              		.loc 1 8 14
GAS LISTING /tmp/ccXhxqOK.s 			page 2


  46 0028 13051500 		addi	a0,a0,1
  47              	.LVL3:
   9:src/MemoryAllocator.cpp **** }
  48              		.loc 1 9 5 is_stmt 1
   9:src/MemoryAllocator.cpp **** }
  49              		.loc 1 9 12 is_stmt 0
  50 002c 6FF0DFFE 		j	.L1
  51              		.cfi_endproc
  52              	.LFE0:
  54              		.align	2
  55              		.globl	_ZN15MemoryAllocator10initializeEv
  57              	_ZN15MemoryAllocator10initializeEv:
  58              	.LFB1:
  11:src/MemoryAllocator.cpp **** void MemoryAllocator::initialize() {
  59              		.loc 1 11 36 is_stmt 1
  60              		.cfi_startproc
  61 0030 130101FE 		addi	sp,sp,-32
  62              		.cfi_def_cfa_offset 32
  63 0034 233C1100 		sd	ra,24(sp)
  64 0038 23388100 		sd	s0,16(sp)
  65 003c 23349100 		sd	s1,8(sp)
  66              		.cfi_offset 1, -8
  67              		.cfi_offset 8, -16
  68              		.cfi_offset 9, -24
  69 0040 13040102 		addi	s0,sp,32
  70              		.cfi_def_cfa 8, 0
  12:src/MemoryAllocator.cpp ****     freeMemHead = (Free*) HEAP_START_ADDR;
  71              		.loc 1 12 5
  72              		.loc 1 12 17 is_stmt 0
  73 0044 97070000 		la	a5,HEAP_START_ADDR
  73      83B70700 
  74 004c 83B40700 		ld	s1,0(a5)
  75 0050 97070000 		sd	s1,.LANCHOR0,a5
  75      23B09700 
  13:src/MemoryAllocator.cpp ****     freeMemHead->next = nullptr;
  76              		.loc 1 13 5 is_stmt 1
  77              		.loc 1 13 23 is_stmt 0
  78 0058 23B40400 		sd	zero,8(s1)
  14:src/MemoryAllocator.cpp ****     freeMemHead->prev = nullptr;
  79              		.loc 1 14 5 is_stmt 1
  80              		.loc 1 14 23 is_stmt 0
  81 005c 23B80400 		sd	zero,16(s1)
  15:src/MemoryAllocator.cpp ****     freeMemHead->size = transferToNumBlock((char*)HEAP_END_ADDR - (char*)HEAP_START_ADDR - sizeof(s
  82              		.loc 1 15 5 is_stmt 1
  83              		.loc 1 15 44 is_stmt 0
  84 0060 97070000 		la	a5,HEAP_END_ADDR
  84      83B70700 
  85 0068 03B50700 		ld	a0,0(a5)
  86              		.loc 1 15 65
  87 006c 33059540 		sub	a0,a0,s1
  88              		.loc 1 15 43
  89 0070 130585FF 		addi	a0,a0,-8
  90 0074 97000000 		call	_ZN15MemoryAllocator18transferToNumBlockEm
  90      E7800000 
  91              	.LVL4:
  92              		.loc 1 15 23
  93 007c 23B0A400 		sd	a0,0(s1)
GAS LISTING /tmp/ccXhxqOK.s 			page 3


  16:src/MemoryAllocator.cpp **** }
  94              		.loc 1 16 1
  95 0080 83308101 		ld	ra,24(sp)
  96              		.cfi_restore 1
  97 0084 03340101 		ld	s0,16(sp)
  98              		.cfi_restore 8
  99              		.cfi_def_cfa 2, 32
 100 0088 83348100 		ld	s1,8(sp)
 101              		.cfi_restore 9
 102 008c 13010102 		addi	sp,sp,32
 103              		.cfi_def_cfa_offset 0
 104 0090 67800000 		jr	ra
 105              		.cfi_endproc
 106              	.LFE1:
 108              		.align	2
 109              		.globl	_ZN15MemoryAllocator9mem_allocEm
 111              	_ZN15MemoryAllocator9mem_allocEm:
 112              	.LFB2:
  17:src/MemoryAllocator.cpp **** 
  18:src/MemoryAllocator.cpp **** void* MemoryAllocator::mem_alloc(size_t size) {
 113              		.loc 1 18 47 is_stmt 1
 114              		.cfi_startproc
 115              	.LVL5:
  19:src/MemoryAllocator.cpp ****     static uint8 k=1;
 116              		.loc 1 19 5
  20:src/MemoryAllocator.cpp **** 
  21:src/MemoryAllocator.cpp ****     if (size <= 0)
 117              		.loc 1 21 5
 118 0094 63060510 		beqz	a0,.L18
  18:src/MemoryAllocator.cpp ****     static uint8 k=1;
 119              		.loc 1 18 47 is_stmt 0
 120 0098 130101FE 		addi	sp,sp,-32
 121              		.cfi_def_cfa_offset 32
 122 009c 233C1100 		sd	ra,24(sp)
 123 00a0 23388100 		sd	s0,16(sp)
 124 00a4 23349100 		sd	s1,8(sp)
 125              		.cfi_offset 1, -8
 126              		.cfi_offset 8, -16
 127              		.cfi_offset 9, -24
 128 00a8 13040102 		addi	s0,sp,32
 129              		.cfi_def_cfa 8, 0
 130 00ac 93040500 		mv	s1,a0
  22:src/MemoryAllocator.cpp ****         return nullptr;
  23:src/MemoryAllocator.cpp ****     if(k==1){
 131              		.loc 1 23 5 is_stmt 1
 132              		.loc 1 23 9 is_stmt 0
 133 00b0 17070000 		lbu	a4,.LANCHOR1
 133      03470700 
 134              		.loc 1 23 5
 135 00b8 93071000 		li	a5,1
 136 00bc 6300F702 		beq	a4,a5,.L23
 137              	.LVL6:
 138              	.L9:
  24:src/MemoryAllocator.cpp ****         k=0;
  25:src/MemoryAllocator.cpp ****         initialize();
  26:src/MemoryAllocator.cpp ****     }
  27:src/MemoryAllocator.cpp **** 
GAS LISTING /tmp/ccXhxqOK.s 			page 4


  28:src/MemoryAllocator.cpp ****     Free* head = freeMemHead;
 139              		.loc 1 28 5 is_stmt 1
 140              		.loc 1 28 11 is_stmt 0
 141 00c0 17050000 		ld	a0,.LANCHOR0
 141      03350500 
 142              	.LVL7:
 143              	.L11:
  29:src/MemoryAllocator.cpp **** 
  30:src/MemoryAllocator.cpp ****     //first fit alg
  31:src/MemoryAllocator.cpp ****     for (; head != nullptr; head = head->next)
 144              		.loc 1 31 5 is_stmt 1 discriminator 1
 145              		.loc 1 31 17 discriminator 1
 146 00c8 63040502 		beqz	a0,.L10
  32:src/MemoryAllocator.cpp ****         if (head->size >= size)break;
 147              		.loc 1 32 9
 148              		.loc 1 32 19 is_stmt 0
 149 00cc 83370500 		ld	a5,0(a0)
 150              		.loc 1 32 9
 151 00d0 63F09702 		bgeu	a5,s1,.L10
  31:src/MemoryAllocator.cpp ****         if (head->size >= size)break;
 152              		.loc 1 31 5 is_stmt 1
  31:src/MemoryAllocator.cpp ****         if (head->size >= size)break;
 153              		.loc 1 31 34 is_stmt 0
 154 00d4 03358500 		ld	a0,8(a0)
 155              	.LVL8:
  31:src/MemoryAllocator.cpp ****         if (head->size >= size)break;
 156              		.loc 1 31 5
 157 00d8 6FF01FFF 		j	.L11
 158              	.LVL9:
 159              	.L23:
  24:src/MemoryAllocator.cpp ****         initialize();
 160              		.loc 1 24 9 is_stmt 1
  24:src/MemoryAllocator.cpp ****         initialize();
 161              		.loc 1 24 10 is_stmt 0
 162 00dc 97070000 		sb	zero,.LANCHOR1,a5
 162      23800700 
  25:src/MemoryAllocator.cpp ****     }
 163              		.loc 1 25 9 is_stmt 1
  25:src/MemoryAllocator.cpp ****     }
 164              		.loc 1 25 19 is_stmt 0
 165 00e4 97000000 		call	_ZN15MemoryAllocator10initializeEv
 165      E7800000 
 166              	.LVL10:
 167 00ec 6FF05FFD 		j	.L9
 168              	.LVL11:
 169              	.L10:
  33:src/MemoryAllocator.cpp **** 
  34:src/MemoryAllocator.cpp ****     if (head == nullptr)
 170              		.loc 1 34 5 is_stmt 1
 171 00f0 630C0504 		beqz	a0,.L7
  35:src/MemoryAllocator.cpp ****         return nullptr;
  36:src/MemoryAllocator.cpp **** 
  37:src/MemoryAllocator.cpp ****     size_t remainingSize = head->size - size;
 172              		.loc 1 37 5
 173              		.loc 1 37 34 is_stmt 0
 174 00f4 83370500 		ld	a5,0(a0)
 175              		.loc 1 37 12
GAS LISTING /tmp/ccXhxqOK.s 			page 5


 176 00f8 33879740 		sub	a4,a5,s1
 177              	.LVL12:
  38:src/MemoryAllocator.cpp ****     if (remainingSize > 0) {
 178              		.loc 1 38 5 is_stmt 1
 179              	.LBB2:
 180 00fc 63869706 		beq	a5,s1,.L12
 181              	.LBB3:
  39:src/MemoryAllocator.cpp **** 
  40:src/MemoryAllocator.cpp ****         //ima ostatak prostora od alociranog bloka
  41:src/MemoryAllocator.cpp ****         Free* newBlk = (Free*) ((char*)head + (size+sizeof(size_t))*MEM_BLOCK_SIZE);
 182              		.loc 1 41 9
 183              		.loc 1 41 52 is_stmt 0
 184 0100 93878400 		addi	a5,s1,8
 185              		.loc 1 41 68
 186 0104 93976700 		slli	a5,a5,6
 187              		.loc 1 41 15
 188 0108 B307F500 		add	a5,a0,a5
 189              	.LVL13:
  42:src/MemoryAllocator.cpp ****         if(head->next) head->next->prev = newBlk;
 190              		.loc 1 42 9 is_stmt 1
 191              		.loc 1 42 18 is_stmt 0
 192 010c 83368500 		ld	a3,8(a0)
 193              		.loc 1 42 9
 194 0110 63840600 		beqz	a3,.L13
 195              		.loc 1 42 24 is_stmt 1 discriminator 1
 196              		.loc 1 42 41 is_stmt 0 discriminator 1
 197 0114 23B8F600 		sd	a5,16(a3)
 198              	.L13:
  43:src/MemoryAllocator.cpp ****         if (head->prev) head->prev->next = newBlk;
 199              		.loc 1 43 9 is_stmt 1
 200              		.loc 1 43 19 is_stmt 0
 201 0118 83360501 		ld	a3,16(a0)
 202              		.loc 1 43 9
 203 011c 63800604 		beqz	a3,.L14
 204              		.loc 1 43 25 is_stmt 1 discriminator 1
 205              		.loc 1 43 42 is_stmt 0 discriminator 1
 206 0120 23B4F600 		sd	a5,8(a3)
 207              	.L15:
  44:src/MemoryAllocator.cpp ****         else freeMemHead = newBlk;
  45:src/MemoryAllocator.cpp ****         newBlk->next = head->next;
 208              		.loc 1 45 9 is_stmt 1
 209              		.loc 1 45 30 is_stmt 0
 210 0124 83368500 		ld	a3,8(a0)
 211              		.loc 1 45 22
 212 0128 23B4D700 		sd	a3,8(a5)
  46:src/MemoryAllocator.cpp ****         newBlk->prev = head->prev;
 213              		.loc 1 46 9 is_stmt 1
 214              		.loc 1 46 30 is_stmt 0
 215 012c 83360501 		ld	a3,16(a0)
 216              		.loc 1 46 22
 217 0130 23B8D700 		sd	a3,16(a5)
  47:src/MemoryAllocator.cpp ****         newBlk->size = remainingSize;//skaliraana na mem_block_size
 218              		.loc 1 47 9 is_stmt 1
 219              		.loc 1 47 22 is_stmt 0
 220 0134 23B0E700 		sd	a4,0(a5)
 221              	.LVL14:
 222              	.L16:
GAS LISTING /tmp/ccXhxqOK.s 			page 6


 223              	.LBE3:
 224              	.LBE2:
  48:src/MemoryAllocator.cpp ****     }
  49:src/MemoryAllocator.cpp ****     else{
  50:src/MemoryAllocator.cpp ****         //nije ostalo prostora, uvezi na sledeci
  51:src/MemoryAllocator.cpp ****         if(head->prev) {
  52:src/MemoryAllocator.cpp ****             head->prev->next = head->next;
  53:src/MemoryAllocator.cpp ****             if(head->next)
  54:src/MemoryAllocator.cpp ****                 head->next->prev = head->prev;
  55:src/MemoryAllocator.cpp ****         }
  56:src/MemoryAllocator.cpp ****         else {freeMemHead = head->next; head->next->prev = nullptr;}
  57:src/MemoryAllocator.cpp **** 
  58:src/MemoryAllocator.cpp ****     }
  59:src/MemoryAllocator.cpp ****     head->next = nullptr;
 225              		.loc 1 59 5 is_stmt 1
 226              		.loc 1 59 16 is_stmt 0
 227 0138 23340500 		sd	zero,8(a0)
  60:src/MemoryAllocator.cpp ****     head->prev = nullptr;
 228              		.loc 1 60 5 is_stmt 1
 229              		.loc 1 60 16 is_stmt 0
 230 013c 23380500 		sd	zero,16(a0)
  61:src/MemoryAllocator.cpp ****     head->size = size;
 231              		.loc 1 61 5 is_stmt 1
 232              		.loc 1 61 16 is_stmt 0
 233 0140 23309500 		sd	s1,0(a0)
  62:src/MemoryAllocator.cpp ****     return (void*)((char*)head+MEM_BLOCK_SIZE);
 234              		.loc 1 62 5 is_stmt 1
 235              		.loc 1 62 46 is_stmt 0
 236 0144 13050504 		addi	a0,a0,64
 237              	.LVL15:
 238              	.L7:
  63:src/MemoryAllocator.cpp **** 
  64:src/MemoryAllocator.cpp **** }
 239              		.loc 1 64 1
 240 0148 83308101 		ld	ra,24(sp)
 241              		.cfi_remember_state
 242              		.cfi_restore 1
 243 014c 03340101 		ld	s0,16(sp)
 244              		.cfi_restore 8
 245              		.cfi_def_cfa 2, 32
 246 0150 83348100 		ld	s1,8(sp)
 247              		.cfi_restore 9
 248              	.LVL16:
 249 0154 13010102 		addi	sp,sp,32
 250              		.cfi_def_cfa_offset 0
 251 0158 67800000 		jr	ra
 252              	.LVL17:
 253              	.L14:
 254              		.cfi_restore_state
 255              	.LBB5:
 256              	.LBB4:
  44:src/MemoryAllocator.cpp ****         newBlk->next = head->next;
 257              		.loc 1 44 14 is_stmt 1
  44:src/MemoryAllocator.cpp ****         newBlk->next = head->next;
 258              		.loc 1 44 26 is_stmt 0
 259 015c 97060000 		sd	a5,.LANCHOR0,a3
 259      23B0F600 
GAS LISTING /tmp/ccXhxqOK.s 			page 7


 260 0164 6FF01FFC 		j	.L15
 261              	.LVL18:
 262              	.L12:
 263              	.LBE4:
  51:src/MemoryAllocator.cpp ****             head->prev->next = head->next;
 264              		.loc 1 51 9 is_stmt 1
  51:src/MemoryAllocator.cpp ****             head->prev->next = head->next;
 265              		.loc 1 51 18 is_stmt 0
 266 0168 83370501 		ld	a5,16(a0)
  51:src/MemoryAllocator.cpp ****             head->prev->next = head->next;
 267              		.loc 1 51 9
 268 016c 63800702 		beqz	a5,.L17
  52:src/MemoryAllocator.cpp ****             if(head->next)
 269              		.loc 1 52 13 is_stmt 1
  52:src/MemoryAllocator.cpp ****             if(head->next)
 270              		.loc 1 52 38 is_stmt 0
 271 0170 03378500 		ld	a4,8(a0)
 272              	.LVL19:
  52:src/MemoryAllocator.cpp ****             if(head->next)
 273              		.loc 1 52 30
 274 0174 23B4E700 		sd	a4,8(a5)
 275              	.LVL20:
  53:src/MemoryAllocator.cpp ****                 head->next->prev = head->prev;
 276              		.loc 1 53 13 is_stmt 1
  53:src/MemoryAllocator.cpp ****                 head->next->prev = head->prev;
 277              		.loc 1 53 22 is_stmt 0
 278 0178 83378500 		ld	a5,8(a0)
  53:src/MemoryAllocator.cpp ****                 head->next->prev = head->prev;
 279              		.loc 1 53 13
 280 017c E38E07FA 		beqz	a5,.L16
  54:src/MemoryAllocator.cpp ****         }
 281              		.loc 1 54 17 is_stmt 1
  54:src/MemoryAllocator.cpp ****         }
 282              		.loc 1 54 42 is_stmt 0
 283 0180 03370501 		ld	a4,16(a0)
  54:src/MemoryAllocator.cpp ****         }
 284              		.loc 1 54 34
 285 0184 23B8E700 		sd	a4,16(a5)
 286 0188 6FF01FFB 		j	.L16
 287              	.LVL21:
 288              	.L17:
  56:src/MemoryAllocator.cpp **** 
 289              		.loc 1 56 15 is_stmt 1
  56:src/MemoryAllocator.cpp **** 
 290              		.loc 1 56 35 is_stmt 0
 291 018c 83378500 		ld	a5,8(a0)
  56:src/MemoryAllocator.cpp **** 
 292              		.loc 1 56 27
 293 0190 17070000 		sd	a5,.LANCHOR0,a4
 293      2330F700 
 294              	.LVL22:
  56:src/MemoryAllocator.cpp **** 
 295              		.loc 1 56 41 is_stmt 1
  56:src/MemoryAllocator.cpp **** 
 296              		.loc 1 56 58 is_stmt 0
 297 0198 23B80700 		sd	zero,16(a5)
 298 019c 6FF0DFF9 		j	.L16
GAS LISTING /tmp/ccXhxqOK.s 			page 8


 299              	.LVL23:
 300              	.L18:
 301              		.cfi_def_cfa_register 2
 302              		.cfi_restore 1
 303              		.cfi_restore 8
 304              		.cfi_restore 9
 305              	.LBE5:
  22:src/MemoryAllocator.cpp ****     if(k==1){
 306              		.loc 1 22 16
 307 01a0 13050000 		li	a0,0
 308              	.LVL24:
 309              		.loc 1 64 1
 310 01a4 67800000 		ret
 311              		.cfi_endproc
 312              	.LFE2:
 314              		.align	2
 315              		.globl	_ZN15MemoryAllocator8mem_freeEPv
 317              	_ZN15MemoryAllocator8mem_freeEPv:
 318              	.LFB3:
  65:src/MemoryAllocator.cpp **** 
  66:src/MemoryAllocator.cpp **** int MemoryAllocator::mem_free(void *ptr) {
 319              		.loc 1 66 42 is_stmt 1
 320              		.cfi_startproc
 321              	.LVL25:
 322 01a8 130101FF 		addi	sp,sp,-16
 323              		.cfi_def_cfa_offset 16
 324 01ac 23348100 		sd	s0,8(sp)
 325              		.cfi_offset 8, -8
 326 01b0 13040101 		addi	s0,sp,16
 327              		.cfi_def_cfa 8, 0
  67:src/MemoryAllocator.cpp ****     Free* cur = nullptr;
 328              		.loc 1 67 5
 329              	.LVL26:
  68:src/MemoryAllocator.cpp ****     ptr = (void*)((char*)ptr-MEM_BLOCK_SIZE);
 330              		.loc 1 68 5
 331              		.loc 1 68 9 is_stmt 0
 332 01b4 130705FC 		addi	a4,a0,-64
 333              	.LVL27:
  69:src/MemoryAllocator.cpp ****     size_t size = ((Free*)ptr)->size;
 334              		.loc 1 69 5 is_stmt 1
 335              		.loc 1 69 12 is_stmt 0
 336 01b8 833505FC 		ld	a1,-64(a0)
 337              	.LVL28:
  70:src/MemoryAllocator.cpp **** 
  71:src/MemoryAllocator.cpp ****     if((char*)ptr<(char*)HEAP_START_ADDR || (char*)ptr+size*MEM_BLOCK_SIZE>(char*)HEAP_END_ADDR){
 338              		.loc 1 71 5 is_stmt 1
 339              		.loc 1 71 19 is_stmt 0
 340 01bc 97070000 		la	a5,HEAP_START_ADDR
 340      83B70700 
 341 01c4 83B70700 		ld	a5,0(a5)
 342              		.loc 1 71 5
 343 01c8 6364F710 		bgtu	a5,a4,.L33
 344              		.loc 1 71 60 discriminator 1
 345 01cc 13966500 		slli	a2,a1,6
 346              		.loc 1 71 55 discriminator 1
 347 01d0 3306C700 		add	a2,a4,a2
 348              		.loc 1 71 76 discriminator 1
GAS LISTING /tmp/ccXhxqOK.s 			page 9


 349 01d4 97070000 		la	a5,HEAP_END_ADDR
 349      83B70700 
 350 01dc 83B70700 		ld	a5,0(a5)
 351              		.loc 1 71 42 discriminator 1
 352 01e0 63ECC70E 		bgtu	a2,a5,.L34
  72:src/MemoryAllocator.cpp **** 
  73:src/MemoryAllocator.cpp ****         return -1;
  74:src/MemoryAllocator.cpp ****     }
  75:src/MemoryAllocator.cpp **** 
  76:src/MemoryAllocator.cpp ****     if((char*)ptr < (char*)freeMemHead){
 353              		.loc 1 76 5 is_stmt 1
 354              	.LBB6:
 355              		.loc 1 76 21 is_stmt 0
 356 01e4 97070000 		ld	a5,.LANCHOR0
 356      83B70700 
 357              		.loc 1 76 5
 358 01ec 6370F706 		bleu	a5,a4,.L26
  77:src/MemoryAllocator.cpp ****         cur = (Free*)ptr;
 359              		.loc 1 77 9 is_stmt 1
 360              	.LVL29:
  78:src/MemoryAllocator.cpp ****         if((char*)cur+size*MEM_BLOCK_SIZE==(char*)freeMemHead){     //slucaj da mogu da se nadoveze
 361              		.loc 1 78 9
 362 01f0 6308F602 		beq	a2,a5,.L36
  79:src/MemoryAllocator.cpp **** 
  80:src/MemoryAllocator.cpp ****             size+=freeMemHead->size;
  81:src/MemoryAllocator.cpp ****             freeMemHead->next->prev = cur;
  82:src/MemoryAllocator.cpp ****             cur->next = freeMemHead->next;
  83:src/MemoryAllocator.cpp ****             cur->prev = nullptr;
  84:src/MemoryAllocator.cpp ****             freeMemHead = cur;
  85:src/MemoryAllocator.cpp ****             freeMemHead->size = size;
  86:src/MemoryAllocator.cpp ****         }
  87:src/MemoryAllocator.cpp ****         else {
  88:src/MemoryAllocator.cpp ****             cur->size = size;
 363              		.loc 1 88 13
  89:src/MemoryAllocator.cpp ****             cur->next = freeMemHead;
 364              		.loc 1 89 13
 365              		.loc 1 89 23 is_stmt 0
 366 01f4 2334F5FC 		sd	a5,-56(a0)
  90:src/MemoryAllocator.cpp ****             cur->prev = nullptr;
 367              		.loc 1 90 13 is_stmt 1
 368              		.loc 1 90 23 is_stmt 0
 369 01f8 233805FC 		sd	zero,-48(a0)
  91:src/MemoryAllocator.cpp ****             freeMemHead->prev = cur;
 370              		.loc 1 91 13 is_stmt 1
 371              		.loc 1 91 26 is_stmt 0
 372 01fc 97070000 		lla	a5,.LANCHOR0
 372      93870700 
 373 0204 83B60700 		ld	a3,0(a5)
 374              		.loc 1 91 31
 375 0208 23B8E600 		sd	a4,16(a3)
  92:src/MemoryAllocator.cpp ****             freeMemHead = cur;
 376              		.loc 1 92 13 is_stmt 1
 377              		.loc 1 92 25 is_stmt 0
 378 020c 23B0E700 		sd	a4,0(a5)
 379              	.L28:
  93:src/MemoryAllocator.cpp ****         }
  94:src/MemoryAllocator.cpp ****         return 0;
GAS LISTING /tmp/ccXhxqOK.s 			page 10


 380              		.loc 1 94 9 is_stmt 1
 381              		.loc 1 94 16 is_stmt 0
 382 0210 13050000 		li	a0,0
 383              	.LVL30:
 384              	.L25:
 385              	.LBE6:
  95:src/MemoryAllocator.cpp ****     }
  96:src/MemoryAllocator.cpp ****     else{
  97:src/MemoryAllocator.cpp ****         for(cur = freeMemHead; cur->next!=nullptr && (char*)ptr>(char*)cur->next; cur = cur->next);
  98:src/MemoryAllocator.cpp ****         //provera da li se nalazi posle mene slobodan blok
  99:src/MemoryAllocator.cpp ****         Free* sled = cur->next;
 100:src/MemoryAllocator.cpp ****         Free* blk = (Free*)ptr;
 101:src/MemoryAllocator.cpp ****         //uvezem u listu
 102:src/MemoryAllocator.cpp ****         blk->prev = cur;
 103:src/MemoryAllocator.cpp ****         blk->next = cur->next;
 104:src/MemoryAllocator.cpp ****         sled->prev = blk;
 105:src/MemoryAllocator.cpp ****         cur->next = blk;
 106:src/MemoryAllocator.cpp ****         blk->size = size;
 107:src/MemoryAllocator.cpp **** 
 108:src/MemoryAllocator.cpp ****         //provera da li se nalazi posle mene slobodan blok
 109:src/MemoryAllocator.cpp ****         if((char*)ptr+size*MEM_BLOCK_SIZE==(char*)sled){
 110:src/MemoryAllocator.cpp ****             size+=sled->size;
 111:src/MemoryAllocator.cpp ****             blk->next = sled->next;
 112:src/MemoryAllocator.cpp ****             if(sled->next) sled->next->prev = blk;
 113:src/MemoryAllocator.cpp **** 
 114:src/MemoryAllocator.cpp ****             blk->size = size;
 115:src/MemoryAllocator.cpp ****         }
 116:src/MemoryAllocator.cpp ****         //provera da li se nalazi pre mene slobodan blok
 117:src/MemoryAllocator.cpp ****         if((char*)cur+cur->size*MEM_BLOCK_SIZE==(char*)ptr){
 118:src/MemoryAllocator.cpp **** 
 119:src/MemoryAllocator.cpp ****             cur->size +=size;
 120:src/MemoryAllocator.cpp ****             cur->next = blk->next;
 121:src/MemoryAllocator.cpp ****             if(blk->next) blk->next->prev = cur;
 122:src/MemoryAllocator.cpp ****         }
 123:src/MemoryAllocator.cpp ****         return 0;
 124:src/MemoryAllocator.cpp ****     }
 125:src/MemoryAllocator.cpp **** 
 126:src/MemoryAllocator.cpp **** 
 127:src/MemoryAllocator.cpp **** }...
 386              		.loc 1 127 1
 387 0214 03348100 		ld	s0,8(sp)
 388              		.cfi_remember_state
 389              		.cfi_restore 8
 390              		.cfi_def_cfa 2, 16
 391 0218 13010101 		addi	sp,sp,16
 392              		.cfi_def_cfa_offset 0
 393 021c 67800000 		jr	ra
 394              	.LVL31:
 395              	.L36:
 396              		.cfi_restore_state
 397              	.LBB8:
  80:src/MemoryAllocator.cpp ****             size+=freeMemHead->size;
 398              		.loc 1 80 13 is_stmt 1
  80:src/MemoryAllocator.cpp ****             size+=freeMemHead->size;
 399              		.loc 1 80 32 is_stmt 0
 400 0220 83B60700 		ld	a3,0(a5)
  80:src/MemoryAllocator.cpp ****             size+=freeMemHead->size;
GAS LISTING /tmp/ccXhxqOK.s 			page 11


 401              		.loc 1 80 17
 402 0224 B385B600 		add	a1,a3,a1
 403              	.LVL32:
  81:src/MemoryAllocator.cpp ****             freeMemHead->next->prev = cur;
 404              		.loc 1 81 13 is_stmt 1
  81:src/MemoryAllocator.cpp ****             freeMemHead->next->prev = cur;
 405              		.loc 1 81 26 is_stmt 0
 406 0228 83B68700 		ld	a3,8(a5)
  81:src/MemoryAllocator.cpp ****             freeMemHead->next->prev = cur;
 407              		.loc 1 81 37
 408 022c 23B8E600 		sd	a4,16(a3)
  82:src/MemoryAllocator.cpp ****             cur->next = freeMemHead->next;
 409              		.loc 1 82 13 is_stmt 1
  82:src/MemoryAllocator.cpp ****             cur->next = freeMemHead->next;
 410              		.loc 1 82 38 is_stmt 0
 411 0230 83B78700 		ld	a5,8(a5)
  82:src/MemoryAllocator.cpp ****             cur->next = freeMemHead->next;
 412              		.loc 1 82 23
 413 0234 2334F5FC 		sd	a5,-56(a0)
  83:src/MemoryAllocator.cpp ****             cur->prev = nullptr;
 414              		.loc 1 83 13 is_stmt 1
  83:src/MemoryAllocator.cpp ****             cur->prev = nullptr;
 415              		.loc 1 83 23 is_stmt 0
 416 0238 233805FC 		sd	zero,-48(a0)
  84:src/MemoryAllocator.cpp ****             freeMemHead = cur;
 417              		.loc 1 84 13 is_stmt 1
  84:src/MemoryAllocator.cpp ****             freeMemHead = cur;
 418              		.loc 1 84 25 is_stmt 0
 419 023c 97070000 		sd	a4,.LANCHOR0,a5
 419      23B0E700 
  85:src/MemoryAllocator.cpp ****             freeMemHead->size = size;
 420              		.loc 1 85 13 is_stmt 1
  85:src/MemoryAllocator.cpp ****             freeMemHead->size = size;
 421              		.loc 1 85 31 is_stmt 0
 422 0244 2330B5FC 		sd	a1,-64(a0)
 423 0248 6FF09FFC 		j	.L28
 424              	.LVL33:
 425              	.L26:
 426              	.LBB7:
  97:src/MemoryAllocator.cpp ****         for(cur = freeMemHead; cur->next!=nullptr && (char*)ptr>(char*)cur->next; cur = cur->next);
 427              		.loc 1 97 51 is_stmt 1 discriminator 4
 428 024c 93860700 		mv	a3,a5
  97:src/MemoryAllocator.cpp ****         for(cur = freeMemHead; cur->next!=nullptr && (char*)ptr>(char*)cur->next; cur = cur->next);
 429              		.loc 1 97 37 is_stmt 0 discriminator 4
 430 0250 83B78700 		ld	a5,8(a5)
 431              	.LVL34:
  97:src/MemoryAllocator.cpp ****         for(cur = freeMemHead; cur->next!=nullptr && (char*)ptr>(char*)cur->next; cur = cur->next);
 432              		.loc 1 97 51 discriminator 4
 433 0254 63840700 		beqz	a5,.L29
  97:src/MemoryAllocator.cpp ****         for(cur = freeMemHead; cur->next!=nullptr && (char*)ptr>(char*)cur->next; cur = cur->next);
 434              		.loc 1 97 51 discriminator 2
 435 0258 E3EAE7FE 		bltu	a5,a4,.L26
 436              	.L29:
  99:src/MemoryAllocator.cpp ****         Free* sled = cur->next;
 437              		.loc 1 99 9 is_stmt 1
 438              	.LVL35:
 100:src/MemoryAllocator.cpp ****         Free* blk = (Free*)ptr;
GAS LISTING /tmp/ccXhxqOK.s 			page 12


 439              		.loc 1 100 9
 102:src/MemoryAllocator.cpp ****         blk->prev = cur;
 440              		.loc 1 102 9
 102:src/MemoryAllocator.cpp ****         blk->prev = cur;
 441              		.loc 1 102 19 is_stmt 0
 442 025c 2338D5FC 		sd	a3,-48(a0)
 103:src/MemoryAllocator.cpp ****         blk->next = cur->next;
 443              		.loc 1 103 9 is_stmt 1
 103:src/MemoryAllocator.cpp ****         blk->next = cur->next;
 444              		.loc 1 103 26 is_stmt 0
 445 0260 03B88600 		ld	a6,8(a3)
 103:src/MemoryAllocator.cpp ****         blk->next = cur->next;
 446              		.loc 1 103 19
 447 0264 233405FD 		sd	a6,-56(a0)
 104:src/MemoryAllocator.cpp ****         sled->prev = blk;
 448              		.loc 1 104 9 is_stmt 1
 104:src/MemoryAllocator.cpp ****         sled->prev = blk;
 449              		.loc 1 104 20 is_stmt 0
 450 0268 23B8E700 		sd	a4,16(a5)
 105:src/MemoryAllocator.cpp ****         cur->next = blk;
 451              		.loc 1 105 9 is_stmt 1
 105:src/MemoryAllocator.cpp ****         cur->next = blk;
 452              		.loc 1 105 19 is_stmt 0
 453 026c 23B4E600 		sd	a4,8(a3)
 106:src/MemoryAllocator.cpp ****         blk->size = size;
 454              		.loc 1 106 9 is_stmt 1
 106:src/MemoryAllocator.cpp ****         blk->size = size;
 455              		.loc 1 106 19 is_stmt 0
 456 0270 2330B5FC 		sd	a1,-64(a0)
 109:src/MemoryAllocator.cpp ****         if((char*)ptr+size*MEM_BLOCK_SIZE==(char*)sled){
 457              		.loc 1 109 9 is_stmt 1
 458 0274 630EF600 		beq	a2,a5,.L37
 459              	.LVL36:
 460              	.L30:
 117:src/MemoryAllocator.cpp ****         if((char*)cur+cur->size*MEM_BLOCK_SIZE==(char*)ptr){
 461              		.loc 1 117 9
 117:src/MemoryAllocator.cpp ****         if((char*)cur+cur->size*MEM_BLOCK_SIZE==(char*)ptr){
 462              		.loc 1 117 28 is_stmt 0
 463 0278 03B60600 		ld	a2,0(a3)
 117:src/MemoryAllocator.cpp ****         if((char*)cur+cur->size*MEM_BLOCK_SIZE==(char*)ptr){
 464              		.loc 1 117 32
 465 027c 93176600 		slli	a5,a2,6
 117:src/MemoryAllocator.cpp ****         if((char*)cur+cur->size*MEM_BLOCK_SIZE==(char*)ptr){
 466              		.loc 1 117 22
 467 0280 B387F600 		add	a5,a3,a5
 117:src/MemoryAllocator.cpp ****         if((char*)cur+cur->size*MEM_BLOCK_SIZE==(char*)ptr){
 468              		.loc 1 117 9
 469 0284 6388E702 		beq	a5,a4,.L38
 470              	.LVL37:
 471              	.L32:
 123:src/MemoryAllocator.cpp ****         return 0;
 472              		.loc 1 123 9 is_stmt 1
 123:src/MemoryAllocator.cpp ****         return 0;
 473              		.loc 1 123 16 is_stmt 0
 474 0288 13050000 		li	a0,0
 475 028c 6FF09FF8 		j	.L25
 476              	.LVL38:
GAS LISTING /tmp/ccXhxqOK.s 			page 13


 477              	.L37:
 110:src/MemoryAllocator.cpp ****             size+=sled->size;
 478              		.loc 1 110 13 is_stmt 1
 110:src/MemoryAllocator.cpp ****             size+=sled->size;
 479              		.loc 1 110 25 is_stmt 0
 480 0290 03B60700 		ld	a2,0(a5)
 110:src/MemoryAllocator.cpp ****             size+=sled->size;
 481              		.loc 1 110 17
 482 0294 B385C500 		add	a1,a1,a2
 483              	.LVL39:
 111:src/MemoryAllocator.cpp ****             blk->next = sled->next;
 484              		.loc 1 111 13 is_stmt 1
 111:src/MemoryAllocator.cpp ****             blk->next = sled->next;
 485              		.loc 1 111 31 is_stmt 0
 486 0298 03B68700 		ld	a2,8(a5)
 111:src/MemoryAllocator.cpp ****             blk->next = sled->next;
 487              		.loc 1 111 23
 488 029c 2334C5FC 		sd	a2,-56(a0)
 112:src/MemoryAllocator.cpp ****             if(sled->next) sled->next->prev = blk;
 489              		.loc 1 112 13 is_stmt 1
 112:src/MemoryAllocator.cpp ****             if(sled->next) sled->next->prev = blk;
 490              		.loc 1 112 22 is_stmt 0
 491 02a0 83B78700 		ld	a5,8(a5)
 492              	.LVL40:
 112:src/MemoryAllocator.cpp ****             if(sled->next) sled->next->prev = blk;
 493              		.loc 1 112 13
 494 02a4 63840700 		beqz	a5,.L31
 112:src/MemoryAllocator.cpp ****             if(sled->next) sled->next->prev = blk;
 495              		.loc 1 112 28 is_stmt 1 discriminator 1
 112:src/MemoryAllocator.cpp ****             if(sled->next) sled->next->prev = blk;
 496              		.loc 1 112 45 is_stmt 0 discriminator 1
 497 02a8 23B8E700 		sd	a4,16(a5)
 498              	.L31:
 114:src/MemoryAllocator.cpp ****             blk->size = size;
 499              		.loc 1 114 13 is_stmt 1
 114:src/MemoryAllocator.cpp ****             blk->size = size;
 500              		.loc 1 114 23 is_stmt 0
 501 02ac 2330B5FC 		sd	a1,-64(a0)
 502 02b0 6FF09FFC 		j	.L30
 503              	.L38:
 119:src/MemoryAllocator.cpp ****             cur->size +=size;
 504              		.loc 1 119 13 is_stmt 1
 119:src/MemoryAllocator.cpp ****             cur->size +=size;
 505              		.loc 1 119 23 is_stmt 0
 506 02b4 B305B600 		add	a1,a2,a1
 507              	.LVL41:
 508 02b8 23B0B600 		sd	a1,0(a3)
 120:src/MemoryAllocator.cpp ****             cur->next = blk->next;
 509              		.loc 1 120 13 is_stmt 1
 120:src/MemoryAllocator.cpp ****             cur->next = blk->next;
 510              		.loc 1 120 30 is_stmt 0
 511 02bc 833785FC 		ld	a5,-56(a0)
 120:src/MemoryAllocator.cpp ****             cur->next = blk->next;
 512              		.loc 1 120 23
 513 02c0 23B4F600 		sd	a5,8(a3)
 121:src/MemoryAllocator.cpp ****             if(blk->next) blk->next->prev = cur;
 514              		.loc 1 121 13 is_stmt 1
GAS LISTING /tmp/ccXhxqOK.s 			page 14


 515 02c4 E38207FC 		beqz	a5,.L32
 121:src/MemoryAllocator.cpp ****             if(blk->next) blk->next->prev = cur;
 516              		.loc 1 121 27 discriminator 1
 121:src/MemoryAllocator.cpp ****             if(blk->next) blk->next->prev = cur;
 517              		.loc 1 121 43 is_stmt 0 discriminator 1
 518 02c8 23B8D700 		sd	a3,16(a5)
 519 02cc 6FF0DFFB 		j	.L32
 520              	.LVL42:
 521              	.L33:
 522              	.LBE7:
 523              	.LBE8:
  73:src/MemoryAllocator.cpp ****         return -1;
 524              		.loc 1 73 17
 525 02d0 1305F0FF 		li	a0,-1
 526 02d4 6FF01FF4 		j	.L25
 527              	.L34:
 528 02d8 1305F0FF 		li	a0,-1
 529 02dc 6FF09FF3 		j	.L25
 530              		.cfi_endproc
 531              	.LFE3:
 533              		.globl	_ZN15MemoryAllocator11freeMemHeadE
 534              		.data
 535              		.set	.LANCHOR1,. + 0
 538              	_ZZN15MemoryAllocator9mem_allocEmE1k:
 539 0000 01       		.byte	1
 540              		.bss
 541              		.align	3
 542              		.set	.LANCHOR0,. + 0
 545              	_ZN15MemoryAllocator11freeMemHeadE:
 546 0000 00000000 		.zero	8
 546      00000000 
 547              		.text
 548              	.Letext0:
 549              		.file 2 "src/../h/../lib/hw.h"
 550              		.file 3 "src/../h/MemoryAllocator.hpp"
GAS LISTING /tmp/ccXhxqOK.s 			page 15

