GAS LISTING /tmp/ccXhxqOK.s 			page 1


   1              		.file	"MemoryAllocator.cpp"
   2              		.option pic
   3              		.option norelax
   4              		.text
   5              	.Ltext0:
   6              		.align	2
   7              		.globl	_ZN15MemoryAllocator18transferToNumBlockEm
   9              	_ZN15MemoryAllocator18transferToNumBlockEm:
  10              	.LFB0:
  11              		.file 1 "src/MemoryAllocator.cpp"
   1:src/MemoryAllocator.cpp **** #include "../h/MemoryAllocator.hpp"
   2:src/MemoryAllocator.cpp **** 
   3:src/MemoryAllocator.cpp **** 
   4:src/MemoryAllocator.cpp **** Free* MemoryAllocator::freeMemHead = nullptr;
   5:src/MemoryAllocator.cpp **** size_t MemoryAllocator::transferToNumBlock(size_t size){
  12              		.loc 1 5 56
  13              		.cfi_startproc
  14              	.LVL0:
  15 0000 130101FF 		addi	sp,sp,-16
  16              		.cfi_def_cfa_offset 16
  17 0004 23348100 		sd	s0,8(sp)
  18              		.cfi_offset 8, -8
  19 0008 13040101 		addi	s0,sp,16
  20              		.cfi_def_cfa 8, 0
   6:src/MemoryAllocator.cpp ****     if((size)%MEM_BLOCK_SIZE==0) size = (size)/MEM_BLOCK_SIZE;
  21              		.loc 1 6 5
  22              		.loc 1 6 14 is_stmt 0
  23 000c 9377F503 		andi	a5,a0,63
  24              		.loc 1 6 5
  25 0010 639A0700 		bnez	a5,.L2
  26              		.loc 1 6 34 is_stmt 1 discriminator 1
  27              		.loc 1 6 39 is_stmt 0 discriminator 1
  28 0014 13556500 		srli	a0,a0,6
  29              	.LVL1:
  30              	.L1:
   7:src/MemoryAllocator.cpp ****     else
   8:src/MemoryAllocator.cpp ****         size = (size)/MEM_BLOCK_SIZE + 1;
   9:src/MemoryAllocator.cpp ****     return size;
  10:src/MemoryAllocator.cpp **** }
  31              		.loc 1 10 1
  32 0018 03348100 		ld	s0,8(sp)
  33              		.cfi_remember_state
  34              		.cfi_restore 8
  35              		.cfi_def_cfa 2, 16
  36 001c 13010101 		addi	sp,sp,16
  37              		.cfi_def_cfa_offset 0
  38 0020 67800000 		jr	ra
  39              	.L2:
  40              		.cfi_restore_state
   8:src/MemoryAllocator.cpp ****     return size;
  41              		.loc 1 8 9 is_stmt 1
   8:src/MemoryAllocator.cpp ****     return size;
  42              		.loc 1 8 22 is_stmt 0
  43 0024 13556500 		srli	a0,a0,6
  44              	.LVL2:
   8:src/MemoryAllocator.cpp ****     return size;
  45              		.loc 1 8 14
GAS LISTING /tmp/ccXhxqOK.s 			page 2


  46 0028 13051500 		addi	a0,a0,1
  47              	.LVL3:
   9:src/MemoryAllocator.cpp **** }
  48              		.loc 1 9 5 is_stmt 1
   9:src/MemoryAllocator.cpp **** }
  49              		.loc 1 9 12 is_stmt 0
  50 002c 6FF0DFFE 		j	.L1
  51              		.cfi_endproc
  52              	.LFE0:
  54              		.align	2
  55              		.globl	_ZN15MemoryAllocator10initializeEv
  57              	_ZN15MemoryAllocator10initializeEv:
  58              	.LFB1:
  11:src/MemoryAllocator.cpp **** void MemoryAllocator::initialize() {
  59              		.loc 1 11 36 is_stmt 1
  60              		.cfi_startproc
  61 0030 130101FE 		addi	sp,sp,-32
  62              		.cfi_def_cfa_offset 32
  63 0034 233C1100 		sd	ra,24(sp)
  64 0038 23388100 		sd	s0,16(sp)
  65 003c 23349100 		sd	s1,8(sp)
  66              		.cfi_offset 1, -8
  67              		.cfi_offset 8, -16
  68              		.cfi_offset 9, -24
  69 0040 13040102 		addi	s0,sp,32
  70              		.cfi_def_cfa 8, 0
  12:src/MemoryAllocator.cpp ****     freeMemHead = (Free*) HEAP_START_ADDR;
  71              		.loc 1 12 5
  72              		.loc 1 12 17 is_stmt 0
  73 0044 97070000 		la	a5,HEAP_START_ADDR
  73      83B70700 
  74 004c 83B40700 		ld	s1,0(a5)
  75 0050 97070000 		sd	s1,.LANCHOR0,a5
  75      23B09700 
  13:src/MemoryAllocator.cpp ****     freeMemHead->next = nullptr;
  76              		.loc 1 13 5 is_stmt 1
  77              		.loc 1 13 23 is_stmt 0
  78 0058 23B40400 		sd	zero,8(s1)
  14:src/MemoryAllocator.cpp ****     freeMemHead->prev = nullptr;
  79              		.loc 1 14 5 is_stmt 1
  80              		.loc 1 14 23 is_stmt 0
  81 005c 23B80400 		sd	zero,16(s1)
  15:src/MemoryAllocator.cpp ****     freeMemHead->size = transferToNumBlock((char*)HEAP_END_ADDR - (char*)HEAP_START_ADDR - sizeof(s
  82              		.loc 1 15 5 is_stmt 1
  83              		.loc 1 15 44 is_stmt 0
  84 0060 97070000 		la	a5,HEAP_END_ADDR
  84      83B70700 
  85 0068 03B50700 		ld	a0,0(a5)
  86              		.loc 1 15 65
  87 006c 33059540 		sub	a0,a0,s1
  88              		.loc 1 15 43
  89 0070 130585FF 		addi	a0,a0,-8
  90 0074 97000000 		call	_ZN15MemoryAllocator18transferToNumBlockEm
  90      E7800000 
  91              	.LVL4:
  92              		.loc 1 15 23
  93 007c 23B0A400 		sd	a0,0(s1)
GAS LISTING /tmp/ccXhxqOK.s 			page 3


  16:src/MemoryAllocator.cpp **** }
  94              		.loc 1 16 1
  95 0080 83308101 		ld	ra,24(sp)
  96              		.cfi_restore 1
  97 0084 03340101 		ld	s0,16(sp)
  98              		.cfi_restore 8
  99              		.cfi_def_cfa 2, 32
 100 0088 83348100 		ld	s1,8(sp)
 101              		.cfi_restore 9
 102 008c 13010102 		addi	sp,sp,32
 103              		.cfi_def_cfa_offset 0
 104 0090 67800000 		jr	ra
 105              		.cfi_endproc
 106              	.LFE1:
 108              		.align	2
 109              		.globl	_ZN15MemoryAllocator9mem_allocEm
 111              	_ZN15MemoryAllocator9mem_allocEm:
 112              	.LFB2:
  17:src/MemoryAllocator.cpp **** 
  18:src/MemoryAllocator.cpp **** void* MemoryAllocator::mem_alloc(size_t size) {
 113              		.loc 1 18 47 is_stmt 1
 114              		.cfi_startproc
 115              	.LVL5:
  19:src/MemoryAllocator.cpp ****     static uint8 k=1;
 116              		.loc 1 19 5
  20:src/MemoryAllocator.cpp **** 
  21:src/MemoryAllocator.cpp ****     if (size <= 0)
 117              		.loc 1 21 5
 118 0094 63060510 		beqz	a0,.L18
  18:src/MemoryAllocator.cpp ****     static uint8 k=1;
 119              		.loc 1 18 47 is_stmt 0
 120 0098 130101FE 		addi	sp,sp,-32
 121              		.cfi_def_cfa_offset 32
 122 009c 233C1100 		sd	ra,24(sp)
 123 00a0 23388100 		sd	s0,16(sp)
 124 00a4 23349100 		sd	s1,8(sp)
 125              		.cfi_offset 1, -8
 126              		.cfi_offset 8, -16
 127              		.cfi_offset 9, -24
 128 00a8 13040102 		addi	s0,sp,32
 129              		.cfi_def_cfa 8, 0
 130 00ac 93040500 		mv	s1,a0
  22:src/MemoryAllocator.cpp ****         return nullptr;
  23:src/MemoryAllocator.cpp ****     if(k==1){
 131              		.loc 1 23 5 is_stmt 1
 132              		.loc 1 23 9 is_stmt 0
 133 00b0 17070000 		lbu	a4,.LANCHOR1
 133      03470700 
 134              		.loc 1 23 5
 135 00b8 93071000 		li	a5,1
 136 00bc 6300F702 		beq	a4,a5,.L23
 137              	.LVL6:
 138              	.L9:
  24:src/MemoryAllocator.cpp ****         k=0;
  25:src/MemoryAllocator.cpp ****         initialize();
  26:src/MemoryAllocator.cpp ****     }
  27:src/MemoryAllocator.cpp **** 
GAS LISTING /tmp/ccXhxqOK.s 			page 4


  28:src/MemoryAllocator.cpp ****     Free* head = freeMemHead;
 139              		.loc 1 28 5 is_stmt 1
 140              		.loc 1 28 11 is_stmt 0
 141 00c0 17050000 		ld	a0,.LANCHOR0
 141      03350500 
 142              	.LVL7:
 143              	.L11:
  29:src/MemoryAllocator.cpp **** 
  30:src/MemoryAllocator.cpp ****     //first fit alg
  31:src/MemoryAllocator.cpp ****     for (; head != nullptr; head = head->next)
 144              		.loc 1 31 5 is_stmt 1 discriminator 1
 145              		.loc 1 31 17 discriminator 1
 146 00c8 63040502 		beqz	a0,.L10
  32:src/MemoryAllocator.cpp ****         if (head->size >= size)break;
 147              		.loc 1 32 9
 148              		.loc 1 32 19 is_stmt 0
 149 00cc 83370500 		ld	a5,0(a0)
 150              		.loc 1 32 9
 151 00d0 63F09702 		bgeu	a5,s1,.L10
  31:src/MemoryAllocator.cpp ****         if (head->size >= size)break;
 152              		.loc 1 31 5 is_stmt 1
  31:src/MemoryAllocator.cpp ****         if (head->size >= size)break;
 153              		.loc 1 31 34 is_stmt 0
 154 00d4 03358500 		ld	a0,8(a0)
 155              	.LVL8:
  31:src/MemoryAllocator.cpp ****         if (head->size >= size)break;
 156              		.loc 1 31 5
 157 00d8 6FF01FFF 		j	.L11
 158              	.LVL9:
 159              	.L23:
  24:src/MemoryAllocator.cpp ****         initialize();
 160              		.loc 1 24 9 is_stmt 1
  24:src/MemoryAllocator.cpp ****         initialize();
 161              		.loc 1 24 10 is_stmt 0
 162 00dc 97070000 		sb	zero,.LANCHOR1,a5
 162      23800700 
  25:src/MemoryAllocator.cpp ****     }
 163              		.loc 1 25 9 is_stmt 1
  25:src/MemoryAllocator.cpp ****     }
 164              		.loc 1 25 19 is_stmt 0
 165 00e4 97000000 		call	_ZN15MemoryAllocator10initializeEv
 165      E7800000 
 166              	.LVL10:
 167 00ec 6FF05FFD 		j	.L9
 168              	.LVL11:
 169              	.L10:
  33:src/MemoryAllocator.cpp **** 
  34:src/MemoryAllocator.cpp ****     if (head == nullptr)
 170              		.loc 1 34 5 is_stmt 1
 171 00f0 630C0504 		beqz	a0,.L7
  35:src/MemoryAllocator.cpp ****         return nullptr;
  36:src/MemoryAllocator.cpp **** 
  37:src/MemoryAllocator.cpp ****     size_t remainingSize = head->size - size;
 172              		.loc 1 37 5
 173              		.loc 1 37 34 is_stmt 0
 174 00f4 83370500 		ld	a5,0(a0)
 175              		.loc 1 37 12
GAS LISTING /tmp/ccXhxqOK.s 			page 5


 176 00f8 33879740 		sub	a4,a5,s1
 177              	.LVL12:
  38:src/MemoryAllocator.cpp ****     if (remainingSize > 0) {
 178              		.loc 1 38 5 is_stmt 1
 179              	.LBB2:
 180 00fc 63869706 		beq	a5,s1,.L12
 181              	.LBB3:
  39:src/MemoryAllocator.cpp **** 
  40:src/MemoryAllocator.cpp ****         //ima ostatak prostora od alociranog bloka
  41:src/MemoryAllocator.cpp ****         Free* newBlk = (Free*) ((char*)head + (size+sizeof(size_t))*MEM_BLOCK_SIZE);
 182              		.loc 1 41 9
 183              		.loc 1 41 52 is_stmt 0
 184 0100 93878400 		addi	a5,s1,8
 185              		.loc 1 41 68
 186 0104 93976700 		slli	a5,a5,6
 187              		.loc 1 41 15
 188 0108 B307F500 		add	a5,a0,a5
 189              	.LVL13:
  42:src/MemoryAllocator.cpp ****         if(head->next) head->next->prev = newBlk;
 190              		.loc 1 42 9 is_stmt 1
 191              		.loc 1 42 18 is_stmt 0
 192 010c 83368500 		ld	a3,8(a0)
 193              		.loc 1 42 9
 194 0110 63840600 		beqz	a3,.L13
 195              		.loc 1 42 24 is_stmt 1 discriminator 1
 196              		.loc 1 42 41 is_stmt 0 discriminator 1
 197 0114 23B8F600 		sd	a5,16(a3)
 198              	.L13:
  43:src/MemoryAllocator.cpp ****         if (head->prev) head->prev->next = newBlk;
 199              		.loc 1 43 9 is_stmt 1
 200              		.loc 1 43 19 is_stmt 0
 201 0118 83360501 		ld	a3,16(a0)
 202              		.loc 1 43 9
 203 011c 63800604 		beqz	a3,.L14
 204              		.loc 1 43 25 is_stmt 1 discriminator 1
 205              		.loc 1 43 42 is_stmt 0 discriminator 1
 206 0120 23B4F600 		sd	a5,8(a3)
 207              	.L15:
  44:src/MemoryAllocator.cpp ****         else freeMemHead = newBlk;
  45:src/MemoryAllocator.cpp ****         newBlk->next = head->next;
 208              		.loc 1 45 9 is_stmt 1
 209              		.loc 1 45 30 is_stmt 0
 210 0124 83368500 		ld	a3,8(a0)
 211              		.loc 1 45 22
 212 0128 23B4D700 		sd	a3,8(a5)
  46:src/MemoryAllocator.cpp ****         newBlk->prev = head->prev;
 213              		.loc 1 46 9 is_stmt 1
 214              		.loc 1 46 30 is_stmt 0
 215 012c 83360501 		ld	a3,16(a0)
 216              		.loc 1 46 22
 217 0130 23B8D700 		sd	a3,16(a5)
  47:src/MemoryAllocator.cpp ****         newBlk->size = remainingSize;//skaliraana na mem_block_size
 218              		.loc 1 47 9 is_stmt 1
 219              		.loc 1 47 22 is_stmt 0
 220 0134 23B0E700 		sd	a4,0(a5)
 221              	.LVL14:
 222              	.L16:
GAS LISTING /tmp/ccXhxqOK.s 			page 6


 223              	.LBE3:
 224              	.LBE2:
  48:src/MemoryAllocator.cpp ****     }
  49:src/MemoryAllocator.cpp ****     else{
  50:src/MemoryAllocator.cpp ****         //nije ostalo prostora, uvezi na sledeci
  51:src/MemoryAllocator.cpp ****         if(head->prev) {
  52:src/MemoryAllocator.cpp ****             head->prev->next = head->next;
  53:src/MemoryAllocator.cpp ****             if(head->next)
  54:src/MemoryAllocator.cpp ****                 head->next->prev = head->prev;
  55:src/MemoryAllocator.cpp ****         }
  56:src/MemoryAllocator.cpp ****         else {freeMemHead = head->next; head->next->prev = nullptr;}
  57:src/MemoryAllocator.cpp **** 
  58:src/MemoryAllocator.cpp ****     }
  59:src/MemoryAllocator.cpp ****     head->next = nullptr;
 225              		.loc 1 59 5 is_stmt 1
 226              		.loc 1 59 16 is_stmt 0
 227 0138 23340500 		sd	zero,8(a0)
  60:src/MemoryAllocator.cpp ****     head->prev = nullptr;
 228              		.loc 1 60 5 is_stmt 1
 229              		.loc 1 60 16 is_stmt 0
 230 013c 23380500 		sd	zero,16(a0)
  61:src/MemoryAllocator.cpp ****     head->size = size;
 231              		.loc 1 61 5 is_stmt 1
 232              		.loc 1 61 16 is_stmt 0
 233 0140 23309500 		sd	s1,0(a0)
  62:src/MemoryAllocator.cpp ****     return (void*)((char*)head+MEM_BLOCK_SIZE);
 234              		.loc 1 62 5 is_stmt 1
 235              		.loc 1 62 46 is_stmt 0
 236 0144 13050504 		addi	a0,a0,64
 237              	.LVL15:
 238              	.L7:
  63:src/MemoryAllocator.cpp **** 
  64:src/MemoryAllocator.cpp **** }
 239              		.loc 1 64 1
 240 0148 83308101 		ld	ra,24(sp)
 241              		.cfi_remember_state
 242              		.cfi_restore 1
 243 014c 03340101 		ld	s0,16(sp)
 244              		.cfi_restore 8
 245              		.cfi_def_cfa 2, 32
 246 0150 83348100 		ld	s1,8(sp)
 247              		.cfi_restore 9
 248              	.LVL16:
 249 0154 13010102 		addi	sp,sp,32
 250              		.cfi_def_cfa_offset 0
 251 0158 67800000 		jr	ra
 252              	.LVL17:
 253              	.L14:
 254              		.cfi_restore_state
 255              	.LBB5:
 256              	.LBB4:
  44:src/MemoryAllocator.cpp ****         newBlk->next = head->next;
 257              		.loc 1 44 14 is_stmt 1
  44:src/MemoryAllocator.cpp ****         newBlk->next = head->next;
 258              		.loc 1 44 26 is_stmt 0
 259 015c 97060000 		sd	a5,.LANCHOR0,a3
 259      23B0F600 
GAS LISTING /tmp/ccXhxqOK.s 			page 7


 260 0164 6FF01FFC 		j	.L15
 261              	.LVL18:
 262              	.L12:
 263              	.LBE4:
  51:src/MemoryAllocator.cpp ****             head->prev->next = head->next;
 264              		.loc 1 51 9 is_stmt 1
  51:src/MemoryAllocator.cpp ****             head->prev->next = head->next;
 265              		.loc 1 51 18 is_stmt 0
 266 0168 83370501 		ld	a5,16(a0)
  51:src/MemoryAllocator.cpp ****             head->prev->next = head->next;
 267              		.loc 1 51 9
 268 016c 63800702 		beqz	a5,.L17
  52:src/MemoryAllocator.cpp ****             if(head->next)
 269              		.loc 1 52 13 is_stmt 1
  52:src/MemoryAllocator.cpp ****             if(head->next)
 270              		.loc 1 52 38 is_stmt 0
 271 0170 03378500 		ld	a4,8(a0)
 272              	.LVL19:
  52:src/MemoryAllocator.cpp ****             if(head->next)
 273              		.loc 1 52 30
 274 0174 23B4E700 		sd	a4,8(a5)
 275              	.LVL20:
  53:src/MemoryAllocator.cpp ****                 head->next->prev = head->prev;
 276              		.loc 1 53 13 is_stmt 1
  53:src/MemoryAllocator.cpp ****                 head->next->prev = head->prev;
 277              		.loc 1 53 22 is_stmt 0
 278 0178 83378500 		ld	a5,8(a0)
  53:src/MemoryAllocator.cpp ****                 head->next->prev = head->prev;
 279              		.loc 1 53 13
 280 017c E38E07FA 		beqz	a5,.L16
  54:src/MemoryAllocator.cpp ****         }
 281              		.loc 1 54 17 is_stmt 1
  54:src/MemoryAllocator.cpp ****         }
 282              		.loc 1 54 42 is_stmt 0
 283 0180 03370501 		ld	a4,16(a0)
  54:src/MemoryAllocator.cpp ****         }
 284              		.loc 1 54 34
 285 0184 23B8E700 		sd	a4,16(a5)
 286 0188 6FF01FFB 		j	.L16
 287              	.LVL21:
 288              	.L17:
  56:src/MemoryAllocator.cpp **** 
 289              		.loc 1 56 15 is_stmt 1
  56:src/MemoryAllocator.cpp **** 
 290              		.loc 1 56 35 is_stmt 0
 291 018c 83378500 		ld	a5,8(a0)
  56:src/MemoryAllocator.cpp **** 
 292              		.loc 1 56 27
 293 0190 17070000 		sd	a5,.LANCHOR0,a4
 293      2330F700 
 294              	.LVL22:
  56:src/MemoryAllocator.cpp **** 
 295              		.loc 1 56 41 is_stmt 1
  56:src/MemoryAllocator.cpp **** 
 296              		.loc 1 56 58 is_stmt 0
 297 0198 23B80700 		sd	zero,16(a5)
 298 019c 6FF0DFF9 		j	.L16
GAS LISTING /tmp/ccXhxqOK.s 			page 8


 299              	.LVL23:
 300              	.L18:
 301              		.cfi_def_cfa_register 2
 302              		.cfi_restore 1
 303              		.cfi_restore 8
 304              		.cfi_restore 9
 305              	.LBE5:
  22:src/MemoryAllocator.cpp ****     if(k==1){
 306              		.loc 1 22 16
 307 01a0 13050000 		li	a0,0
 308              	.LVL24:
 309              		.loc 1 64 1
 310 01a4 67800000 		ret
 311              		.cfi_endproc
 312              	.LFE2:
 314              		.align	2
 315              		.globl	_ZN15MemoryAllocator8mem_freeEPv
 317              	_ZN15MemoryAllocator8mem_freeEPv:
 318              	.LFB3:
  65:src/MemoryAllocator.cpp **** 
  66:src/MemoryAllocator.cpp **** int MemoryAllocator::mem_free(void *ptr) {
 319              		.loc 1 66 42 is_stmt 1
 320              		.cfi_startproc
 321              	.LVL25:
 322 01a8 130101FF 		addi	sp,sp,-16
 323              		.cfi_def_cfa_offset 16
 324 01ac 23348100 		sd	s0,8(sp)
 325              		.cfi_offset 8, -8
 326 01b0 13040101 		addi	s0,sp,16
 327              		.cfi_def_cfa 8, 0
  67:src/MemoryAllocator.cpp ****     Free* cur = nullptr;
 328              		.loc 1 67 5
 329              	.LVL26:
  68:src/MemoryAllocator.cpp ****     ptr = (void*)((char*)ptr-MEM_BLOCK_SIZE);
 330              		.loc 1 68 5
 331              		.loc 1 68 9 is_stmt 0
 332 01b4 130705FC 		addi	a4,a0,-64
 333              	.LVL27:
  69:src/MemoryAllocator.cpp ****     size_t size = ((Free*)ptr)->size;
 334              		.loc 1 69 5 is_stmt 1
 335              		.loc 1 69 12 is_stmt 0
 336 01b8 833505FC 		ld	a1,-64(a0)
 337              	.LVL28:
  70:src/MemoryAllocator.cpp **** 
  71:src/MemoryAllocator.cpp ****     if((char*)ptr<(char*)HEAP_START_ADDR || (char*)ptr+size*MEM_BLOCK_SIZE>(char*)HEAP_END_ADDR){
 338              		.loc 1 71 5 is_stmt 1
 339              		.loc 1 71 19 is_stmt 0
 340 01bc 97070000 		la	a5,HEAP_START_ADDR
 340      83B70700 
 341 01c4 83B70700 		ld	a5,0(a5)
 342              		.loc 1 71 5
 343 01c8 6364F710 		bgtu	a5,a4,.L33
 344              		.loc 1 71 60 discriminator 1
 345 01cc 13966500 		slli	a2,a1,6
 346              		.loc 1 71 55 discriminator 1
 347 01d0 3306C700 		add	a2,a4,a2
 348              		.loc 1 71 76 discriminator 1
GAS LISTING /tmp/ccXhxqOK.s 			page 9


 349 01d4 97070000 		la	a5,HEAP_END_ADDR
 349      83B70700 
 350 01dc 83B70700 		ld	a5,0(a5)
 351              		.loc 1 71 42 discriminator 1
 352 01e0 63ECC70E 		bgtu	a2,a5,.L34
  72:src/MemoryAllocator.cpp **** 
  73:src/MemoryAllocator.cpp ****         return -1;
  74:src/MemoryAllocator.cpp ****     }
  75:src/MemoryAllocator.cpp **** 
  76:src/MemoryAllocator.cpp ****     if((char*)ptr < (char*)freeMemHead){
 353              		.loc 1 76 5 is_stmt 1
 354              	.LBB6:
 355              		.loc 1 76 21 is_stmt 0
 356 01e4 97070000 		ld	a5,.LANCHOR0
 356      83B70700 
 357              		.loc 1 76 5
 358 01ec 6370F706 		bleu	a5,a4,.L26
  77:src/MemoryAllocator.cpp ****         cur = (Free*)ptr;
 359              		.loc 1 77 9 is_stmt 1
 360              	.LVL29:
  78:src/MemoryAllocator.cpp ****         if((char*)cur+size*MEM_BLOCK_SIZE==(char*)freeMemHead){     //slucaj da mogu da se nadoveze
 361              		.loc 1 78 9
 362 01f0 6308F602 		beq	a2,a5,.L36
  79:src/MemoryAllocator.cpp **** 
  80:src/MemoryAllocator.cpp ****             size+=freeMemHead->size;
  81:src/MemoryAllocator.cpp ****             freeMemHead->next->prev = cur;
  82:src/MemoryAllocator.cpp ****             cur->next = freeMemHead->next;
  83:src/MemoryAllocator.cpp ****             cur->prev = nullptr;
  84:src/MemoryAllocator.cpp ****             freeMemHead = cur;
  85:src/MemoryAllocator.cpp ****             freeMemHead->size = size;
  86:src/MemoryAllocator.cpp ****         }
  87:src/MemoryAllocator.cpp ****         else {
  88:src/MemoryAllocator.cpp ****             cur->size = size;
 363              		.loc 1 88 13
  89:src/MemoryAllocator.cpp ****             cur->next = freeMemHead;
 364              		.loc 1 89 13
 365              		.loc 1 89 23 is_stmt 0
 366 01f4 2334F5FC 		sd	a5,-56(a0)
  90:src/MemoryAllocator.cpp ****             cur->prev = nullptr;
 367              		.loc 1 90 13 is_stmt 1
 368              		.loc 1 90 23 is_stmt 0
 369 01f8 233805FC 		sd	zero,-48(a0)
  91:src/MemoryAllocator.cpp ****             freeMemHead->prev = cur;
 370              		.loc 1 91 13 is_stmt 1
 371              		.loc 1 91 26 is_stmt 0
 372 01fc 97070000 		lla	a5,.LANCHOR0
 372      93870700 
 373 0204 83B60700 		ld	a3,0(a5)
 374              		.loc 1 91 31
 375 0208 23B8E600 		sd	a4,16(a3)
  92:src/MemoryAllocator.cpp ****             freeMemHead = cur;
 376              		.loc 1 92 13 is_stmt 1
 377              		.loc 1 92 25 is_stmt 0
 378 020c 23B0E700 		sd	a4,0(a5)
 379              	.L28:
  93:src/MemoryAllocator.cpp ****         }
  94:src/MemoryAllocator.cpp ****         return 0;
GAS LISTING /tmp/ccXhxqOK.s 			page 10


 380              		.loc 1 94 9 is_stmt 1
 381              		.loc 1 94 16 is_stmt 0
 382 0210 13050000 		li	a0,0
 383              	.LVL30:
 384              	.L25:
 385              	.LBE6:
  95:src/MemoryAllocator.cpp ****     }
  96:src/MemoryAllocator.cpp ****     else{
  97:src/MemoryAllocator.cpp ****         for(cur = freeMemHead; cur->next!=nullptr && (char*)ptr>(char*)cur->next; cur = cur->next);
  98:src/MemoryAllocator.cpp ****         //provera da li se nalazi posle mene slobodan blok
  99:src/MemoryAllocator.cpp ****         Free* sled = cur->next;
 100:src/MemoryAllocator.cpp ****         Free* blk = (Free*)ptr;
 101:src/MemoryAllocator.cpp ****         //uvezem u listu
 102:src/MemoryAllocator.cpp ****         blk->prev = cur;
 103:src/MemoryAllocator.cpp ****         blk->next = cur->next;
 104:src/MemoryAllocator.cpp ****         sled->prev = blk;
 105:src/MemoryAllocator.cpp ****         cur->next = blk;
 106:src/MemoryAllocator.cpp ****         blk->size = size;
 107:src/MemoryAllocator.cpp **** 
 108:src/MemoryAllocator.cpp ****         //provera da li se nalazi posle mene slobodan blok
 109:src/MemoryAllocator.cpp ****         if((char*)ptr+size*MEM_BLOCK_SIZE==(char*)sled){
 110:src/MemoryAllocator.cpp ****             size+=sled->size;
 111:src/MemoryAllocator.cpp ****             blk->next = sled->next;
 112:src/MemoryAllocator.cpp ****             if(sled->next) sled->next->prev = blk;
 113:src/MemoryAllocator.cpp **** 
 114:src/MemoryAllocator.cpp ****             blk->size = size;
 115:src/MemoryAllocator.cpp ****         }
 116:src/MemoryAllocator.cpp ****         //provera da li se nalazi pre mene slobodan blok
 117:src/MemoryAllocator.cpp ****         if((char*)cur+cur->size*MEM_BLOCK_SIZE==(char*)ptr){
 118:src/MemoryAllocator.cpp **** 
 119:src/MemoryAllocator.cpp ****             cur->size +=size;
 120:src/MemoryAllocator.cpp ****             cur->next = blk->next;
 121:src/MemoryAllocator.cpp ****             if(blk->next) blk->next->prev = cur;
 122:src/MemoryAllocator.cpp ****         }
 123:src/MemoryAllocator.cpp ****         return 0;
 124:src/MemoryAllocator.cpp ****     }
 125:src/MemoryAllocator.cpp **** 
 126:src/MemoryAllocator.cpp **** 
 127:src/MemoryAllocator.cpp **** }...
 386              		.loc 1 127 1
 387 0214 03348100 		ld	s0,8(sp)
 388              		.cfi_remember_state
 389              		.cfi_restore 8
 390              		.cfi_def_cfa 2, 16
 391 0218 13010101 		addi	sp,sp,16
 392              		.cfi_def_cfa_offset 0
 393 021c 67800000 		jr	ra
 394              	.LVL31:
 395              	.L36:
 396              		.cfi_restore_state
 397              	.LBB8:
  80:src/MemoryAllocator.cpp ****             size+=freeMemHead->size;
 398              		.loc 1 80 13 is_stmt 1
  80:src/MemoryAllocator.cpp ****             size+=freeMemHead->size;
 399              		.loc 1 80 32 is_stmt 0
 400 0220 83B60700 		ld	a3,0(a5)
  80:src/MemoryAllocator.cpp ****             size+=freeMemHead->size;
GAS LISTING /tmp/ccXhxqOK.s 			page 11


 401              		.loc 1 80 17
 402 0224 B385B600 		add	a1,a3,a1
 403              	.LVL32:
  81:src/MemoryAllocator.cpp ****             freeMemHead->next->prev = cur;
 404              		.loc 1 81 13 is_stmt 1
  81:src/MemoryAllocator.cpp ****             freeMemHead->next->prev = cur;
 405              		.loc 1 81 26 is_stmt 0
 406 0228 83B68700 		ld	a3,8(a5)
  81:src/MemoryAllocator.cpp ****             freeMemHead->next->prev = cur;
 407              		.loc 1 81 37
 408 022c 23B8E600 		sd	a4,16(a3)
  82:src/MemoryAllocator.cpp ****             cur->next = freeMemHead->next;
 409              		.loc 1 82 13 is_stmt 1
  82:src/MemoryAllocator.cpp ****             cur->next = freeMemHead->next;
 410              		.loc 1 82 38 is_stmt 0
 411 0230 83B78700 		ld	a5,8(a5)
  82:src/MemoryAllocator.cpp ****             cur->next = freeMemHead->next;
 412              		.loc 1 82 23
 413 0234 2334F5FC 		sd	a5,-56(a0)
  83:src/MemoryAllocator.cpp ****             cur->prev = nullptr;
 414              		.loc 1 83 13 is_stmt 1
  83:src/MemoryAllocator.cpp ****             cur->prev = nullptr;
 415              		.loc 1 83 23 is_stmt 0
 416 0238 233805FC 		sd	zero,-48(a0)
  84:src/MemoryAllocator.cpp ****             freeMemHead = cur;
 417              		.loc 1 84 13 is_stmt 1
  84:src/MemoryAllocator.cpp ****             freeMemHead = cur;
 418              		.loc 1 84 25 is_stmt 0
 419 023c 97070000 		sd	a4,.LANCHOR0,a5
 419      23B0E700 
  85:src/MemoryAllocator.cpp ****             freeMemHead->size = size;
 420              		.loc 1 85 13 is_stmt 1
  85:src/MemoryAllocator.cpp ****             freeMemHead->size = size;
 421              		.loc 1 85 31 is_stmt 0
 422 0244 2330B5FC 		sd	a1,-64(a0)
 423 0248 6FF09FFC 		j	.L28
 424              	.LVL33:
 425              	.L26:
 426              	.LBB7:
  97:src/MemoryAllocator.cpp ****         for(cur = freeMemHead; cur->next!=nullptr && (char*)ptr>(char*)cur->next; cur = cur->next);
 427              		.loc 1 97 51 is_stmt 1 discriminator 4
 428 024c 93860700 		mv	a3,a5
  97:src/MemoryAllocator.cpp ****         for(cur = freeMemHead; cur->next!=nullptr && (char*)ptr>(char*)cur->next; cur = cur->next);
 429              		.loc 1 97 37 is_stmt 0 discriminator 4
 430 0250 83B78700 		ld	a5,8(a5)
 431              	.LVL34:
  97:src/MemoryAllocator.cpp ****         for(cur = freeMemHead; cur->next!=nullptr && (char*)ptr>(char*)cur->next; cur = cur->next);
 432              		.loc 1 97 51 discriminator 4
 433 0254 63840700 		beqz	a5,.L29
  97:src/MemoryAllocator.cpp ****         for(cur = freeMemHead; cur->next!=nullptr && (char*)ptr>(char*)cur->next; cur = cur->next);
 434              		.loc 1 97 51 discriminator 2
 435 0258 E3EAE7FE 		bltu	a5,a4,.L26
 436              	.L29:
  99:src/MemoryAllocator.cpp ****         Free* sled = cur->next;
 437              		.loc 1 99 9 is_stmt 1
 438              	.LVL35:
 100:src/MemoryAllocator.cpp ****         Free* blk = (Free*)ptr;
GAS LISTING /tmp/ccXhxqOK.s 			page 12


 439              		.loc 1 100 9
 102:src/MemoryAllocator.cpp ****         blk->prev = cur;
 440              		.loc 1 102 9
 102:src/MemoryAllocator.cpp ****         blk->prev = cur;
 441              		.loc 1 102 19 is_stmt 0
 442 025c 2338D5FC 		sd	a3,-48(a0)
 103:src/MemoryAllocator.cpp ****         blk->next = cur->next;
 443              		.loc 1 103 9 is_stmt 1
 103:src/MemoryAllocator.cpp ****         blk->next = cur->next;
 444              		.loc 1 103 26 is_stmt 0
 445 0260 03B88600 		ld	a6,8(a3)
 103:src/MemoryAllocator.cpp ****         blk->next = cur->next;
 446              		.loc 1 103 19
 447 0264 233405FD 		sd	a6,-56(a0)
 104:src/MemoryAllocator.cpp ****         sled->prev = blk;
 448              		.loc 1 104 9 is_stmt 1
 104:src/MemoryAllocator.cpp ****         sled->prev = blk;
 449              		.loc 1 104 20 is_stmt 0
 450 0268 23B8E700 		sd	a4,16(a5)
 105:src/MemoryAllocator.cpp ****         cur->next = blk;
 451              		.loc 1 105 9 is_stmt 1
 105:src/MemoryAllocator.cpp ****         cur->next = blk;
 452              		.loc 1 105 19 is_stmt 0
 453 026c 23B4E600 		sd	a4,8(a3)
 106:src/MemoryAllocator.cpp ****         blk->size = size;
 454              		.loc 1 106 9 is_stmt 1
 106:src/MemoryAllocator.cpp ****         blk->size = size;
 455              		.loc 1 106 19 is_stmt 0
 456 0270 2330B5FC 		sd	a1,-64(a0)
 109:src/MemoryAllocator.cpp ****         if((char*)ptr+size*MEM_BLOCK_SIZE==(char*)sled){
 457              		.loc 1 109 9 is_stmt 1
 458 0274 630EF600 		beq	a2,a5,.L37
 459              	.LVL36:
 460              	.L30:
 117:src/MemoryAllocator.cpp ****         if((char*)cur+cur->size*MEM_BLOCK_SIZE==(char*)ptr){
 461              		.loc 1 117 9
 117:src/MemoryAllocator.cpp ****         if((char*)cur+cur->size*MEM_BLOCK_SIZE==(char*)ptr){
 462              		.loc 1 117 28 is_stmt 0
 463 0278 03B60600 		ld	a2,0(a3)
 117:src/MemoryAllocator.cpp ****         if((char*)cur+cur->size*MEM_BLOCK_SIZE==(char*)ptr){
 464              		.loc 1 117 32
 465 027c 93176600 		slli	a5,a2,6
 117:src/MemoryAllocator.cpp ****         if((char*)cur+cur->size*MEM_BLOCK_SIZE==(char*)ptr){
 466              		.loc 1 117 22
 467 0280 B387F600 		add	a5,a3,a5
 117:src/MemoryAllocator.cpp ****         if((char*)cur+cur->size*MEM_BLOCK_SIZE==(char*)ptr){
 468              		.loc 1 117 9
 469 0284 6388E702 		beq	a5,a4,.L38
 470              	.LVL37:
 471              	.L32:
 123:src/MemoryAllocator.cpp ****         return 0;
 472              		.loc 1 123 9 is_stmt 1
 123:src/MemoryAllocator.cpp ****         return 0;
 473              		.loc 1 123 16 is_stmt 0
 474 0288 13050000 		li	a0,0
 475 028c 6FF09FF8 		j	.L25
 476              	.LVL38:
GAS LISTING /tmp/ccXhxqOK.s 			page 13


 477              	.L37:
 110:src/MemoryAllocator.cpp ****             size+=sled->size;
 478              		.loc 1 110 13 is_stmt 1
 110:src/MemoryAllocator.cpp ****             size+=sled->size;
 479              		.loc 1 110 25 is_stmt 0
 480 0290 03B60700 		ld	a2,0(a5)
 110:src/MemoryAllocator.cpp ****             size+=sled->size;
 481              		.loc 1 110 17
 482 0294 B385C500 		add	a1,a1,a2
 483              	.LVL39:
 111:src/MemoryAllocator.cpp ****             blk->next = sled->next;
 484              		.loc 1 111 13 is_stmt 1
 111:src/MemoryAllocator.cpp ****             blk->next = sled->next;
 485              		.loc 1 111 31 is_stmt 0
 486 0298 03B68700 		ld	a2,8(a5)
 111:src/MemoryAllocator.cpp ****             blk->next = sled->next;
 487              		.loc 1 111 23
 488 029c 2334C5FC 		sd	a2,-56(a0)
 112:src/MemoryAllocator.cpp ****             if(sled->next) sled->next->prev = blk;
 489              		.loc 1 112 13 is_stmt 1
 112:src/MemoryAllocator.cpp ****             if(sled->next) sled->next->prev = blk;
 490              		.loc 1 112 22 is_stmt 0
 491 02a0 83B78700 		ld	a5,8(a5)
 492              	.LVL40:
 112:src/MemoryAllocator.cpp ****             if(sled->next) sled->next->prev = blk;
 493              		.loc 1 112 13
 494 02a4 63840700 		beqz	a5,.L31
 112:src/MemoryAllocator.cpp ****             if(sled->next) sled->next->prev = blk;
 495              		.loc 1 112 28 is_stmt 1 discriminator 1
 112:src/MemoryAllocator.cpp ****             if(sled->next) sled->next->prev = blk;
 496              		.loc 1 112 45 is_stmt 0 discriminator 1
 497 02a8 23B8E700 		sd	a4,16(a5)
 498              	.L31:
 114:src/MemoryAllocator.cpp ****             blk->size = size;
 499              		.loc 1 114 13 is_stmt 1
 114:src/MemoryAllocator.cpp ****             blk->size = size;
 500              		.loc 1 114 23 is_stmt 0
 501 02ac 2330B5FC 		sd	a1,-64(a0)
 502 02b0 6FF09FFC 		j	.L30
 503              	.L38:
 119:src/MemoryAllocator.cpp ****             cur->size +=size;
 504              		.loc 1 119 13 is_stmt 1
 119:src/MemoryAllocator.cpp ****             cur->size +=size;
 505              		.loc 1 119 23 is_stmt 0
 506 02b4 B305B600 		add	a1,a2,a1
 507              	.LVL41:
 508 02b8 23B0B600 		sd	a1,0(a3)
 120:src/MemoryAllocator.cpp ****             cur->next = blk->next;
 509              		.loc 1 120 13 is_stmt 1
 120:src/MemoryAllocator.cpp ****             cur->next = blk->next;
 510              		.loc 1 120 30 is_stmt 0
 511 02bc 833785FC 		ld	a5,-56(a0)
 120:src/MemoryAllocator.cpp ****             cur->next = blk->next;
 512              		.loc 1 120 23
 513 02c0 23B4F600 		sd	a5,8(a3)
 121:src/MemoryAllocator.cpp ****             if(blk->next) blk->next->prev = cur;
 514              		.loc 1 121 13 is_stmt 1
GAS LISTING /tmp/ccXhxqOK.s 			page 14


 515 02c4 E38207FC 		beqz	a5,.L32
 121:src/MemoryAllocator.cpp ****             if(blk->next) blk->next->prev = cur;
 516              		.loc 1 121 27 discriminator 1
 121:src/MemoryAllocator.cpp ****             if(blk->next) blk->next->prev = cur;
 517              		.loc 1 121 43 is_stmt 0 discriminator 1
 518 02c8 23B8D700 		sd	a3,16(a5)
 519 02cc 6FF0DFFB 		j	.L32
 520              	.LVL42:
 521              	.L33:
 522              	.LBE7:
 523              	.LBE8:
  73:src/MemoryAllocator.cpp ****         return -1;
 524              		.loc 1 73 17
 525 02d0 1305F0FF 		li	a0,-1
 526 02d4 6FF01FF4 		j	.L25
 527              	.L34:
 528 02d8 1305F0FF 		li	a0,-1
 529 02dc 6FF09FF3 		j	.L25
 530              		.cfi_endproc
 531              	.LFE3:
 533              		.globl	_ZN15MemoryAllocator11freeMemHeadE
 534              		.data
 535              		.set	.LANCHOR1,. + 0
 538              	_ZZN15MemoryAllocator9mem_allocEmE1k:
 539 0000 01       		.byte	1
 540              		.bss
 541              		.align	3
 542              		.set	.LANCHOR0,. + 0
 545              	_ZN15MemoryAllocator11freeMemHeadE:
 546 0000 00000000 		.zero	8
 546      00000000 
 547              		.text
 548              	.Letext0:
 549              		.file 2 "src/../h/../lib/hw.h"
 550              		.file 3 "src/../h/MemoryAllocator.hpp"
GAS LISTING /tmp/ccXhxqOK.s 			page 15


DEFINED SYMBOLS
                            *ABS*:0000000000000000 MemoryAllocator.cpp
     /tmp/ccXhxqOK.s:9      .text:0000000000000000 _ZN15MemoryAllocator18transferToNumBlockEm
     /tmp/ccXhxqOK.s:13     .text:0000000000000000 .L0 
     /tmp/ccXhxqOK.s:15     .text:0000000000000000 .L0 
     /tmp/ccXhxqOK.s:16     .text:0000000000000004 .L0 
     /tmp/ccXhxqOK.s:18     .text:0000000000000008 .L0 
     /tmp/ccXhxqOK.s:20     .text:000000000000000c .L0 
     /tmp/ccXhxqOK.s:22     .text:000000000000000c .L0 
     /tmp/ccXhxqOK.s:23     .text:000000000000000c .L0 
     /tmp/ccXhxqOK.s:25     .text:0000000000000010 .L0 
     /tmp/ccXhxqOK.s:27     .text:0000000000000014 .L0 
     /tmp/ccXhxqOK.s:28     .text:0000000000000014 .L0 
     /tmp/ccXhxqOK.s:32     .text:0000000000000018 .L0 
     /tmp/ccXhxqOK.s:33     .text:000000000000001c .L0 
     /tmp/ccXhxqOK.s:34     .text:000000000000001c .L0 
     /tmp/ccXhxqOK.s:35     .text:000000000000001c .L0 
     /tmp/ccXhxqOK.s:37     .text:0000000000000020 .L0 
     /tmp/ccXhxqOK.s:40     .text:0000000000000024 .L0 
     /tmp/ccXhxqOK.s:42     .text:0000000000000024 .L0 
     /tmp/ccXhxqOK.s:43     .text:0000000000000024 .L0 
     /tmp/ccXhxqOK.s:46     .text:0000000000000028 .L0 
     /tmp/ccXhxqOK.s:49     .text:000000000000002c .L0 
     /tmp/ccXhxqOK.s:50     .text:000000000000002c .L0 
     /tmp/ccXhxqOK.s:51     .text:0000000000000030 .L0 
     /tmp/ccXhxqOK.s:57     .text:0000000000000030 _ZN15MemoryAllocator10initializeEv
     /tmp/ccXhxqOK.s:60     .text:0000000000000030 .L0 
     /tmp/ccXhxqOK.s:61     .text:0000000000000030 .L0 
     /tmp/ccXhxqOK.s:62     .text:0000000000000034 .L0 
     /tmp/ccXhxqOK.s:66     .text:0000000000000040 .L0 
     /tmp/ccXhxqOK.s:67     .text:0000000000000040 .L0 
     /tmp/ccXhxqOK.s:68     .text:0000000000000040 .L0 
     /tmp/ccXhxqOK.s:70     .text:0000000000000044 .L0 
     /tmp/ccXhxqOK.s:72     .text:0000000000000044 .L0 
     /tmp/ccXhxqOK.s:73     .text:0000000000000044 .L0 
     /tmp/ccXhxqOK.s:77     .text:0000000000000058 .L0 
     /tmp/ccXhxqOK.s:78     .text:0000000000000058 .L0 
     /tmp/ccXhxqOK.s:80     .text:000000000000005c .L0 
     /tmp/ccXhxqOK.s:81     .text:000000000000005c .L0 
     /tmp/ccXhxqOK.s:83     .text:0000000000000060 .L0 
     /tmp/ccXhxqOK.s:84     .text:0000000000000060 .L0 
     /tmp/ccXhxqOK.s:87     .text:000000000000006c .L0 
     /tmp/ccXhxqOK.s:89     .text:0000000000000070 .L0 
     /tmp/ccXhxqOK.s:93     .text:000000000000007c .L0 
     /tmp/ccXhxqOK.s:95     .text:0000000000000080 .L0 
     /tmp/ccXhxqOK.s:96     .text:0000000000000084 .L0 
     /tmp/ccXhxqOK.s:98     .text:0000000000000088 .L0 
     /tmp/ccXhxqOK.s:99     .text:0000000000000088 .L0 
     /tmp/ccXhxqOK.s:101    .text:000000000000008c .L0 
     /tmp/ccXhxqOK.s:103    .text:0000000000000090 .L0 
     /tmp/ccXhxqOK.s:105    .text:0000000000000094 .L0 
     /tmp/ccXhxqOK.s:111    .text:0000000000000094 _ZN15MemoryAllocator9mem_allocEm
     /tmp/ccXhxqOK.s:114    .text:0000000000000094 .L0 
     /tmp/ccXhxqOK.s:116    .text:0000000000000094 .L0 
     /tmp/ccXhxqOK.s:117    .text:0000000000000094 .L0 
     /tmp/ccXhxqOK.s:118    .text:0000000000000094 .L0 
     /tmp/ccXhxqOK.s:120    .text:0000000000000098 .L0 
GAS LISTING /tmp/ccXhxqOK.s 			page 16


     /tmp/ccXhxqOK.s:121    .text:000000000000009c .L0 
     /tmp/ccXhxqOK.s:125    .text:00000000000000a8 .L0 
     /tmp/ccXhxqOK.s:126    .text:00000000000000a8 .L0 
     /tmp/ccXhxqOK.s:127    .text:00000000000000a8 .L0 
     /tmp/ccXhxqOK.s:129    .text:00000000000000ac .L0 
     /tmp/ccXhxqOK.s:132    .text:00000000000000b0 .L0 
     /tmp/ccXhxqOK.s:133    .text:00000000000000b0 .L0 
     /tmp/ccXhxqOK.s:135    .text:00000000000000b8 .L0 
     /tmp/ccXhxqOK.s:140    .text:00000000000000c0 .L0 
     /tmp/ccXhxqOK.s:141    .text:00000000000000c0 .L0 
     /tmp/ccXhxqOK.s:145    .text:00000000000000c8 .L0 
     /tmp/ccXhxqOK.s:146    .text:00000000000000c8 .L0 
     /tmp/ccXhxqOK.s:148    .text:00000000000000cc .L0 
     /tmp/ccXhxqOK.s:149    .text:00000000000000cc .L0 
     /tmp/ccXhxqOK.s:151    .text:00000000000000d0 .L0 
     /tmp/ccXhxqOK.s:153    .text:00000000000000d4 .L0 
     /tmp/ccXhxqOK.s:154    .text:00000000000000d4 .L0 
     /tmp/ccXhxqOK.s:157    .text:00000000000000d8 .L0 
     /tmp/ccXhxqOK.s:161    .text:00000000000000dc .L0 
     /tmp/ccXhxqOK.s:162    .text:00000000000000dc .L0 
     /tmp/ccXhxqOK.s:164    .text:00000000000000e4 .L0 
     /tmp/ccXhxqOK.s:165    .text:00000000000000e4 .L0 
     /tmp/ccXhxqOK.s:171    .text:00000000000000f0 .L0 
     /tmp/ccXhxqOK.s:173    .text:00000000000000f4 .L0 
     /tmp/ccXhxqOK.s:174    .text:00000000000000f4 .L0 
     /tmp/ccXhxqOK.s:176    .text:00000000000000f8 .L0 
     /tmp/ccXhxqOK.s:180    .text:00000000000000fc .L0 
     /tmp/ccXhxqOK.s:183    .text:0000000000000100 .L0 
     /tmp/ccXhxqOK.s:184    .text:0000000000000100 .L0 
     /tmp/ccXhxqOK.s:186    .text:0000000000000104 .L0 
     /tmp/ccXhxqOK.s:188    .text:0000000000000108 .L0 
     /tmp/ccXhxqOK.s:191    .text:000000000000010c .L0 
     /tmp/ccXhxqOK.s:192    .text:000000000000010c .L0 
     /tmp/ccXhxqOK.s:194    .text:0000000000000110 .L0 
     /tmp/ccXhxqOK.s:196    .text:0000000000000114 .L0 
     /tmp/ccXhxqOK.s:197    .text:0000000000000114 .L0 
     /tmp/ccXhxqOK.s:200    .text:0000000000000118 .L0 
     /tmp/ccXhxqOK.s:201    .text:0000000000000118 .L0 
     /tmp/ccXhxqOK.s:203    .text:000000000000011c .L0 
     /tmp/ccXhxqOK.s:205    .text:0000000000000120 .L0 
     /tmp/ccXhxqOK.s:206    .text:0000000000000120 .L0 
     /tmp/ccXhxqOK.s:209    .text:0000000000000124 .L0 
     /tmp/ccXhxqOK.s:210    .text:0000000000000124 .L0 
     /tmp/ccXhxqOK.s:212    .text:0000000000000128 .L0 
     /tmp/ccXhxqOK.s:214    .text:000000000000012c .L0 
     /tmp/ccXhxqOK.s:215    .text:000000000000012c .L0 
     /tmp/ccXhxqOK.s:217    .text:0000000000000130 .L0 
     /tmp/ccXhxqOK.s:219    .text:0000000000000134 .L0 
     /tmp/ccXhxqOK.s:220    .text:0000000000000134 .L0 
     /tmp/ccXhxqOK.s:226    .text:0000000000000138 .L0 
     /tmp/ccXhxqOK.s:227    .text:0000000000000138 .L0 
     /tmp/ccXhxqOK.s:229    .text:000000000000013c .L0 
     /tmp/ccXhxqOK.s:230    .text:000000000000013c .L0 
     /tmp/ccXhxqOK.s:232    .text:0000000000000140 .L0 
     /tmp/ccXhxqOK.s:233    .text:0000000000000140 .L0 
     /tmp/ccXhxqOK.s:235    .text:0000000000000144 .L0 
     /tmp/ccXhxqOK.s:236    .text:0000000000000144 .L0 
GAS LISTING /tmp/ccXhxqOK.s 			page 17


     /tmp/ccXhxqOK.s:240    .text:0000000000000148 .L0 
     /tmp/ccXhxqOK.s:241    .text:000000000000014c .L0 
     /tmp/ccXhxqOK.s:242    .text:000000000000014c .L0 
     /tmp/ccXhxqOK.s:244    .text:0000000000000150 .L0 
     /tmp/ccXhxqOK.s:245    .text:0000000000000150 .L0 
     /tmp/ccXhxqOK.s:247    .text:0000000000000154 .L0 
     /tmp/ccXhxqOK.s:250    .text:0000000000000158 .L0 
     /tmp/ccXhxqOK.s:254    .text:000000000000015c .L0 
     /tmp/ccXhxqOK.s:258    .text:000000000000015c .L0 
     /tmp/ccXhxqOK.s:259    .text:000000000000015c .L0 
     /tmp/ccXhxqOK.s:265    .text:0000000000000168 .L0 
     /tmp/ccXhxqOK.s:266    .text:0000000000000168 .L0 
     /tmp/ccXhxqOK.s:268    .text:000000000000016c .L0 
     /tmp/ccXhxqOK.s:270    .text:0000000000000170 .L0 
     /tmp/ccXhxqOK.s:271    .text:0000000000000170 .L0 
     /tmp/ccXhxqOK.s:274    .text:0000000000000174 .L0 
     /tmp/ccXhxqOK.s:277    .text:0000000000000178 .L0 
     /tmp/ccXhxqOK.s:278    .text:0000000000000178 .L0 
     /tmp/ccXhxqOK.s:280    .text:000000000000017c .L0 
     /tmp/ccXhxqOK.s:282    .text:0000000000000180 .L0 
     /tmp/ccXhxqOK.s:283    .text:0000000000000180 .L0 
     /tmp/ccXhxqOK.s:285    .text:0000000000000184 .L0 
     /tmp/ccXhxqOK.s:290    .text:000000000000018c .L0 
     /tmp/ccXhxqOK.s:291    .text:000000000000018c .L0 
     /tmp/ccXhxqOK.s:293    .text:0000000000000190 .L0 
     /tmp/ccXhxqOK.s:296    .text:0000000000000198 .L0 
     /tmp/ccXhxqOK.s:297    .text:0000000000000198 .L0 
     /tmp/ccXhxqOK.s:301    .text:00000000000001a0 .L0 
     /tmp/ccXhxqOK.s:302    .text:00000000000001a0 .L0 
     /tmp/ccXhxqOK.s:303    .text:00000000000001a0 .L0 
     /tmp/ccXhxqOK.s:304    .text:00000000000001a0 .L0 
     /tmp/ccXhxqOK.s:307    .text:00000000000001a0 .L0 
     /tmp/ccXhxqOK.s:310    .text:00000000000001a4 .L0 
     /tmp/ccXhxqOK.s:311    .text:00000000000001a8 .L0 
     /tmp/ccXhxqOK.s:317    .text:00000000000001a8 _ZN15MemoryAllocator8mem_freeEPv
     /tmp/ccXhxqOK.s:320    .text:00000000000001a8 .L0 
     /tmp/ccXhxqOK.s:322    .text:00000000000001a8 .L0 
     /tmp/ccXhxqOK.s:323    .text:00000000000001ac .L0 
     /tmp/ccXhxqOK.s:325    .text:00000000000001b0 .L0 
     /tmp/ccXhxqOK.s:327    .text:00000000000001b4 .L0 
     /tmp/ccXhxqOK.s:330    .text:00000000000001b4 .L0 
     /tmp/ccXhxqOK.s:331    .text:00000000000001b4 .L0 
     /tmp/ccXhxqOK.s:332    .text:00000000000001b4 .L0 
     /tmp/ccXhxqOK.s:335    .text:00000000000001b8 .L0 
     /tmp/ccXhxqOK.s:336    .text:00000000000001b8 .L0 
     /tmp/ccXhxqOK.s:339    .text:00000000000001bc .L0 
     /tmp/ccXhxqOK.s:340    .text:00000000000001bc .L0 
     /tmp/ccXhxqOK.s:343    .text:00000000000001c8 .L0 
     /tmp/ccXhxqOK.s:345    .text:00000000000001cc .L0 
     /tmp/ccXhxqOK.s:347    .text:00000000000001d0 .L0 
     /tmp/ccXhxqOK.s:349    .text:00000000000001d4 .L0 
     /tmp/ccXhxqOK.s:352    .text:00000000000001e0 .L0 
     /tmp/ccXhxqOK.s:355    .text:00000000000001e4 .L0 
     /tmp/ccXhxqOK.s:356    .text:00000000000001e4 .L0 
     /tmp/ccXhxqOK.s:358    .text:00000000000001ec .L0 
     /tmp/ccXhxqOK.s:361    .text:00000000000001f0 .L0 
     /tmp/ccXhxqOK.s:362    .text:00000000000001f0 .L0 
GAS LISTING /tmp/ccXhxqOK.s 			page 18


     /tmp/ccXhxqOK.s:364    .text:00000000000001f4 .L0 
     /tmp/ccXhxqOK.s:365    .text:00000000000001f4 .L0 
     /tmp/ccXhxqOK.s:366    .text:00000000000001f4 .L0 
     /tmp/ccXhxqOK.s:368    .text:00000000000001f8 .L0 
     /tmp/ccXhxqOK.s:369    .text:00000000000001f8 .L0 
     /tmp/ccXhxqOK.s:371    .text:00000000000001fc .L0 
     /tmp/ccXhxqOK.s:372    .text:00000000000001fc .L0 
     /tmp/ccXhxqOK.s:375    .text:0000000000000208 .L0 
     /tmp/ccXhxqOK.s:377    .text:000000000000020c .L0 
     /tmp/ccXhxqOK.s:378    .text:000000000000020c .L0 
     /tmp/ccXhxqOK.s:381    .text:0000000000000210 .L0 
     /tmp/ccXhxqOK.s:382    .text:0000000000000210 .L0 
     /tmp/ccXhxqOK.s:387    .text:0000000000000214 .L0 
     /tmp/ccXhxqOK.s:388    .text:0000000000000218 .L0 
     /tmp/ccXhxqOK.s:389    .text:0000000000000218 .L0 
     /tmp/ccXhxqOK.s:390    .text:0000000000000218 .L0 
     /tmp/ccXhxqOK.s:392    .text:000000000000021c .L0 
     /tmp/ccXhxqOK.s:396    .text:0000000000000220 .L0 
     /tmp/ccXhxqOK.s:399    .text:0000000000000220 .L0 
     /tmp/ccXhxqOK.s:400    .text:0000000000000220 .L0 
     /tmp/ccXhxqOK.s:402    .text:0000000000000224 .L0 
     /tmp/ccXhxqOK.s:405    .text:0000000000000228 .L0 
     /tmp/ccXhxqOK.s:406    .text:0000000000000228 .L0 
     /tmp/ccXhxqOK.s:408    .text:000000000000022c .L0 
     /tmp/ccXhxqOK.s:410    .text:0000000000000230 .L0 
     /tmp/ccXhxqOK.s:411    .text:0000000000000230 .L0 
     /tmp/ccXhxqOK.s:413    .text:0000000000000234 .L0 
     /tmp/ccXhxqOK.s:415    .text:0000000000000238 .L0 
     /tmp/ccXhxqOK.s:416    .text:0000000000000238 .L0 
     /tmp/ccXhxqOK.s:418    .text:000000000000023c .L0 
     /tmp/ccXhxqOK.s:419    .text:000000000000023c .L0 
     /tmp/ccXhxqOK.s:421    .text:0000000000000244 .L0 
     /tmp/ccXhxqOK.s:422    .text:0000000000000244 .L0 
     /tmp/ccXhxqOK.s:428    .text:000000000000024c .L0 
     /tmp/ccXhxqOK.s:430    .text:0000000000000250 .L0 
     /tmp/ccXhxqOK.s:433    .text:0000000000000254 .L0 
     /tmp/ccXhxqOK.s:435    .text:0000000000000258 .L0 
     /tmp/ccXhxqOK.s:439    .text:000000000000025c .L0 
     /tmp/ccXhxqOK.s:440    .text:000000000000025c .L0 
     /tmp/ccXhxqOK.s:441    .text:000000000000025c .L0 
     /tmp/ccXhxqOK.s:442    .text:000000000000025c .L0 
     /tmp/ccXhxqOK.s:444    .text:0000000000000260 .L0 
     /tmp/ccXhxqOK.s:445    .text:0000000000000260 .L0 
     /tmp/ccXhxqOK.s:447    .text:0000000000000264 .L0 
     /tmp/ccXhxqOK.s:449    .text:0000000000000268 .L0 
     /tmp/ccXhxqOK.s:450    .text:0000000000000268 .L0 
     /tmp/ccXhxqOK.s:452    .text:000000000000026c .L0 
     /tmp/ccXhxqOK.s:453    .text:000000000000026c .L0 
     /tmp/ccXhxqOK.s:455    .text:0000000000000270 .L0 
     /tmp/ccXhxqOK.s:456    .text:0000000000000270 .L0 
     /tmp/ccXhxqOK.s:458    .text:0000000000000274 .L0 
     /tmp/ccXhxqOK.s:462    .text:0000000000000278 .L0 
     /tmp/ccXhxqOK.s:463    .text:0000000000000278 .L0 
     /tmp/ccXhxqOK.s:465    .text:000000000000027c .L0 
     /tmp/ccXhxqOK.s:467    .text:0000000000000280 .L0 
     /tmp/ccXhxqOK.s:469    .text:0000000000000284 .L0 
     /tmp/ccXhxqOK.s:473    .text:0000000000000288 .L0 
GAS LISTING /tmp/ccXhxqOK.s 			page 19


     /tmp/ccXhxqOK.s:474    .text:0000000000000288 .L0 
     /tmp/ccXhxqOK.s:479    .text:0000000000000290 .L0 
     /tmp/ccXhxqOK.s:480    .text:0000000000000290 .L0 
     /tmp/ccXhxqOK.s:482    .text:0000000000000294 .L0 
     /tmp/ccXhxqOK.s:485    .text:0000000000000298 .L0 
     /tmp/ccXhxqOK.s:486    .text:0000000000000298 .L0 
     /tmp/ccXhxqOK.s:488    .text:000000000000029c .L0 
     /tmp/ccXhxqOK.s:490    .text:00000000000002a0 .L0 
     /tmp/ccXhxqOK.s:491    .text:00000000000002a0 .L0 
     /tmp/ccXhxqOK.s:494    .text:00000000000002a4 .L0 
     /tmp/ccXhxqOK.s:496    .text:00000000000002a8 .L0 
     /tmp/ccXhxqOK.s:497    .text:00000000000002a8 .L0 
     /tmp/ccXhxqOK.s:500    .text:00000000000002ac .L0 
     /tmp/ccXhxqOK.s:501    .text:00000000000002ac .L0 
     /tmp/ccXhxqOK.s:505    .text:00000000000002b4 .L0 
     /tmp/ccXhxqOK.s:506    .text:00000000000002b4 .L0 
     /tmp/ccXhxqOK.s:510    .text:00000000000002bc .L0 
     /tmp/ccXhxqOK.s:511    .text:00000000000002bc .L0 
     /tmp/ccXhxqOK.s:513    .text:00000000000002c0 .L0 
     /tmp/ccXhxqOK.s:515    .text:00000000000002c4 .L0 
     /tmp/ccXhxqOK.s:517    .text:00000000000002c8 .L0 
     /tmp/ccXhxqOK.s:518    .text:00000000000002c8 .L0 
     /tmp/ccXhxqOK.s:525    .text:00000000000002d0 .L0 
     /tmp/ccXhxqOK.s:530    .text:00000000000002e0 .L0 
     /tmp/ccXhxqOK.s:545    .bss:0000000000000000 _ZN15MemoryAllocator11freeMemHeadE
     /tmp/ccXhxqOK.s:535    .data:0000000000000000 .LANCHOR1
     /tmp/ccXhxqOK.s:538    .data:0000000000000000 _ZZN15MemoryAllocator9mem_allocEmE1k
     /tmp/ccXhxqOK.s:542    .bss:0000000000000000 .LANCHOR0
     /tmp/ccXhxqOK.s:551    .text:00000000000002e0 .L0 
     /tmp/ccXhxqOK.s:73     .text:0000000000000044 .L0 
     /tmp/ccXhxqOK.s:75     .text:0000000000000050 .L0 
     /tmp/ccXhxqOK.s:84     .text:0000000000000060 .L0 
     /tmp/ccXhxqOK.s:133    .text:00000000000000b0 .L0 
     /tmp/ccXhxqOK.s:141    .text:00000000000000c0 .L0 
     /tmp/ccXhxqOK.s:162    .text:00000000000000dc .L0 
     /tmp/ccXhxqOK.s:259    .text:000000000000015c .L0 
     /tmp/ccXhxqOK.s:293    .text:0000000000000190 .L0 
     /tmp/ccXhxqOK.s:340    .text:00000000000001bc .L0 
     /tmp/ccXhxqOK.s:349    .text:00000000000001d4 .L0 
     /tmp/ccXhxqOK.s:356    .text:00000000000001e4 .L0 
     /tmp/ccXhxqOK.s:372    .text:00000000000001fc .L0 
     /tmp/ccXhxqOK.s:419    .text:000000000000023c .L0 
     /tmp/ccXhxqOK.s:39     .text:0000000000000024 .L2
     /tmp/ccXhxqOK.s:30     .text:0000000000000018 .L1
     /tmp/ccXhxqOK.s:300    .text:00000000000001a0 .L18
     /tmp/ccXhxqOK.s:159    .text:00000000000000dc .L23
     /tmp/ccXhxqOK.s:169    .text:00000000000000f0 .L10
     /tmp/ccXhxqOK.s:143    .text:00000000000000c8 .L11
     /tmp/ccXhxqOK.s:138    .text:00000000000000c0 .L9
     /tmp/ccXhxqOK.s:238    .text:0000000000000148 .L7
     /tmp/ccXhxqOK.s:262    .text:0000000000000168 .L12
     /tmp/ccXhxqOK.s:198    .text:0000000000000118 .L13
     /tmp/ccXhxqOK.s:253    .text:000000000000015c .L14
     /tmp/ccXhxqOK.s:207    .text:0000000000000124 .L15
     /tmp/ccXhxqOK.s:288    .text:000000000000018c .L17
     /tmp/ccXhxqOK.s:222    .text:0000000000000138 .L16
     /tmp/ccXhxqOK.s:521    .text:00000000000002d0 .L33
GAS LISTING /tmp/ccXhxqOK.s 			page 20


     /tmp/ccXhxqOK.s:527    .text:00000000000002d8 .L34
     /tmp/ccXhxqOK.s:425    .text:000000000000024c .L26
     /tmp/ccXhxqOK.s:395    .text:0000000000000220 .L36
     /tmp/ccXhxqOK.s:379    .text:0000000000000210 .L28
     /tmp/ccXhxqOK.s:436    .text:000000000000025c .L29
     /tmp/ccXhxqOK.s:477    .text:0000000000000290 .L37
     /tmp/ccXhxqOK.s:503    .text:00000000000002b4 .L38
     /tmp/ccXhxqOK.s:384    .text:0000000000000214 .L25
     /tmp/ccXhxqOK.s:498    .text:00000000000002ac .L31
     /tmp/ccXhxqOK.s:460    .text:0000000000000278 .L30
     /tmp/ccXhxqOK.s:471    .text:0000000000000288 .L32
     /tmp/ccXhxqOK.s:931    .debug_abbrev:0000000000000000 .Ldebug_abbrev0
     /tmp/ccXhxqOK.s:1635   .debug_str:0000000000000123 .LASF32
     /tmp/ccXhxqOK.s:1649   .debug_str:000000000000023e .LASF33
     /tmp/ccXhxqOK.s:1617   .debug_str:0000000000000088 .LASF34
     /tmp/ccXhxqOK.s:5      .text:0000000000000000 .Ltext0
     /tmp/ccXhxqOK.s:548    .text:00000000000002e0 .Letext0
     /tmp/ccXhxqOK.s:1597   .debug_line:0000000000000000 .Ldebug_line0
     /tmp/ccXhxqOK.s:1641   .debug_str:00000000000001ff .LASF0
     /tmp/ccXhxqOK.s:1627   .debug_str:00000000000000f8 .LASF1
     /tmp/ccXhxqOK.s:1623   .debug_str:00000000000000d8 .LASF2
     /tmp/ccXhxqOK.s:1659   .debug_str:0000000000000290 .LASF3
     /tmp/ccXhxqOK.s:1611   .debug_str:0000000000000060 .LASF4
     /tmp/ccXhxqOK.s:1625   .debug_str:00000000000000e6 .LASF5
     /tmp/ccXhxqOK.s:1603   .debug_str:0000000000000023 .LASF6
     /tmp/ccXhxqOK.s:1599   .debug_str:0000000000000000 .LASF7
     /tmp/ccXhxqOK.s:1657   .debug_str:000000000000027d .LASF8
     /tmp/ccXhxqOK.s:1645   .debug_str:0000000000000218 .LASF9
     /tmp/ccXhxqOK.s:1609   .debug_str:0000000000000052 .LASF10
     /tmp/ccXhxqOK.s:1677   .debug_str:000000000000032e .LASF11
     /tmp/ccXhxqOK.s:1619   .debug_str:00000000000000a8 .LASF12
     /tmp/ccXhxqOK.s:1663   .debug_str:00000000000002b7 .LASF13
     /tmp/ccXhxqOK.s:1651   .debug_str:0000000000000256 .LASF14
     /tmp/ccXhxqOK.s:1631   .debug_str:0000000000000110 .LASF15
     /tmp/ccXhxqOK.s:1615   .debug_str:0000000000000072 .LASF16
     /tmp/ccXhxqOK.s:1647   .debug_str:0000000000000228 .LASF17
     /tmp/ccXhxqOK.s:1667   .debug_str:00000000000002f2 .LASF21
     /tmp/ccXhxqOK.s:1673   .debug_str:0000000000000324 .LASF18
     /tmp/ccXhxqOK.s:1605   .debug_str:000000000000002a .LASF19
     /tmp/ccXhxqOK.s:1675   .debug_str:0000000000000329 .LASF20
     /tmp/ccXhxqOK.s:1601   .debug_str:0000000000000013 .LASF35
     /tmp/ccXhxqOK.s:1643   .debug_str:000000000000020c .LASF36
     /tmp/ccXhxqOK.s:1669   .debug_str:00000000000002f7 .LASF22
     /tmp/ccXhxqOK.s:1661   .debug_str:0000000000000296 .LASF24
     /tmp/ccXhxqOK.s:1653   .debug_str:0000000000000266 .LASF23
     /tmp/ccXhxqOK.s:1621   .debug_str:00000000000000b7 .LASF25
     /tmp/ccXhxqOK.s:1639   .debug_str:00000000000001ec .LASF26
     /tmp/ccXhxqOK.s:1665   .debug_str:00000000000002c7 .LASF27
     /tmp/ccXhxqOK.s:1613   .debug_str:0000000000000067 .LASF37
     /tmp/ccXhxqOK.s:1607   .debug_str:000000000000002f .LASF38
     /tmp/ccXhxqOK.s:1671   .debug_str:0000000000000301 .LASF39
     /tmp/ccXhxqOK.s:318    .text:00000000000001a8 .LFB3
     /tmp/ccXhxqOK.s:531    .text:00000000000002e0 .LFE3
     /tmp/ccXhxqOK.s:1393   .debug_loc:0000000000000000 .LLST5
     /tmp/ccXhxqOK.s:1404   .debug_loc:0000000000000036 .LLST6
     /tmp/ccXhxqOK.s:1433   .debug_loc:00000000000000ba .LLST7
     /tmp/ccXhxqOK.s:426    .text:000000000000024c .LBB7
GAS LISTING /tmp/ccXhxqOK.s 			page 21


     /tmp/ccXhxqOK.s:522    .text:00000000000002d0 .LBE7
     /tmp/ccXhxqOK.s:1629   .debug_str:000000000000010b .LASF28
     /tmp/ccXhxqOK.s:1452   .debug_loc:0000000000000116 .LLST8
     /tmp/ccXhxqOK.s:1463   .debug_loc:000000000000014c .LLST9
     /tmp/ccXhxqOK.s:112    .text:0000000000000094 .LFB2
     /tmp/ccXhxqOK.s:312    .text:00000000000001a8 .LFE2
     /tmp/ccXhxqOK.s:1470   .debug_loc:000000000000016f .LLST1
     /tmp/ccXhxqOK.s:1637   .debug_str:00000000000001e7 .LASF29
     /tmp/ccXhxqOK.s:1503   .debug_loc:00000000000001f7 .LLST2
     /tmp/ccXhxqOK.s:1655   .debug_str:000000000000026f .LASF30
     /tmp/ccXhxqOK.s:1518   .debug_loc:0000000000000240 .LLST3
     /tmp/ccXhxqOK.s:1589   .debug_ranges:0000000000000000 .Ldebug_ranges0
     /tmp/ccXhxqOK.s:1633   .debug_str:000000000000011c .LASF31
     /tmp/ccXhxqOK.s:1543   .debug_loc:00000000000002a2 .LLST4
     /tmp/ccXhxqOK.s:166    .text:00000000000000ec .LVL10
     /tmp/ccXhxqOK.s:58     .text:0000000000000030 .LFB1
     /tmp/ccXhxqOK.s:106    .text:0000000000000094 .LFE1
     /tmp/ccXhxqOK.s:91     .text:000000000000007c .LVL4
     /tmp/ccXhxqOK.s:10     .text:0000000000000000 .LFB0
     /tmp/ccXhxqOK.s:52     .text:0000000000000030 .LFE0
     /tmp/ccXhxqOK.s:1554   .debug_loc:00000000000002d8 .LLST0
     /tmp/ccXhxqOK.s:321    .text:00000000000001a8 .LVL25
     /tmp/ccXhxqOK.s:333    .text:00000000000001b8 .LVL27
     /tmp/ccXhxqOK.s:329    .text:00000000000001b4 .LVL26
     /tmp/ccXhxqOK.s:360    .text:00000000000001f0 .LVL29
     /tmp/ccXhxqOK.s:383    .text:0000000000000214 .LVL30
     /tmp/ccXhxqOK.s:394    .text:0000000000000220 .LVL31
     /tmp/ccXhxqOK.s:424    .text:000000000000024c .LVL33
     /tmp/ccXhxqOK.s:431    .text:0000000000000254 .LVL34
     /tmp/ccXhxqOK.s:520    .text:00000000000002d0 .LVL42
     /tmp/ccXhxqOK.s:337    .text:00000000000001bc .LVL28
     /tmp/ccXhxqOK.s:470    .text:0000000000000288 .LVL37
     /tmp/ccXhxqOK.s:476    .text:0000000000000290 .LVL38
     /tmp/ccXhxqOK.s:507    .text:00000000000002b8 .LVL41
     /tmp/ccXhxqOK.s:438    .text:000000000000025c .LVL35
     /tmp/ccXhxqOK.s:459    .text:0000000000000278 .LVL36
     /tmp/ccXhxqOK.s:492    .text:00000000000002a4 .LVL40
     /tmp/ccXhxqOK.s:115    .text:0000000000000094 .LVL5
     /tmp/ccXhxqOK.s:137    .text:00000000000000c0 .LVL6
     /tmp/ccXhxqOK.s:248    .text:0000000000000154 .LVL16
     /tmp/ccXhxqOK.s:252    .text:000000000000015c .LVL17
     /tmp/ccXhxqOK.s:299    .text:00000000000001a0 .LVL23
     /tmp/ccXhxqOK.s:308    .text:00000000000001a4 .LVL24
     /tmp/ccXhxqOK.s:142    .text:00000000000000c8 .LVL7
     /tmp/ccXhxqOK.s:158    .text:00000000000000dc .LVL9
     /tmp/ccXhxqOK.s:168    .text:00000000000000f0 .LVL11
     /tmp/ccXhxqOK.s:237    .text:0000000000000148 .LVL15
     /tmp/ccXhxqOK.s:177    .text:00000000000000fc .LVL12
     /tmp/ccXhxqOK.s:221    .text:0000000000000138 .LVL14
     /tmp/ccXhxqOK.s:272    .text:0000000000000174 .LVL19
     /tmp/ccXhxqOK.s:275    .text:0000000000000178 .LVL20
     /tmp/ccXhxqOK.s:287    .text:000000000000018c .LVL21
     /tmp/ccXhxqOK.s:294    .text:0000000000000198 .LVL22
     /tmp/ccXhxqOK.s:189    .text:000000000000010c .LVL13
     /tmp/ccXhxqOK.s:261    .text:0000000000000168 .LVL18
     /tmp/ccXhxqOK.s:14     .text:0000000000000000 .LVL0
     /tmp/ccXhxqOK.s:29     .text:0000000000000018 .LVL1
GAS LISTING /tmp/ccXhxqOK.s 			page 22


     /tmp/ccXhxqOK.s:44     .text:0000000000000028 .LVL2
     /tmp/ccXhxqOK.s:47     .text:000000000000002c .LVL3
     /tmp/ccXhxqOK.s:552    .debug_info:0000000000000000 .Ldebug_info0
     /tmp/ccXhxqOK.s:181    .text:0000000000000100 .LBB3
     /tmp/ccXhxqOK.s:223    .text:0000000000000138 .LBE3
     /tmp/ccXhxqOK.s:256    .text:000000000000015c .LBB4
     /tmp/ccXhxqOK.s:263    .text:0000000000000168 .LBE4

UNDEFINED SYMBOLS
HEAP_START_ADDR
HEAP_END_ADDR
