GAS LISTING /tmp/cc5r0kUy.s 			page 1


   1              		.file	"queue.cpp"
   2              		.option pic
   3              		.option norelax
   4              		.text
   5              	.Ltext0:
   6              		.align	2
   7              		.globl	_Z12create_queuev
   9              	_Z12create_queuev:
  10              	.LFB0:
  11              		.file 1 "src/queue.cpp"
   1:src/queue.cpp **** #include "../h/queue.hpp"
   2:src/queue.cpp **** 
   3:src/queue.cpp **** queue* create_queue() {
  12              		.loc 1 3 23
  13              		.cfi_startproc
  14 0000 130101FF 		addi	sp,sp,-16
  15              		.cfi_def_cfa_offset 16
  16 0004 23341100 		sd	ra,8(sp)
  17 0008 23308100 		sd	s0,0(sp)
  18              		.cfi_offset 1, -8
  19              		.cfi_offset 8, -16
  20 000c 13040101 		addi	s0,sp,16
  21              		.cfi_def_cfa 8, 0
   4:src/queue.cpp ****     size_t size = MemoryAllocator::transferToNumBlock(sizeof(queue));   //izracunaj broj blokova
  22              		.loc 1 4 5
  23              		.loc 1 4 54 is_stmt 0
  24 0010 13058001 		li	a0,24
  25 0014 97000000 		call	_ZN15MemoryAllocator18transferToNumBlockEm@plt
  25      E7800000 
  26              	.LVL0:
   5:src/queue.cpp ****     queue* q = (queue*)MemoryAllocator::mem_alloc(size); // mem_alloc za queue
  27              		.loc 1 5 5 is_stmt 1
  28              		.loc 1 5 50 is_stmt 0
  29 001c 97000000 		call	_ZN15MemoryAllocator9mem_allocEm@plt
  29      E7800000 
  30              	.LVL1:
   6:src/queue.cpp ****     q->front = nullptr;
  31              		.loc 1 6 5 is_stmt 1
  32              		.loc 1 6 14 is_stmt 0
  33 0024 23300500 		sd	zero,0(a0)
   7:src/queue.cpp ****     q->rear = nullptr;
  34              		.loc 1 7 5 is_stmt 1
  35              		.loc 1 7 13 is_stmt 0
  36 0028 23340500 		sd	zero,8(a0)
   8:src/queue.cpp ****     q->size = 0;
  37              		.loc 1 8 5 is_stmt 1
  38              		.loc 1 8 13 is_stmt 0
  39 002c 23280500 		sw	zero,16(a0)
   9:src/queue.cpp ****     return q;//pokazivac na alocirani red red
  40              		.loc 1 9 5 is_stmt 1
  10:src/queue.cpp **** }
  41              		.loc 1 10 1 is_stmt 0
  42 0030 83308100 		ld	ra,8(sp)
  43              		.cfi_restore 1
  44 0034 03340100 		ld	s0,0(sp)
  45              		.cfi_restore 8
  46              		.cfi_def_cfa 2, 16
GAS LISTING /tmp/cc5r0kUy.s 			page 2


  47 0038 13010101 		addi	sp,sp,16
  48              		.cfi_def_cfa_offset 0
  49 003c 67800000 		jr	ra
  50              		.cfi_endproc
  51              	.LFE0:
  53              		.align	2
  54              		.globl	_Z8is_emptyP5queue
  56              	_Z8is_emptyP5queue:
  57              	.LFB1:
  11:src/queue.cpp **** 
  12:src/queue.cpp **** bool is_empty(queue* q) {
  58              		.loc 1 12 25 is_stmt 1
  59              		.cfi_startproc
  60              	.LVL2:
  61 0040 130101FF 		addi	sp,sp,-16
  62              		.cfi_def_cfa_offset 16
  63 0044 23348100 		sd	s0,8(sp)
  64              		.cfi_offset 8, -8
  65 0048 13040101 		addi	s0,sp,16
  66              		.cfi_def_cfa 8, 0
  13:src/queue.cpp ****     return (q->size == 0);
  67              		.loc 1 13 5
  68              		.loc 1 13 16 is_stmt 0
  69 004c 03250501 		lw	a0,16(a0)
  70              	.LVL3:
  14:src/queue.cpp **** }
  71              		.loc 1 14 1
  72 0050 13351500 		seqz	a0,a0
  73 0054 03348100 		ld	s0,8(sp)
  74              		.cfi_restore 8
  75              		.cfi_def_cfa 2, 16
  76 0058 13010101 		addi	sp,sp,16
  77              		.cfi_def_cfa_offset 0
  78 005c 67800000 		jr	ra
  79              		.cfi_endproc
  80              	.LFE1:
  82              		.align	2
  83              		.globl	_Z7enqueueP5queueP3TCB
  85              	_Z7enqueueP5queueP3TCB:
  86              	.LFB2:
  15:src/queue.cpp **** 
  16:src/queue.cpp **** // Ubaci TCB* na kraj reda
  17:src/queue.cpp **** void enqueue(queue* q, TCB* data) {
  87              		.loc 1 17 35 is_stmt 1
  88              		.cfi_startproc
  89              	.LVL4:
  90 0060 130101FD 		addi	sp,sp,-48
  91              		.cfi_def_cfa_offset 48
  92 0064 23341102 		sd	ra,40(sp)
  93 0068 23308102 		sd	s0,32(sp)
  94 006c 233C9100 		sd	s1,24(sp)
  95 0070 23382101 		sd	s2,16(sp)
  96 0074 23343101 		sd	s3,8(sp)
  97              		.cfi_offset 1, -8
  98              		.cfi_offset 8, -16
  99              		.cfi_offset 9, -24
 100              		.cfi_offset 18, -32
GAS LISTING /tmp/cc5r0kUy.s 			page 3


 101              		.cfi_offset 19, -40
 102 0078 13040103 		addi	s0,sp,48
 103              		.cfi_def_cfa 8, 0
 104 007c 93040500 		mv	s1,a0
 105 0080 93890500 		mv	s3,a1
  18:src/queue.cpp ****     size_t size = MemoryAllocator::transferToNumBlock(sizeof(node)); //izracunaj broj blokova
 106              		.loc 1 18 5
 107              		.loc 1 18 54 is_stmt 0
 108 0084 13058001 		li	a0,24
 109              	.LVL5:
 110 0088 97000000 		call	_ZN15MemoryAllocator18transferToNumBlockEm@plt
 110      E7800000 
 111              	.LVL6:
  19:src/queue.cpp ****     node* new_node = (node*)MemoryAllocator::mem_alloc(size); // mem_alloc za queue
 112              		.loc 1 19 5 is_stmt 1
 113              		.loc 1 19 55 is_stmt 0
 114 0090 97000000 		call	_ZN15MemoryAllocator9mem_allocEm@plt
 114      E7800000 
 115              	.LVL7:
 116 0098 13090500 		mv	s2,a0
 117              	.LVL8:
  20:src/queue.cpp ****     new_node->data = data;
 118              		.loc 1 20 5 is_stmt 1
 119              		.loc 1 20 20 is_stmt 0
 120 009c 23303501 		sd	s3,0(a0)
  21:src/queue.cpp ****     new_node->next = nullptr;
 121              		.loc 1 21 5 is_stmt 1
 122              		.loc 1 21 20 is_stmt 0
 123 00a0 23380500 		sd	zero,16(a0)
  22:src/queue.cpp ****     if (is_empty(q)) {
 124              		.loc 1 22 5 is_stmt 1
 125              		.loc 1 22 17 is_stmt 0
 126 00a4 13850400 		mv	a0,s1
 127              	.LVL9:
 128 00a8 97000000 		call	_Z8is_emptyP5queue
 128      E7800000 
 129              	.LVL10:
 130              		.loc 1 22 5
 131 00b0 630A0502 		beqz	a0,.L6
  23:src/queue.cpp ****         q->front = new_node;
 132              		.loc 1 23 9 is_stmt 1
 133              		.loc 1 23 18 is_stmt 0
 134 00b4 23B02401 		sd	s2,0(s1)
  24:src/queue.cpp ****         q->rear = new_node;
 135              		.loc 1 24 9 is_stmt 1
 136              		.loc 1 24 17 is_stmt 0
 137 00b8 23B42401 		sd	s2,8(s1)
 138              	.L7:
  25:src/queue.cpp ****     } else {
  26:src/queue.cpp ****         q->rear->next = new_node; // postavi sledeci od poslednjeg na novi node
  27:src/queue.cpp ****         q->rear = new_node; // sada je novi node poslednji
  28:src/queue.cpp ****     }
  29:src/queue.cpp ****     q->size++;
 139              		.loc 1 29 5 is_stmt 1
 140              		.loc 1 29 8 is_stmt 0
 141 00bc 83A70401 		lw	a5,16(s1)
 142              		.loc 1 29 12
GAS LISTING /tmp/cc5r0kUy.s 			page 4


 143 00c0 9B871700 		addiw	a5,a5,1
 144 00c4 23A8F400 		sw	a5,16(s1)
  30:src/queue.cpp **** }
 145              		.loc 1 30 1
 146 00c8 83308102 		ld	ra,40(sp)
 147              		.cfi_remember_state
 148              		.cfi_restore 1
 149 00cc 03340102 		ld	s0,32(sp)
 150              		.cfi_restore 8
 151              		.cfi_def_cfa 2, 48
 152 00d0 83348101 		ld	s1,24(sp)
 153              		.cfi_restore 9
 154              	.LVL11:
 155 00d4 03390101 		ld	s2,16(sp)
 156              		.cfi_restore 18
 157              	.LVL12:
 158 00d8 83398100 		ld	s3,8(sp)
 159              		.cfi_restore 19
 160              	.LVL13:
 161 00dc 13010103 		addi	sp,sp,48
 162              		.cfi_def_cfa_offset 0
 163 00e0 67800000 		jr	ra
 164              	.LVL14:
 165              	.L6:
 166              		.cfi_restore_state
  26:src/queue.cpp ****         q->rear = new_node; // sada je novi node poslednji
 167              		.loc 1 26 9 is_stmt 1
  26:src/queue.cpp ****         q->rear = new_node; // sada je novi node poslednji
 168              		.loc 1 26 12 is_stmt 0
 169 00e4 83B78400 		ld	a5,8(s1)
  26:src/queue.cpp ****         q->rear = new_node; // sada je novi node poslednji
 170              		.loc 1 26 23
 171 00e8 23B82701 		sd	s2,16(a5)
  27:src/queue.cpp ****     }
 172              		.loc 1 27 9 is_stmt 1
  27:src/queue.cpp ****     }
 173              		.loc 1 27 17 is_stmt 0
 174 00ec 23B42401 		sd	s2,8(s1)
 175 00f0 6FF0DFFC 		j	.L7
 176              		.cfi_endproc
 177              	.LFE2:
 179              		.align	2
 180              		.globl	_Z9enqueue_pP5queueP3TCBi
 182              	_Z9enqueue_pP5queueP3TCBi:
 183              	.LFB3:
  31:src/queue.cpp **** 
  32:src/queue.cpp **** void enqueue_p(queue* q, TCB* data, int idData){
 184              		.loc 1 32 48 is_stmt 1
 185              		.cfi_startproc
 186              	.LVL15:
 187 00f4 130101FD 		addi	sp,sp,-48
 188              		.cfi_def_cfa_offset 48
 189 00f8 23341102 		sd	ra,40(sp)
 190 00fc 23308102 		sd	s0,32(sp)
 191 0100 233C9100 		sd	s1,24(sp)
 192 0104 23382101 		sd	s2,16(sp)
 193 0108 23343101 		sd	s3,8(sp)
GAS LISTING /tmp/cc5r0kUy.s 			page 5


 194 010c 23304101 		sd	s4,0(sp)
 195              		.cfi_offset 1, -8
 196              		.cfi_offset 8, -16
 197              		.cfi_offset 9, -24
 198              		.cfi_offset 18, -32
 199              		.cfi_offset 19, -40
 200              		.cfi_offset 20, -48
 201 0110 13040103 		addi	s0,sp,48
 202              		.cfi_def_cfa 8, 0
 203 0114 93040500 		mv	s1,a0
 204 0118 138A0500 		mv	s4,a1
 205 011c 93090600 		mv	s3,a2
  33:src/queue.cpp **** 
  34:src/queue.cpp ****     size_t size = MemoryAllocator::transferToNumBlock(sizeof(node)); //izracunaj broj blokova
 206              		.loc 1 34 5
 207              		.loc 1 34 54 is_stmt 0
 208 0120 13058001 		li	a0,24
 209              	.LVL16:
 210 0124 97000000 		call	_ZN15MemoryAllocator18transferToNumBlockEm@plt
 210      E7800000 
 211              	.LVL17:
  35:src/queue.cpp ****     node* new_node = (node*)MemoryAllocator::mem_alloc(size); // mem_alloc za queue
 212              		.loc 1 35 5 is_stmt 1
 213              		.loc 1 35 55 is_stmt 0
 214 012c 97000000 		call	_ZN15MemoryAllocator9mem_allocEm@plt
 214      E7800000 
 215              	.LVL18:
 216 0134 13090500 		mv	s2,a0
 217              	.LVL19:
  36:src/queue.cpp ****     new_node->data = data;
 218              		.loc 1 36 5 is_stmt 1
 219              		.loc 1 36 20 is_stmt 0
 220 0138 23304501 		sd	s4,0(a0)
  37:src/queue.cpp ****     new_node->id = idData;
 221              		.loc 1 37 5 is_stmt 1
 222              		.loc 1 37 18 is_stmt 0
 223 013c 23243501 		sw	s3,8(a0)
  38:src/queue.cpp ****     new_node->next = nullptr;
 224              		.loc 1 38 5 is_stmt 1
 225              		.loc 1 38 20 is_stmt 0
 226 0140 23380500 		sd	zero,16(a0)
  39:src/queue.cpp ****     if (is_empty(q)||idData<q->front->id) {
 227              		.loc 1 39 5 is_stmt 1
 228              	.LBB2:
 229              		.loc 1 39 17 is_stmt 0
 230 0144 13850400 		mv	a0,s1
 231              	.LVL20:
 232 0148 97000000 		call	_Z8is_emptyP5queue
 232      E7800000 
 233              	.LVL21:
 234              		.loc 1 39 20
 235 0150 63180500 		bnez	a0,.L10
 236              		.loc 1 39 32 discriminator 2
 237 0154 83B70400 		ld	a5,0(s1)
 238              		.loc 1 39 39 discriminator 2
 239 0158 03A78700 		lw	a4,8(a5)
 240              		.loc 1 39 20 discriminator 2
GAS LISTING /tmp/cc5r0kUy.s 			page 6


 241 015c 63D6E904 		ble	a4,s3,.L11
 242              	.L10:
  40:src/queue.cpp ****         new_node->next = q->front;
 243              		.loc 1 40 9 is_stmt 1
 244              		.loc 1 40 29 is_stmt 0
 245 0160 83B70400 		ld	a5,0(s1)
 246              		.loc 1 40 24
 247 0164 2338F900 		sd	a5,16(s2)
  41:src/queue.cpp ****         q->front = new_node;
 248              		.loc 1 41 9 is_stmt 1
 249              		.loc 1 41 18 is_stmt 0
 250 0168 23B02401 		sd	s2,0(s1)
  42:src/queue.cpp ****         if(q->rear== nullptr)
 251              		.loc 1 42 9 is_stmt 1
 252              		.loc 1 42 15 is_stmt 0
 253 016c 83B78400 		ld	a5,8(s1)
 254              		.loc 1 42 9
 255 0170 63880702 		beqz	a5,.L15
 256              	.L12:
 257              	.LBE2:
  43:src/queue.cpp ****             q->rear = new_node;
  44:src/queue.cpp ****     } else {
  45:src/queue.cpp ****         node* current = q->front;
  46:src/queue.cpp ****         while(current->next!=nullptr && current->next->id<idData){
  47:src/queue.cpp ****             current = current->next;
  48:src/queue.cpp ****         }
  49:src/queue.cpp ****         new_node->next = current->next;
  50:src/queue.cpp ****         current->next = new_node;
  51:src/queue.cpp ****         if(current==q->rear){
  52:src/queue.cpp ****             q->rear = new_node;
  53:src/queue.cpp ****         }
  54:src/queue.cpp ****         
  55:src/queue.cpp ****     }
  56:src/queue.cpp ****     q->size++;
 258              		.loc 1 56 5 is_stmt 1
 259              		.loc 1 56 8 is_stmt 0
 260 0174 83A70401 		lw	a5,16(s1)
 261              		.loc 1 56 12
 262 0178 9B871700 		addiw	a5,a5,1
 263 017c 23A8F400 		sw	a5,16(s1)
  57:src/queue.cpp **** }
 264              		.loc 1 57 1
 265 0180 83308102 		ld	ra,40(sp)
 266              		.cfi_remember_state
 267              		.cfi_restore 1
 268 0184 03340102 		ld	s0,32(sp)
 269              		.cfi_restore 8
 270              		.cfi_def_cfa 2, 48
 271 0188 83348101 		ld	s1,24(sp)
 272              		.cfi_restore 9
 273              	.LVL22:
 274 018c 03390101 		ld	s2,16(sp)
 275              		.cfi_restore 18
 276              	.LVL23:
 277 0190 83398100 		ld	s3,8(sp)
 278              		.cfi_restore 19
 279 0194 033A0100 		ld	s4,0(sp)
GAS LISTING /tmp/cc5r0kUy.s 			page 7


 280              		.cfi_restore 20
 281              	.LVL24:
 282 0198 13010103 		addi	sp,sp,48
 283              		.cfi_def_cfa_offset 0
 284 019c 67800000 		jr	ra
 285              	.LVL25:
 286              	.L15:
 287              		.cfi_restore_state
 288              	.LBB4:
  43:src/queue.cpp ****             q->rear = new_node;
 289              		.loc 1 43 13 is_stmt 1
  43:src/queue.cpp ****             q->rear = new_node;
 290              		.loc 1 43 21 is_stmt 0
 291 01a0 23B42401 		sd	s2,8(s1)
 292 01a4 6FF01FFD 		j	.L12
 293              	.L11:
 294              	.LVL26:
 295              	.LBB3:
  46:src/queue.cpp ****             current = current->next;
 296              		.loc 1 46 9 is_stmt 1
  46:src/queue.cpp ****             current = current->next;
 297              		.loc 1 46 38
 298 01a8 93860700 		mv	a3,a5
  46:src/queue.cpp ****             current = current->next;
 299              		.loc 1 46 24 is_stmt 0
 300 01ac 83B70701 		ld	a5,16(a5)
 301              	.LVL27:
  46:src/queue.cpp ****             current = current->next;
 302              		.loc 1 46 38
 303 01b0 63860700 		beqz	a5,.L13
  46:src/queue.cpp ****             current = current->next;
 304              		.loc 1 46 56 discriminator 1
 305 01b4 03A78700 		lw	a4,8(a5)
  46:src/queue.cpp ****             current = current->next;
 306              		.loc 1 46 38 discriminator 1
 307 01b8 E34837FF 		blt	a4,s3,.L11
 308              	.L13:
  49:src/queue.cpp ****         current->next = new_node;
 309              		.loc 1 49 9 is_stmt 1
  49:src/queue.cpp ****         current->next = new_node;
 310              		.loc 1 49 24 is_stmt 0
 311 01bc 2338F900 		sd	a5,16(s2)
  50:src/queue.cpp ****         if(current==q->rear){
 312              		.loc 1 50 9 is_stmt 1
  50:src/queue.cpp ****         if(current==q->rear){
 313              		.loc 1 50 23 is_stmt 0
 314 01c0 23B82601 		sd	s2,16(a3)
  51:src/queue.cpp ****             q->rear = new_node;
 315              		.loc 1 51 9 is_stmt 1
  51:src/queue.cpp ****             q->rear = new_node;
 316              		.loc 1 51 24 is_stmt 0
 317 01c4 83B78400 		ld	a5,8(s1)
  51:src/queue.cpp ****             q->rear = new_node;
 318              		.loc 1 51 9
 319 01c8 E396D7FA 		bne	a5,a3,.L12
  52:src/queue.cpp ****         }
 320              		.loc 1 52 13 is_stmt 1
GAS LISTING /tmp/cc5r0kUy.s 			page 8


  52:src/queue.cpp ****         }
 321              		.loc 1 52 21 is_stmt 0
 322 01cc 23B42401 		sd	s2,8(s1)
 323 01d0 6FF05FFA 		j	.L12
 324              	.LBE3:
 325              	.LBE4:
 326              		.cfi_endproc
 327              	.LFE3:
 329              		.align	2
 330              		.globl	_Z7dequeueP5queue
 332              	_Z7dequeueP5queue:
 333              	.LFB4:
  58:src/queue.cpp **** 
  59:src/queue.cpp **** // Izbaci TCB* sa pocetka reda
  60:src/queue.cpp **** TCB* dequeue(queue* q) {
 334              		.loc 1 60 24 is_stmt 1
 335              		.cfi_startproc
 336              	.LVL28:
 337 01d4 130101FE 		addi	sp,sp,-32
 338              		.cfi_def_cfa_offset 32
 339 01d8 233C1100 		sd	ra,24(sp)
 340 01dc 23388100 		sd	s0,16(sp)
 341 01e0 23349100 		sd	s1,8(sp)
 342 01e4 23302101 		sd	s2,0(sp)
 343              		.cfi_offset 1, -8
 344              		.cfi_offset 8, -16
 345              		.cfi_offset 9, -24
 346              		.cfi_offset 18, -32
 347 01e8 13040102 		addi	s0,sp,32
 348              		.cfi_def_cfa 8, 0
 349 01ec 93040500 		mv	s1,a0
  61:src/queue.cpp ****     if (is_empty(q)) {
 350              		.loc 1 61 5
 351              	.LBB5:
 352              		.loc 1 61 17 is_stmt 0
 353 01f0 97000000 		call	_Z8is_emptyP5queue
 353      E7800000 
 354              	.LVL29:
 355              		.loc 1 61 5
 356 01f8 63120504 		bnez	a0,.L18
 357              	.LBB6:
  62:src/queue.cpp ****         return nullptr;
  63:src/queue.cpp ****     } else {
  64:src/queue.cpp ****         node* temp = q->front; //izvlacim prvi node
 358              		.loc 1 64 9 is_stmt 1
 359              		.loc 1 64 15 is_stmt 0
 360 01fc 03B50400 		ld	a0,0(s1)
 361              	.LVL30:
  65:src/queue.cpp ****         TCB* data = temp->data; //TCB* koji vracam
 362              		.loc 1 65 9 is_stmt 1
 363              		.loc 1 65 14 is_stmt 0
 364 0200 03390500 		ld	s2,0(a0)
 365              	.LVL31:
  66:src/queue.cpp ****         q->front = temp->next; //izbacim elemenat iz reda
 366              		.loc 1 66 9 is_stmt 1
 367              		.loc 1 66 26 is_stmt 0
 368 0204 83370501 		ld	a5,16(a0)
GAS LISTING /tmp/cc5r0kUy.s 			page 9


 369              		.loc 1 66 18
 370 0208 23B0F400 		sd	a5,0(s1)
  67:src/queue.cpp ****         MemoryAllocator::mem_free(temp); // dealociram pokazivac na trenutni/bivsi pocetak reda
 371              		.loc 1 67 9 is_stmt 1
 372              		.loc 1 67 34 is_stmt 0
 373 020c 97000000 		call	_ZN15MemoryAllocator8mem_freeEPv@plt
 373      E7800000 
 374              	.LVL32:
  68:src/queue.cpp ****         q->size--;
 375              		.loc 1 68 9 is_stmt 1
 376              		.loc 1 68 12 is_stmt 0
 377 0214 83A70401 		lw	a5,16(s1)
 378              		.loc 1 68 16
 379 0218 9B87F7FF 		addiw	a5,a5,-1
 380 021c 23A8F400 		sw	a5,16(s1)
  69:src/queue.cpp ****         return data;
 381              		.loc 1 69 9 is_stmt 1
 382              	.LVL33:
 383              	.L16:
 384              	.LBE6:
 385              	.LBE5:
  70:src/queue.cpp ****     }
  71:src/queue.cpp **** }
 386              		.loc 1 71 1 is_stmt 0
 387 0220 13050900 		mv	a0,s2
 388 0224 83308101 		ld	ra,24(sp)
 389              		.cfi_remember_state
 390              		.cfi_restore 1
 391 0228 03340101 		ld	s0,16(sp)
 392              		.cfi_restore 8
 393              		.cfi_def_cfa 2, 32
 394 022c 83348100 		ld	s1,8(sp)
 395              		.cfi_restore 9
 396              	.LVL34:
 397 0230 03390100 		ld	s2,0(sp)
 398              		.cfi_restore 18
 399 0234 13010102 		addi	sp,sp,32
 400              		.cfi_def_cfa_offset 0
 401 0238 67800000 		jr	ra
 402              	.LVL35:
 403              	.L18:
 404              		.cfi_restore_state
 405              	.LBB7:
  62:src/queue.cpp ****     } else {
 406              		.loc 1 62 16
 407 023c 13090000 		li	s2,0
 408 0240 6FF01FFE 		j	.L16
 409              	.LBE7:
 410              		.cfi_endproc
 411              	.LFE4:
 413              	.Letext0:
 414              		.file 2 "src/../h/../lib/hw.h"
 415              		.file 3 "src/../h/MemoryAllocator.hpp"
 416              		.file 4 "src/../h/queue.hpp"
GAS LISTING /tmp/cc5r0kUy.s 			page 10

