GAS LISTING /tmp/cc5r0kUy.s 			page 1


   1              		.file	"queue.cpp"
   2              		.option pic
   3              		.option norelax
   4              		.text
   5              	.Ltext0:
   6              		.align	2
   7              		.globl	_Z12create_queuev
   9              	_Z12create_queuev:
  10              	.LFB0:
  11              		.file 1 "src/queue.cpp"
   1:src/queue.cpp **** #include "../h/queue.hpp"
   2:src/queue.cpp **** 
   3:src/queue.cpp **** queue* create_queue() {
  12              		.loc 1 3 23
  13              		.cfi_startproc
  14 0000 130101FF 		addi	sp,sp,-16
  15              		.cfi_def_cfa_offset 16
  16 0004 23341100 		sd	ra,8(sp)
  17 0008 23308100 		sd	s0,0(sp)
  18              		.cfi_offset 1, -8
  19              		.cfi_offset 8, -16
  20 000c 13040101 		addi	s0,sp,16
  21              		.cfi_def_cfa 8, 0
   4:src/queue.cpp ****     size_t size = MemoryAllocator::transferToNumBlock(sizeof(queue));   //izracunaj broj blokova
  22              		.loc 1 4 5
  23              		.loc 1 4 54 is_stmt 0
  24 0010 13058001 		li	a0,24
  25 0014 97000000 		call	_ZN15MemoryAllocator18transferToNumBlockEm@plt
  25      E7800000 
  26              	.LVL0:
   5:src/queue.cpp ****     queue* q = (queue*)MemoryAllocator::mem_alloc(size); // mem_alloc za queue
  27              		.loc 1 5 5 is_stmt 1
  28              		.loc 1 5 50 is_stmt 0
  29 001c 97000000 		call	_ZN15MemoryAllocator9mem_allocEm@plt
  29      E7800000 
  30              	.LVL1:
   6:src/queue.cpp ****     q->front = nullptr;
  31              		.loc 1 6 5 is_stmt 1
  32              		.loc 1 6 14 is_stmt 0
  33 0024 23300500 		sd	zero,0(a0)
   7:src/queue.cpp ****     q->rear = nullptr;
  34              		.loc 1 7 5 is_stmt 1
  35              		.loc 1 7 13 is_stmt 0
  36 0028 23340500 		sd	zero,8(a0)
   8:src/queue.cpp ****     q->size = 0;
  37              		.loc 1 8 5 is_stmt 1
  38              		.loc 1 8 13 is_stmt 0
  39 002c 23280500 		sw	zero,16(a0)
   9:src/queue.cpp ****     return q;//pokazivac na alocirani red red
  40              		.loc 1 9 5 is_stmt 1
  10:src/queue.cpp **** }
  41              		.loc 1 10 1 is_stmt 0
  42 0030 83308100 		ld	ra,8(sp)
  43              		.cfi_restore 1
  44 0034 03340100 		ld	s0,0(sp)
  45              		.cfi_restore 8
  46              		.cfi_def_cfa 2, 16
GAS LISTING /tmp/cc5r0kUy.s 			page 2


  47 0038 13010101 		addi	sp,sp,16
  48              		.cfi_def_cfa_offset 0
  49 003c 67800000 		jr	ra
  50              		.cfi_endproc
  51              	.LFE0:
  53              		.align	2
  54              		.globl	_Z8is_emptyP5queue
  56              	_Z8is_emptyP5queue:
  57              	.LFB1:
  11:src/queue.cpp **** 
  12:src/queue.cpp **** bool is_empty(queue* q) {
  58              		.loc 1 12 25 is_stmt 1
  59              		.cfi_startproc
  60              	.LVL2:
  61 0040 130101FF 		addi	sp,sp,-16
  62              		.cfi_def_cfa_offset 16
  63 0044 23348100 		sd	s0,8(sp)
  64              		.cfi_offset 8, -8
  65 0048 13040101 		addi	s0,sp,16
  66              		.cfi_def_cfa 8, 0
  13:src/queue.cpp ****     return (q->size == 0);
  67              		.loc 1 13 5
  68              		.loc 1 13 16 is_stmt 0
  69 004c 03250501 		lw	a0,16(a0)
  70              	.LVL3:
  14:src/queue.cpp **** }
  71              		.loc 1 14 1
  72 0050 13351500 		seqz	a0,a0
  73 0054 03348100 		ld	s0,8(sp)
  74              		.cfi_restore 8
  75              		.cfi_def_cfa 2, 16
  76 0058 13010101 		addi	sp,sp,16
  77              		.cfi_def_cfa_offset 0
  78 005c 67800000 		jr	ra
  79              		.cfi_endproc
  80              	.LFE1:
  82              		.align	2
  83              		.globl	_Z7enqueueP5queueP3TCB
  85              	_Z7enqueueP5queueP3TCB:
  86              	.LFB2:
  15:src/queue.cpp **** 
  16:src/queue.cpp **** // Ubaci TCB* na kraj reda
  17:src/queue.cpp **** void enqueue(queue* q, TCB* data) {
  87              		.loc 1 17 35 is_stmt 1
  88              		.cfi_startproc
  89              	.LVL4:
  90 0060 130101FD 		addi	sp,sp,-48
  91              		.cfi_def_cfa_offset 48
  92 0064 23341102 		sd	ra,40(sp)
  93 0068 23308102 		sd	s0,32(sp)
  94 006c 233C9100 		sd	s1,24(sp)
  95 0070 23382101 		sd	s2,16(sp)
  96 0074 23343101 		sd	s3,8(sp)
  97              		.cfi_offset 1, -8
  98              		.cfi_offset 8, -16
  99              		.cfi_offset 9, -24
 100              		.cfi_offset 18, -32
GAS LISTING /tmp/cc5r0kUy.s 			page 3


 101              		.cfi_offset 19, -40
 102 0078 13040103 		addi	s0,sp,48
 103              		.cfi_def_cfa 8, 0
 104 007c 93040500 		mv	s1,a0
 105 0080 93890500 		mv	s3,a1
  18:src/queue.cpp ****     size_t size = MemoryAllocator::transferToNumBlock(sizeof(node)); //izracunaj broj blokova
 106              		.loc 1 18 5
 107              		.loc 1 18 54 is_stmt 0
 108 0084 13058001 		li	a0,24
 109              	.LVL5:
 110 0088 97000000 		call	_ZN15MemoryAllocator18transferToNumBlockEm@plt
 110      E7800000 
 111              	.LVL6:
  19:src/queue.cpp ****     node* new_node = (node*)MemoryAllocator::mem_alloc(size); // mem_alloc za queue
 112              		.loc 1 19 5 is_stmt 1
 113              		.loc 1 19 55 is_stmt 0
 114 0090 97000000 		call	_ZN15MemoryAllocator9mem_allocEm@plt
 114      E7800000 
 115              	.LVL7:
 116 0098 13090500 		mv	s2,a0
 117              	.LVL8:
  20:src/queue.cpp ****     new_node->data = data;
 118              		.loc 1 20 5 is_stmt 1
 119              		.loc 1 20 20 is_stmt 0
 120 009c 23303501 		sd	s3,0(a0)
  21:src/queue.cpp ****     new_node->next = nullptr;
 121              		.loc 1 21 5 is_stmt 1
 122              		.loc 1 21 20 is_stmt 0
 123 00a0 23380500 		sd	zero,16(a0)
  22:src/queue.cpp ****     if (is_empty(q)) {
 124              		.loc 1 22 5 is_stmt 1
 125              		.loc 1 22 17 is_stmt 0
 126 00a4 13850400 		mv	a0,s1
 127              	.LVL9:
 128 00a8 97000000 		call	_Z8is_emptyP5queue
 128      E7800000 
 129              	.LVL10:
 130              		.loc 1 22 5
 131 00b0 630A0502 		beqz	a0,.L6
  23:src/queue.cpp ****         q->front = new_node;
 132              		.loc 1 23 9 is_stmt 1
 133              		.loc 1 23 18 is_stmt 0
 134 00b4 23B02401 		sd	s2,0(s1)
  24:src/queue.cpp ****         q->rear = new_node;
 135              		.loc 1 24 9 is_stmt 1
 136              		.loc 1 24 17 is_stmt 0
 137 00b8 23B42401 		sd	s2,8(s1)
 138              	.L7:
  25:src/queue.cpp ****     } else {
  26:src/queue.cpp ****         q->rear->next = new_node; // postavi sledeci od poslednjeg na novi node
  27:src/queue.cpp ****         q->rear = new_node; // sada je novi node poslednji
  28:src/queue.cpp ****     }
  29:src/queue.cpp ****     q->size++;
 139              		.loc 1 29 5 is_stmt 1
 140              		.loc 1 29 8 is_stmt 0
 141 00bc 83A70401 		lw	a5,16(s1)
 142              		.loc 1 29 12
GAS LISTING /tmp/cc5r0kUy.s 			page 4


 143 00c0 9B871700 		addiw	a5,a5,1
 144 00c4 23A8F400 		sw	a5,16(s1)
  30:src/queue.cpp **** }
 145              		.loc 1 30 1
 146 00c8 83308102 		ld	ra,40(sp)
 147              		.cfi_remember_state
 148              		.cfi_restore 1
 149 00cc 03340102 		ld	s0,32(sp)
 150              		.cfi_restore 8
 151              		.cfi_def_cfa 2, 48
 152 00d0 83348101 		ld	s1,24(sp)
 153              		.cfi_restore 9
 154              	.LVL11:
 155 00d4 03390101 		ld	s2,16(sp)
 156              		.cfi_restore 18
 157              	.LVL12:
 158 00d8 83398100 		ld	s3,8(sp)
 159              		.cfi_restore 19
 160              	.LVL13:
 161 00dc 13010103 		addi	sp,sp,48
 162              		.cfi_def_cfa_offset 0
 163 00e0 67800000 		jr	ra
 164              	.LVL14:
 165              	.L6:
 166              		.cfi_restore_state
  26:src/queue.cpp ****         q->rear = new_node; // sada je novi node poslednji
 167              		.loc 1 26 9 is_stmt 1
  26:src/queue.cpp ****         q->rear = new_node; // sada je novi node poslednji
 168              		.loc 1 26 12 is_stmt 0
 169 00e4 83B78400 		ld	a5,8(s1)
  26:src/queue.cpp ****         q->rear = new_node; // sada je novi node poslednji
 170              		.loc 1 26 23
 171 00e8 23B82701 		sd	s2,16(a5)
  27:src/queue.cpp ****     }
 172              		.loc 1 27 9 is_stmt 1
  27:src/queue.cpp ****     }
 173              		.loc 1 27 17 is_stmt 0
 174 00ec 23B42401 		sd	s2,8(s1)
 175 00f0 6FF0DFFC 		j	.L7
 176              		.cfi_endproc
 177              	.LFE2:
 179              		.align	2
 180              		.globl	_Z9enqueue_pP5queueP3TCBi
 182              	_Z9enqueue_pP5queueP3TCBi:
 183              	.LFB3:
  31:src/queue.cpp **** 
  32:src/queue.cpp **** void enqueue_p(queue* q, TCB* data, int idData){
 184              		.loc 1 32 48 is_stmt 1
 185              		.cfi_startproc
 186              	.LVL15:
 187 00f4 130101FD 		addi	sp,sp,-48
 188              		.cfi_def_cfa_offset 48
 189 00f8 23341102 		sd	ra,40(sp)
 190 00fc 23308102 		sd	s0,32(sp)
 191 0100 233C9100 		sd	s1,24(sp)
 192 0104 23382101 		sd	s2,16(sp)
 193 0108 23343101 		sd	s3,8(sp)
GAS LISTING /tmp/cc5r0kUy.s 			page 5


 194 010c 23304101 		sd	s4,0(sp)
 195              		.cfi_offset 1, -8
 196              		.cfi_offset 8, -16
 197              		.cfi_offset 9, -24
 198              		.cfi_offset 18, -32
 199              		.cfi_offset 19, -40
 200              		.cfi_offset 20, -48
 201 0110 13040103 		addi	s0,sp,48
 202              		.cfi_def_cfa 8, 0
 203 0114 93040500 		mv	s1,a0
 204 0118 138A0500 		mv	s4,a1
 205 011c 93090600 		mv	s3,a2
  33:src/queue.cpp **** 
  34:src/queue.cpp ****     size_t size = MemoryAllocator::transferToNumBlock(sizeof(node)); //izracunaj broj blokova
 206              		.loc 1 34 5
 207              		.loc 1 34 54 is_stmt 0
 208 0120 13058001 		li	a0,24
 209              	.LVL16:
 210 0124 97000000 		call	_ZN15MemoryAllocator18transferToNumBlockEm@plt
 210      E7800000 
 211              	.LVL17:
  35:src/queue.cpp ****     node* new_node = (node*)MemoryAllocator::mem_alloc(size); // mem_alloc za queue
 212              		.loc 1 35 5 is_stmt 1
 213              		.loc 1 35 55 is_stmt 0
 214 012c 97000000 		call	_ZN15MemoryAllocator9mem_allocEm@plt
 214      E7800000 
 215              	.LVL18:
 216 0134 13090500 		mv	s2,a0
 217              	.LVL19:
  36:src/queue.cpp ****     new_node->data = data;
 218              		.loc 1 36 5 is_stmt 1
 219              		.loc 1 36 20 is_stmt 0
 220 0138 23304501 		sd	s4,0(a0)
  37:src/queue.cpp ****     new_node->id = idData;
 221              		.loc 1 37 5 is_stmt 1
 222              		.loc 1 37 18 is_stmt 0
 223 013c 23243501 		sw	s3,8(a0)
  38:src/queue.cpp ****     new_node->next = nullptr;
 224              		.loc 1 38 5 is_stmt 1
 225              		.loc 1 38 20 is_stmt 0
 226 0140 23380500 		sd	zero,16(a0)
  39:src/queue.cpp ****     if (is_empty(q)||idData<q->front->id) {
 227              		.loc 1 39 5 is_stmt 1
 228              	.LBB2:
 229              		.loc 1 39 17 is_stmt 0
 230 0144 13850400 		mv	a0,s1
 231              	.LVL20:
 232 0148 97000000 		call	_Z8is_emptyP5queue
 232      E7800000 
 233              	.LVL21:
 234              		.loc 1 39 20
 235 0150 63180500 		bnez	a0,.L10
 236              		.loc 1 39 32 discriminator 2
 237 0154 83B70400 		ld	a5,0(s1)
 238              		.loc 1 39 39 discriminator 2
 239 0158 03A78700 		lw	a4,8(a5)
 240              		.loc 1 39 20 discriminator 2
GAS LISTING /tmp/cc5r0kUy.s 			page 6


 241 015c 63D6E904 		ble	a4,s3,.L11
 242              	.L10:
  40:src/queue.cpp ****         new_node->next = q->front;
 243              		.loc 1 40 9 is_stmt 1
 244              		.loc 1 40 29 is_stmt 0
 245 0160 83B70400 		ld	a5,0(s1)
 246              		.loc 1 40 24
 247 0164 2338F900 		sd	a5,16(s2)
  41:src/queue.cpp ****         q->front = new_node;
 248              		.loc 1 41 9 is_stmt 1
 249              		.loc 1 41 18 is_stmt 0
 250 0168 23B02401 		sd	s2,0(s1)
  42:src/queue.cpp ****         if(q->rear== nullptr)
 251              		.loc 1 42 9 is_stmt 1
 252              		.loc 1 42 15 is_stmt 0
 253 016c 83B78400 		ld	a5,8(s1)
 254              		.loc 1 42 9
 255 0170 63880702 		beqz	a5,.L15
 256              	.L12:
 257              	.LBE2:
  43:src/queue.cpp ****             q->rear = new_node;
  44:src/queue.cpp ****     } else {
  45:src/queue.cpp ****         node* current = q->front;
  46:src/queue.cpp ****         while(current->next!=nullptr && current->next->id<idData){
  47:src/queue.cpp ****             current = current->next;
  48:src/queue.cpp ****         }
  49:src/queue.cpp ****         new_node->next = current->next;
  50:src/queue.cpp ****         current->next = new_node;
  51:src/queue.cpp ****         if(current==q->rear){
  52:src/queue.cpp ****             q->rear = new_node;
  53:src/queue.cpp ****         }
  54:src/queue.cpp ****         
  55:src/queue.cpp ****     }
  56:src/queue.cpp ****     q->size++;
 258              		.loc 1 56 5 is_stmt 1
 259              		.loc 1 56 8 is_stmt 0
 260 0174 83A70401 		lw	a5,16(s1)
 261              		.loc 1 56 12
 262 0178 9B871700 		addiw	a5,a5,1
 263 017c 23A8F400 		sw	a5,16(s1)
  57:src/queue.cpp **** }
 264              		.loc 1 57 1
 265 0180 83308102 		ld	ra,40(sp)
 266              		.cfi_remember_state
 267              		.cfi_restore 1
 268 0184 03340102 		ld	s0,32(sp)
 269              		.cfi_restore 8
 270              		.cfi_def_cfa 2, 48
 271 0188 83348101 		ld	s1,24(sp)
 272              		.cfi_restore 9
 273              	.LVL22:
 274 018c 03390101 		ld	s2,16(sp)
 275              		.cfi_restore 18
 276              	.LVL23:
 277 0190 83398100 		ld	s3,8(sp)
 278              		.cfi_restore 19
 279 0194 033A0100 		ld	s4,0(sp)
GAS LISTING /tmp/cc5r0kUy.s 			page 7


 280              		.cfi_restore 20
 281              	.LVL24:
 282 0198 13010103 		addi	sp,sp,48
 283              		.cfi_def_cfa_offset 0
 284 019c 67800000 		jr	ra
 285              	.LVL25:
 286              	.L15:
 287              		.cfi_restore_state
 288              	.LBB4:
  43:src/queue.cpp ****             q->rear = new_node;
 289              		.loc 1 43 13 is_stmt 1
  43:src/queue.cpp ****             q->rear = new_node;
 290              		.loc 1 43 21 is_stmt 0
 291 01a0 23B42401 		sd	s2,8(s1)
 292 01a4 6FF01FFD 		j	.L12
 293              	.L11:
 294              	.LVL26:
 295              	.LBB3:
  46:src/queue.cpp ****             current = current->next;
 296              		.loc 1 46 9 is_stmt 1
  46:src/queue.cpp ****             current = current->next;
 297              		.loc 1 46 38
 298 01a8 93860700 		mv	a3,a5
  46:src/queue.cpp ****             current = current->next;
 299              		.loc 1 46 24 is_stmt 0
 300 01ac 83B70701 		ld	a5,16(a5)
 301              	.LVL27:
  46:src/queue.cpp ****             current = current->next;
 302              		.loc 1 46 38
 303 01b0 63860700 		beqz	a5,.L13
  46:src/queue.cpp ****             current = current->next;
 304              		.loc 1 46 56 discriminator 1
 305 01b4 03A78700 		lw	a4,8(a5)
  46:src/queue.cpp ****             current = current->next;
 306              		.loc 1 46 38 discriminator 1
 307 01b8 E34837FF 		blt	a4,s3,.L11
 308              	.L13:
  49:src/queue.cpp ****         current->next = new_node;
 309              		.loc 1 49 9 is_stmt 1
  49:src/queue.cpp ****         current->next = new_node;
 310              		.loc 1 49 24 is_stmt 0
 311 01bc 2338F900 		sd	a5,16(s2)
  50:src/queue.cpp ****         if(current==q->rear){
 312              		.loc 1 50 9 is_stmt 1
  50:src/queue.cpp ****         if(current==q->rear){
 313              		.loc 1 50 23 is_stmt 0
 314 01c0 23B82601 		sd	s2,16(a3)
  51:src/queue.cpp ****             q->rear = new_node;
 315              		.loc 1 51 9 is_stmt 1
  51:src/queue.cpp ****             q->rear = new_node;
 316              		.loc 1 51 24 is_stmt 0
 317 01c4 83B78400 		ld	a5,8(s1)
  51:src/queue.cpp ****             q->rear = new_node;
 318              		.loc 1 51 9
 319 01c8 E396D7FA 		bne	a5,a3,.L12
  52:src/queue.cpp ****         }
 320              		.loc 1 52 13 is_stmt 1
GAS LISTING /tmp/cc5r0kUy.s 			page 8


  52:src/queue.cpp ****         }
 321              		.loc 1 52 21 is_stmt 0
 322 01cc 23B42401 		sd	s2,8(s1)
 323 01d0 6FF05FFA 		j	.L12
 324              	.LBE3:
 325              	.LBE4:
 326              		.cfi_endproc
 327              	.LFE3:
 329              		.align	2
 330              		.globl	_Z7dequeueP5queue
 332              	_Z7dequeueP5queue:
 333              	.LFB4:
  58:src/queue.cpp **** 
  59:src/queue.cpp **** // Izbaci TCB* sa pocetka reda
  60:src/queue.cpp **** TCB* dequeue(queue* q) {
 334              		.loc 1 60 24 is_stmt 1
 335              		.cfi_startproc
 336              	.LVL28:
 337 01d4 130101FE 		addi	sp,sp,-32
 338              		.cfi_def_cfa_offset 32
 339 01d8 233C1100 		sd	ra,24(sp)
 340 01dc 23388100 		sd	s0,16(sp)
 341 01e0 23349100 		sd	s1,8(sp)
 342 01e4 23302101 		sd	s2,0(sp)
 343              		.cfi_offset 1, -8
 344              		.cfi_offset 8, -16
 345              		.cfi_offset 9, -24
 346              		.cfi_offset 18, -32
 347 01e8 13040102 		addi	s0,sp,32
 348              		.cfi_def_cfa 8, 0
 349 01ec 93040500 		mv	s1,a0
  61:src/queue.cpp ****     if (is_empty(q)) {
 350              		.loc 1 61 5
 351              	.LBB5:
 352              		.loc 1 61 17 is_stmt 0
 353 01f0 97000000 		call	_Z8is_emptyP5queue
 353      E7800000 
 354              	.LVL29:
 355              		.loc 1 61 5
 356 01f8 63120504 		bnez	a0,.L18
 357              	.LBB6:
  62:src/queue.cpp ****         return nullptr;
  63:src/queue.cpp ****     } else {
  64:src/queue.cpp ****         node* temp = q->front; //izvlacim prvi node
 358              		.loc 1 64 9 is_stmt 1
 359              		.loc 1 64 15 is_stmt 0
 360 01fc 03B50400 		ld	a0,0(s1)
 361              	.LVL30:
  65:src/queue.cpp ****         TCB* data = temp->data; //TCB* koji vracam
 362              		.loc 1 65 9 is_stmt 1
 363              		.loc 1 65 14 is_stmt 0
 364 0200 03390500 		ld	s2,0(a0)
 365              	.LVL31:
  66:src/queue.cpp ****         q->front = temp->next; //izbacim elemenat iz reda
 366              		.loc 1 66 9 is_stmt 1
 367              		.loc 1 66 26 is_stmt 0
 368 0204 83370501 		ld	a5,16(a0)
GAS LISTING /tmp/cc5r0kUy.s 			page 9


 369              		.loc 1 66 18
 370 0208 23B0F400 		sd	a5,0(s1)
  67:src/queue.cpp ****         MemoryAllocator::mem_free(temp); // dealociram pokazivac na trenutni/bivsi pocetak reda
 371              		.loc 1 67 9 is_stmt 1
 372              		.loc 1 67 34 is_stmt 0
 373 020c 97000000 		call	_ZN15MemoryAllocator8mem_freeEPv@plt
 373      E7800000 
 374              	.LVL32:
  68:src/queue.cpp ****         q->size--;
 375              		.loc 1 68 9 is_stmt 1
 376              		.loc 1 68 12 is_stmt 0
 377 0214 83A70401 		lw	a5,16(s1)
 378              		.loc 1 68 16
 379 0218 9B87F7FF 		addiw	a5,a5,-1
 380 021c 23A8F400 		sw	a5,16(s1)
  69:src/queue.cpp ****         return data;
 381              		.loc 1 69 9 is_stmt 1
 382              	.LVL33:
 383              	.L16:
 384              	.LBE6:
 385              	.LBE5:
  70:src/queue.cpp ****     }
  71:src/queue.cpp **** }
 386              		.loc 1 71 1 is_stmt 0
 387 0220 13050900 		mv	a0,s2
 388 0224 83308101 		ld	ra,24(sp)
 389              		.cfi_remember_state
 390              		.cfi_restore 1
 391 0228 03340101 		ld	s0,16(sp)
 392              		.cfi_restore 8
 393              		.cfi_def_cfa 2, 32
 394 022c 83348100 		ld	s1,8(sp)
 395              		.cfi_restore 9
 396              	.LVL34:
 397 0230 03390100 		ld	s2,0(sp)
 398              		.cfi_restore 18
 399 0234 13010102 		addi	sp,sp,32
 400              		.cfi_def_cfa_offset 0
 401 0238 67800000 		jr	ra
 402              	.LVL35:
 403              	.L18:
 404              		.cfi_restore_state
 405              	.LBB7:
  62:src/queue.cpp ****     } else {
 406              		.loc 1 62 16
 407 023c 13090000 		li	s2,0
 408 0240 6FF01FFE 		j	.L16
 409              	.LBE7:
 410              		.cfi_endproc
 411              	.LFE4:
 413              	.Letext0:
 414              		.file 2 "src/../h/../lib/hw.h"
 415              		.file 3 "src/../h/MemoryAllocator.hpp"
 416              		.file 4 "src/../h/queue.hpp"
GAS LISTING /tmp/cc5r0kUy.s 			page 10


DEFINED SYMBOLS
                            *ABS*:0000000000000000 queue.cpp
     /tmp/cc5r0kUy.s:9      .text:0000000000000000 _Z12create_queuev
     /tmp/cc5r0kUy.s:13     .text:0000000000000000 .L0 
     /tmp/cc5r0kUy.s:14     .text:0000000000000000 .L0 
     /tmp/cc5r0kUy.s:15     .text:0000000000000004 .L0 
     /tmp/cc5r0kUy.s:18     .text:000000000000000c .L0 
     /tmp/cc5r0kUy.s:19     .text:000000000000000c .L0 
     /tmp/cc5r0kUy.s:21     .text:0000000000000010 .L0 
     /tmp/cc5r0kUy.s:23     .text:0000000000000010 .L0 
     /tmp/cc5r0kUy.s:24     .text:0000000000000010 .L0 
     /tmp/cc5r0kUy.s:28     .text:000000000000001c .L0 
     /tmp/cc5r0kUy.s:29     .text:000000000000001c .L0 
     /tmp/cc5r0kUy.s:32     .text:0000000000000024 .L0 
     /tmp/cc5r0kUy.s:33     .text:0000000000000024 .L0 
     /tmp/cc5r0kUy.s:35     .text:0000000000000028 .L0 
     /tmp/cc5r0kUy.s:36     .text:0000000000000028 .L0 
     /tmp/cc5r0kUy.s:38     .text:000000000000002c .L0 
     /tmp/cc5r0kUy.s:39     .text:000000000000002c .L0 
     /tmp/cc5r0kUy.s:41     .text:0000000000000030 .L0 
     /tmp/cc5r0kUy.s:42     .text:0000000000000030 .L0 
     /tmp/cc5r0kUy.s:43     .text:0000000000000034 .L0 
     /tmp/cc5r0kUy.s:45     .text:0000000000000038 .L0 
     /tmp/cc5r0kUy.s:46     .text:0000000000000038 .L0 
     /tmp/cc5r0kUy.s:48     .text:000000000000003c .L0 
     /tmp/cc5r0kUy.s:50     .text:0000000000000040 .L0 
     /tmp/cc5r0kUy.s:56     .text:0000000000000040 _Z8is_emptyP5queue
     /tmp/cc5r0kUy.s:59     .text:0000000000000040 .L0 
     /tmp/cc5r0kUy.s:61     .text:0000000000000040 .L0 
     /tmp/cc5r0kUy.s:62     .text:0000000000000044 .L0 
     /tmp/cc5r0kUy.s:64     .text:0000000000000048 .L0 
     /tmp/cc5r0kUy.s:66     .text:000000000000004c .L0 
     /tmp/cc5r0kUy.s:68     .text:000000000000004c .L0 
     /tmp/cc5r0kUy.s:69     .text:000000000000004c .L0 
     /tmp/cc5r0kUy.s:72     .text:0000000000000050 .L0 
     /tmp/cc5r0kUy.s:74     .text:0000000000000058 .L0 
     /tmp/cc5r0kUy.s:75     .text:0000000000000058 .L0 
     /tmp/cc5r0kUy.s:77     .text:000000000000005c .L0 
     /tmp/cc5r0kUy.s:79     .text:0000000000000060 .L0 
     /tmp/cc5r0kUy.s:85     .text:0000000000000060 _Z7enqueueP5queueP3TCB
     /tmp/cc5r0kUy.s:88     .text:0000000000000060 .L0 
     /tmp/cc5r0kUy.s:90     .text:0000000000000060 .L0 
     /tmp/cc5r0kUy.s:91     .text:0000000000000064 .L0 
     /tmp/cc5r0kUy.s:97     .text:0000000000000078 .L0 
     /tmp/cc5r0kUy.s:98     .text:0000000000000078 .L0 
     /tmp/cc5r0kUy.s:99     .text:0000000000000078 .L0 
     /tmp/cc5r0kUy.s:100    .text:0000000000000078 .L0 
     /tmp/cc5r0kUy.s:101    .text:0000000000000078 .L0 
     /tmp/cc5r0kUy.s:103    .text:000000000000007c .L0 
     /tmp/cc5r0kUy.s:107    .text:0000000000000084 .L0 
     /tmp/cc5r0kUy.s:108    .text:0000000000000084 .L0 
     /tmp/cc5r0kUy.s:113    .text:0000000000000090 .L0 
     /tmp/cc5r0kUy.s:114    .text:0000000000000090 .L0 
     /tmp/cc5r0kUy.s:119    .text:000000000000009c .L0 
     /tmp/cc5r0kUy.s:120    .text:000000000000009c .L0 
     /tmp/cc5r0kUy.s:122    .text:00000000000000a0 .L0 
     /tmp/cc5r0kUy.s:123    .text:00000000000000a0 .L0 
GAS LISTING /tmp/cc5r0kUy.s 			page 11


     /tmp/cc5r0kUy.s:125    .text:00000000000000a4 .L0 
     /tmp/cc5r0kUy.s:126    .text:00000000000000a4 .L0 
     /tmp/cc5r0kUy.s:131    .text:00000000000000b0 .L0 
     /tmp/cc5r0kUy.s:133    .text:00000000000000b4 .L0 
     /tmp/cc5r0kUy.s:134    .text:00000000000000b4 .L0 
     /tmp/cc5r0kUy.s:136    .text:00000000000000b8 .L0 
     /tmp/cc5r0kUy.s:137    .text:00000000000000b8 .L0 
     /tmp/cc5r0kUy.s:140    .text:00000000000000bc .L0 
     /tmp/cc5r0kUy.s:141    .text:00000000000000bc .L0 
     /tmp/cc5r0kUy.s:143    .text:00000000000000c0 .L0 
     /tmp/cc5r0kUy.s:146    .text:00000000000000c8 .L0 
     /tmp/cc5r0kUy.s:147    .text:00000000000000cc .L0 
     /tmp/cc5r0kUy.s:148    .text:00000000000000cc .L0 
     /tmp/cc5r0kUy.s:150    .text:00000000000000d0 .L0 
     /tmp/cc5r0kUy.s:151    .text:00000000000000d0 .L0 
     /tmp/cc5r0kUy.s:153    .text:00000000000000d4 .L0 
     /tmp/cc5r0kUy.s:156    .text:00000000000000d8 .L0 
     /tmp/cc5r0kUy.s:159    .text:00000000000000dc .L0 
     /tmp/cc5r0kUy.s:162    .text:00000000000000e0 .L0 
     /tmp/cc5r0kUy.s:166    .text:00000000000000e4 .L0 
     /tmp/cc5r0kUy.s:168    .text:00000000000000e4 .L0 
     /tmp/cc5r0kUy.s:169    .text:00000000000000e4 .L0 
     /tmp/cc5r0kUy.s:171    .text:00000000000000e8 .L0 
     /tmp/cc5r0kUy.s:173    .text:00000000000000ec .L0 
     /tmp/cc5r0kUy.s:174    .text:00000000000000ec .L0 
     /tmp/cc5r0kUy.s:176    .text:00000000000000f4 .L0 
     /tmp/cc5r0kUy.s:182    .text:00000000000000f4 _Z9enqueue_pP5queueP3TCBi
     /tmp/cc5r0kUy.s:185    .text:00000000000000f4 .L0 
     /tmp/cc5r0kUy.s:187    .text:00000000000000f4 .L0 
     /tmp/cc5r0kUy.s:188    .text:00000000000000f8 .L0 
     /tmp/cc5r0kUy.s:195    .text:0000000000000110 .L0 
     /tmp/cc5r0kUy.s:196    .text:0000000000000110 .L0 
     /tmp/cc5r0kUy.s:197    .text:0000000000000110 .L0 
     /tmp/cc5r0kUy.s:198    .text:0000000000000110 .L0 
     /tmp/cc5r0kUy.s:199    .text:0000000000000110 .L0 
     /tmp/cc5r0kUy.s:200    .text:0000000000000110 .L0 
     /tmp/cc5r0kUy.s:202    .text:0000000000000114 .L0 
     /tmp/cc5r0kUy.s:207    .text:0000000000000120 .L0 
     /tmp/cc5r0kUy.s:208    .text:0000000000000120 .L0 
     /tmp/cc5r0kUy.s:213    .text:000000000000012c .L0 
     /tmp/cc5r0kUy.s:214    .text:000000000000012c .L0 
     /tmp/cc5r0kUy.s:219    .text:0000000000000138 .L0 
     /tmp/cc5r0kUy.s:220    .text:0000000000000138 .L0 
     /tmp/cc5r0kUy.s:222    .text:000000000000013c .L0 
     /tmp/cc5r0kUy.s:223    .text:000000000000013c .L0 
     /tmp/cc5r0kUy.s:225    .text:0000000000000140 .L0 
     /tmp/cc5r0kUy.s:226    .text:0000000000000140 .L0 
     /tmp/cc5r0kUy.s:229    .text:0000000000000144 .L0 
     /tmp/cc5r0kUy.s:230    .text:0000000000000144 .L0 
     /tmp/cc5r0kUy.s:235    .text:0000000000000150 .L0 
     /tmp/cc5r0kUy.s:237    .text:0000000000000154 .L0 
     /tmp/cc5r0kUy.s:239    .text:0000000000000158 .L0 
     /tmp/cc5r0kUy.s:241    .text:000000000000015c .L0 
     /tmp/cc5r0kUy.s:244    .text:0000000000000160 .L0 
     /tmp/cc5r0kUy.s:245    .text:0000000000000160 .L0 
     /tmp/cc5r0kUy.s:247    .text:0000000000000164 .L0 
     /tmp/cc5r0kUy.s:249    .text:0000000000000168 .L0 
GAS LISTING /tmp/cc5r0kUy.s 			page 12


     /tmp/cc5r0kUy.s:250    .text:0000000000000168 .L0 
     /tmp/cc5r0kUy.s:252    .text:000000000000016c .L0 
     /tmp/cc5r0kUy.s:253    .text:000000000000016c .L0 
     /tmp/cc5r0kUy.s:255    .text:0000000000000170 .L0 
     /tmp/cc5r0kUy.s:259    .text:0000000000000174 .L0 
     /tmp/cc5r0kUy.s:260    .text:0000000000000174 .L0 
     /tmp/cc5r0kUy.s:262    .text:0000000000000178 .L0 
     /tmp/cc5r0kUy.s:265    .text:0000000000000180 .L0 
     /tmp/cc5r0kUy.s:266    .text:0000000000000184 .L0 
     /tmp/cc5r0kUy.s:267    .text:0000000000000184 .L0 
     /tmp/cc5r0kUy.s:269    .text:0000000000000188 .L0 
     /tmp/cc5r0kUy.s:270    .text:0000000000000188 .L0 
     /tmp/cc5r0kUy.s:272    .text:000000000000018c .L0 
     /tmp/cc5r0kUy.s:275    .text:0000000000000190 .L0 
     /tmp/cc5r0kUy.s:278    .text:0000000000000194 .L0 
     /tmp/cc5r0kUy.s:280    .text:0000000000000198 .L0 
     /tmp/cc5r0kUy.s:283    .text:000000000000019c .L0 
     /tmp/cc5r0kUy.s:287    .text:00000000000001a0 .L0 
     /tmp/cc5r0kUy.s:290    .text:00000000000001a0 .L0 
     /tmp/cc5r0kUy.s:291    .text:00000000000001a0 .L0 
     /tmp/cc5r0kUy.s:297    .text:00000000000001a8 .L0 
     /tmp/cc5r0kUy.s:298    .text:00000000000001a8 .L0 
     /tmp/cc5r0kUy.s:300    .text:00000000000001ac .L0 
     /tmp/cc5r0kUy.s:303    .text:00000000000001b0 .L0 
     /tmp/cc5r0kUy.s:305    .text:00000000000001b4 .L0 
     /tmp/cc5r0kUy.s:307    .text:00000000000001b8 .L0 
     /tmp/cc5r0kUy.s:310    .text:00000000000001bc .L0 
     /tmp/cc5r0kUy.s:311    .text:00000000000001bc .L0 
     /tmp/cc5r0kUy.s:313    .text:00000000000001c0 .L0 
     /tmp/cc5r0kUy.s:314    .text:00000000000001c0 .L0 
     /tmp/cc5r0kUy.s:316    .text:00000000000001c4 .L0 
     /tmp/cc5r0kUy.s:317    .text:00000000000001c4 .L0 
     /tmp/cc5r0kUy.s:319    .text:00000000000001c8 .L0 
     /tmp/cc5r0kUy.s:321    .text:00000000000001cc .L0 
     /tmp/cc5r0kUy.s:322    .text:00000000000001cc .L0 
     /tmp/cc5r0kUy.s:326    .text:00000000000001d4 .L0 
     /tmp/cc5r0kUy.s:332    .text:00000000000001d4 _Z7dequeueP5queue
     /tmp/cc5r0kUy.s:335    .text:00000000000001d4 .L0 
     /tmp/cc5r0kUy.s:337    .text:00000000000001d4 .L0 
     /tmp/cc5r0kUy.s:338    .text:00000000000001d8 .L0 
     /tmp/cc5r0kUy.s:343    .text:00000000000001e8 .L0 
     /tmp/cc5r0kUy.s:344    .text:00000000000001e8 .L0 
     /tmp/cc5r0kUy.s:345    .text:00000000000001e8 .L0 
     /tmp/cc5r0kUy.s:346    .text:00000000000001e8 .L0 
     /tmp/cc5r0kUy.s:348    .text:00000000000001ec .L0 
     /tmp/cc5r0kUy.s:352    .text:00000000000001f0 .L0 
     /tmp/cc5r0kUy.s:353    .text:00000000000001f0 .L0 
     /tmp/cc5r0kUy.s:356    .text:00000000000001f8 .L0 
     /tmp/cc5r0kUy.s:359    .text:00000000000001fc .L0 
     /tmp/cc5r0kUy.s:360    .text:00000000000001fc .L0 
     /tmp/cc5r0kUy.s:363    .text:0000000000000200 .L0 
     /tmp/cc5r0kUy.s:364    .text:0000000000000200 .L0 
     /tmp/cc5r0kUy.s:367    .text:0000000000000204 .L0 
     /tmp/cc5r0kUy.s:368    .text:0000000000000204 .L0 
     /tmp/cc5r0kUy.s:370    .text:0000000000000208 .L0 
     /tmp/cc5r0kUy.s:372    .text:000000000000020c .L0 
     /tmp/cc5r0kUy.s:373    .text:000000000000020c .L0 
GAS LISTING /tmp/cc5r0kUy.s 			page 13


     /tmp/cc5r0kUy.s:376    .text:0000000000000214 .L0 
     /tmp/cc5r0kUy.s:377    .text:0000000000000214 .L0 
     /tmp/cc5r0kUy.s:379    .text:0000000000000218 .L0 
     /tmp/cc5r0kUy.s:386    .text:0000000000000220 .L0 
     /tmp/cc5r0kUy.s:387    .text:0000000000000220 .L0 
     /tmp/cc5r0kUy.s:389    .text:0000000000000228 .L0 
     /tmp/cc5r0kUy.s:390    .text:0000000000000228 .L0 
     /tmp/cc5r0kUy.s:392    .text:000000000000022c .L0 
     /tmp/cc5r0kUy.s:393    .text:000000000000022c .L0 
     /tmp/cc5r0kUy.s:395    .text:0000000000000230 .L0 
     /tmp/cc5r0kUy.s:398    .text:0000000000000234 .L0 
     /tmp/cc5r0kUy.s:400    .text:0000000000000238 .L0 
     /tmp/cc5r0kUy.s:404    .text:000000000000023c .L0 
     /tmp/cc5r0kUy.s:407    .text:000000000000023c .L0 
     /tmp/cc5r0kUy.s:410    .text:0000000000000244 .L0 
     /tmp/cc5r0kUy.s:417    .text:0000000000000244 .L0 
     /tmp/cc5r0kUy.s:165    .text:00000000000000e4 .L6
     /tmp/cc5r0kUy.s:138    .text:00000000000000bc .L7
     /tmp/cc5r0kUy.s:242    .text:0000000000000160 .L10
     /tmp/cc5r0kUy.s:293    .text:00000000000001a8 .L11
     /tmp/cc5r0kUy.s:286    .text:00000000000001a0 .L15
     /tmp/cc5r0kUy.s:256    .text:0000000000000174 .L12
     /tmp/cc5r0kUy.s:308    .text:00000000000001bc .L13
     /tmp/cc5r0kUy.s:403    .text:000000000000023c .L18
     /tmp/cc5r0kUy.s:383    .text:0000000000000220 .L16
     /tmp/cc5r0kUy.s:981    .debug_abbrev:0000000000000000 .Ldebug_abbrev0
     /tmp/cc5r0kUy.s:1748   .debug_str:0000000000000164 .LASF47
     /tmp/cc5r0kUy.s:1728   .debug_str:00000000000000d7 .LASF48
     /tmp/cc5r0kUy.s:1726   .debug_str:00000000000000b7 .LASF49
     /tmp/cc5r0kUy.s:5      .text:0000000000000000 .Ltext0
     /tmp/cc5r0kUy.s:413    .text:0000000000000244 .Letext0
     /tmp/cc5r0kUy.s:1698   .debug_line:0000000000000000 .Ldebug_line0
     /tmp/cc5r0kUy.s:1756   .debug_str:0000000000000256 .LASF0
     /tmp/cc5r0kUy.s:1742   .debug_str:000000000000013f .LASF1
     /tmp/cc5r0kUy.s:1736   .debug_str:000000000000011a .LASF2
     /tmp/cc5r0kUy.s:1712   .debug_str:0000000000000060 .LASF4
     /tmp/cc5r0kUy.s:1738   .debug_str:0000000000000128 .LASF3
     /tmp/cc5r0kUy.s:1704   .debug_str:0000000000000023 .LASF5
     /tmp/cc5r0kUy.s:1700   .debug_str:0000000000000000 .LASF6
     /tmp/cc5r0kUy.s:1780   .debug_str:00000000000002ea .LASF7
     /tmp/cc5r0kUy.s:1764   .debug_str:000000000000027d .LASF8
     /tmp/cc5r0kUy.s:1710   .debug_str:0000000000000052 .LASF9
     /tmp/cc5r0kUy.s:1806   .debug_str:00000000000003b1 .LASF10
     /tmp/cc5r0kUy.s:1732   .debug_str:00000000000000ea .LASF11
     /tmp/cc5r0kUy.s:1792   .debug_str:000000000000034b .LASF12
     /tmp/cc5r0kUy.s:1770   .debug_str:00000000000002b5 .LASF13
     /tmp/cc5r0kUy.s:1744   .debug_str:0000000000000152 .LASF14
     /tmp/cc5r0kUy.s:1720   .debug_str:0000000000000081 .LASF15
     /tmp/cc5r0kUy.s:1766   .debug_str:000000000000028d .LASF16
     /tmp/cc5r0kUy.s:1796   .debug_str:0000000000000386 .LASF26
     /tmp/cc5r0kUy.s:1802   .debug_str:00000000000003a7 .LASF17
     /tmp/cc5r0kUy.s:1706   .debug_str:000000000000002a .LASF18
     /tmp/cc5r0kUy.s:1804   .debug_str:00000000000003ac .LASF19
     /tmp/cc5r0kUy.s:1702   .debug_str:0000000000000013 .LASF50
     /tmp/cc5r0kUy.s:1758   .debug_str:0000000000000263 .LASF51
     /tmp/cc5r0kUy.s:1798   .debug_str:000000000000038b .LASF20
     /tmp/cc5r0kUy.s:1786   .debug_str:000000000000030b .LASF22
GAS LISTING /tmp/cc5r0kUy.s 			page 14


     /tmp/cc5r0kUy.s:1772   .debug_str:00000000000002c5 .LASF21
     /tmp/cc5r0kUy.s:1734   .debug_str:00000000000000f9 .LASF23
     /tmp/cc5r0kUy.s:1754   .debug_str:0000000000000243 .LASF24
     /tmp/cc5r0kUy.s:1794   .debug_str:000000000000035b .LASF25
     /tmp/cc5r0kUy.s:1718   .debug_str:0000000000000076 .LASF52
     /tmp/cc5r0kUy.s:1708   .debug_str:000000000000002f .LASF53
     /tmp/cc5r0kUy.s:1784   .debug_str:0000000000000306 .LASF27
     /tmp/cc5r0kUy.s:1730   .debug_str:00000000000000e5 .LASF28
     /tmp/cc5r0kUy.s:1722   .debug_str:0000000000000097 .LASF29
     /tmp/cc5r0kUy.s:1746   .debug_str:000000000000015e .LASF30
     /tmp/cc5r0kUy.s:1762   .debug_str:0000000000000278 .LASF31
     /tmp/cc5r0kUy.s:1788   .debug_str:000000000000032c .LASF40
     /tmp/cc5r0kUy.s:1768   .debug_str:00000000000002a3 .LASF42
     /tmp/cc5r0kUy.s:333    .text:00000000000001d4 .LFB4
     /tmp/cc5r0kUy.s:411    .text:0000000000000244 .LFE4
     /tmp/cc5r0kUy.s:1471   .debug_loc:0000000000000000 .LLST12
     /tmp/cc5r0kUy.s:357    .text:00000000000001fc .LBB6
     /tmp/cc5r0kUy.s:384    .text:0000000000000220 .LBE6
     /tmp/cc5r0kUy.s:1740   .debug_str:000000000000013a .LASF32
     /tmp/cc5r0kUy.s:1493   .debug_loc:000000000000005f .LLST13
     /tmp/cc5r0kUy.s:1500   .debug_loc:0000000000000082 .LLST14
     /tmp/cc5r0kUy.s:374    .text:0000000000000214 .LVL32
     /tmp/cc5r0kUy.s:354    .text:00000000000001f8 .LVL29
     /tmp/cc5r0kUy.s:1716   .debug_str:000000000000006c .LASF36
     /tmp/cc5r0kUy.s:1724   .debug_str:000000000000009d .LASF38
     /tmp/cc5r0kUy.s:183    .text:00000000000000f4 .LFB3
     /tmp/cc5r0kUy.s:327    .text:00000000000001d4 .LFE3
     /tmp/cc5r0kUy.s:1507   .debug_loc:00000000000000a5 .LLST6
     /tmp/cc5r0kUy.s:1529   .debug_loc:0000000000000104 .LLST7
     /tmp/cc5r0kUy.s:1774   .debug_str:00000000000002ce .LASF33
     /tmp/cc5r0kUy.s:1551   .debug_loc:0000000000000163 .LLST8
     /tmp/cc5r0kUy.s:1565   .debug_loc:000000000000019c .LLST9
     /tmp/cc5r0kUy.s:1782   .debug_str:00000000000002fd .LASF34
     /tmp/cc5r0kUy.s:1572   .debug_loc:00000000000001bf .LLST10
     /tmp/cc5r0kUy.s:295    .text:00000000000001a8 .LBB3
     /tmp/cc5r0kUy.s:324    .text:00000000000001d4 .LBE3
     /tmp/cc5r0kUy.s:1752   .debug_str:000000000000023b .LASF35
     /tmp/cc5r0kUy.s:1587   .debug_loc:0000000000000208 .LLST11
     /tmp/cc5r0kUy.s:211    .text:000000000000012c .LVL17
     /tmp/cc5r0kUy.s:215    .text:0000000000000134 .LVL18
     /tmp/cc5r0kUy.s:233    .text:0000000000000150 .LVL21
     /tmp/cc5r0kUy.s:1778   .debug_str:00000000000002e2 .LASF37
     /tmp/cc5r0kUy.s:1790   .debug_str:0000000000000334 .LASF39
     /tmp/cc5r0kUy.s:86     .text:0000000000000060 .LFB2
     /tmp/cc5r0kUy.s:177    .text:00000000000000f4 .LFE2
     /tmp/cc5r0kUy.s:1598   .debug_loc:000000000000023e .LLST2
     /tmp/cc5r0kUy.s:1620   .debug_loc:000000000000029d .LLST3
     /tmp/cc5r0kUy.s:1642   .debug_loc:00000000000002fc .LLST4
     /tmp/cc5r0kUy.s:1649   .debug_loc:000000000000031f .LLST5
     /tmp/cc5r0kUy.s:111    .text:0000000000000090 .LVL6
     /tmp/cc5r0kUy.s:115    .text:0000000000000098 .LVL7
     /tmp/cc5r0kUy.s:129    .text:00000000000000b0 .LVL10
     /tmp/cc5r0kUy.s:1760   .debug_str:000000000000026f .LASF41
     /tmp/cc5r0kUy.s:1750   .debug_str:0000000000000228 .LASF43
     /tmp/cc5r0kUy.s:57     .text:0000000000000040 .LFB1
     /tmp/cc5r0kUy.s:80     .text:0000000000000060 .LFE1
     /tmp/cc5r0kUy.s:1664   .debug_loc:0000000000000368 .LLST1
GAS LISTING /tmp/cc5r0kUy.s 			page 15


     /tmp/cc5r0kUy.s:1714   .debug_str:0000000000000067 .LASF44
     /tmp/cc5r0kUy.s:1776   .debug_str:00000000000002d5 .LASF45
     /tmp/cc5r0kUy.s:1800   .debug_str:0000000000000395 .LASF46
     /tmp/cc5r0kUy.s:10     .text:0000000000000000 .LFB0
     /tmp/cc5r0kUy.s:51     .text:0000000000000040 .LFE0
     /tmp/cc5r0kUy.s:1678   .debug_loc:00000000000003a1 .LLST0
     /tmp/cc5r0kUy.s:26     .text:000000000000001c .LVL0
     /tmp/cc5r0kUy.s:30     .text:0000000000000024 .LVL1
     /tmp/cc5r0kUy.s:336    .text:00000000000001d4 .LVL28
     /tmp/cc5r0kUy.s:396    .text:0000000000000230 .LVL34
     /tmp/cc5r0kUy.s:402    .text:000000000000023c .LVL35
     /tmp/cc5r0kUy.s:361    .text:0000000000000200 .LVL30
     /tmp/cc5r0kUy.s:365    .text:0000000000000204 .LVL31
     /tmp/cc5r0kUy.s:382    .text:0000000000000220 .LVL33
     /tmp/cc5r0kUy.s:186    .text:00000000000000f4 .LVL15
     /tmp/cc5r0kUy.s:209    .text:0000000000000124 .LVL16
     /tmp/cc5r0kUy.s:273    .text:000000000000018c .LVL22
     /tmp/cc5r0kUy.s:285    .text:00000000000001a0 .LVL25
     /tmp/cc5r0kUy.s:281    .text:0000000000000198 .LVL24
     /tmp/cc5r0kUy.s:217    .text:0000000000000138 .LVL19
     /tmp/cc5r0kUy.s:231    .text:0000000000000148 .LVL20
     /tmp/cc5r0kUy.s:276    .text:0000000000000190 .LVL23
     /tmp/cc5r0kUy.s:294    .text:00000000000001a8 .LVL26
     /tmp/cc5r0kUy.s:301    .text:00000000000001b0 .LVL27
     /tmp/cc5r0kUy.s:89     .text:0000000000000060 .LVL4
     /tmp/cc5r0kUy.s:109    .text:0000000000000088 .LVL5
     /tmp/cc5r0kUy.s:154    .text:00000000000000d4 .LVL11
     /tmp/cc5r0kUy.s:164    .text:00000000000000e4 .LVL14
     /tmp/cc5r0kUy.s:160    .text:00000000000000dc .LVL13
     /tmp/cc5r0kUy.s:117    .text:000000000000009c .LVL8
     /tmp/cc5r0kUy.s:127    .text:00000000000000a8 .LVL9
     /tmp/cc5r0kUy.s:157    .text:00000000000000d8 .LVL12
     /tmp/cc5r0kUy.s:60     .text:0000000000000040 .LVL2
     /tmp/cc5r0kUy.s:70     .text:0000000000000050 .LVL3
     /tmp/cc5r0kUy.s:418    .debug_info:0000000000000000 .Ldebug_info0

UNDEFINED SYMBOLS
_ZN15MemoryAllocator18transferToNumBlockEm
_ZN15MemoryAllocator9mem_allocEm
_ZN15MemoryAllocator8mem_freeEPv
