GAS LISTING /tmp/ccHEknBN.s 			page 1


   1              		.file	"scheduler.cpp"
   2              		.option pic
   3              		.option norelax
   4              		.text
   5              	.Ltext0:
   6              		.align	2
   7              		.globl	_ZN9Scheduler3getEv
   9              	_ZN9Scheduler3getEv:
  10              	.LFB0:
  11              		.file 1 "src/scheduler.cpp"
   1:src/scheduler.cpp **** #include "../h/scheduler.hpp"
   2:src/scheduler.cpp **** queue* Scheduler::readyCoroutineQueue;
   3:src/scheduler.cpp **** TCB *Scheduler::get()
   4:src/scheduler.cpp **** {
  12              		.loc 1 4 1
  13              		.cfi_startproc
  14 0000 130101FF 		addi	sp,sp,-16
  15              		.cfi_def_cfa_offset 16
  16 0004 23341100 		sd	ra,8(sp)
  17 0008 23308100 		sd	s0,0(sp)
  18              		.cfi_offset 1, -8
  19              		.cfi_offset 8, -16
  20 000c 13040101 		addi	s0,sp,16
  21              		.cfi_def_cfa 8, 0
   5:src/scheduler.cpp ****     return dequeue(readyCoroutineQueue);
  22              		.loc 1 5 5
  23              		.loc 1 5 19 is_stmt 0
  24 0010 17050000 		ld	a0,.LANCHOR0
  24      03350500 
  25 0018 97000000 		call	_Z7dequeueP5queue@plt
  25      E7800000 
  26              	.LVL0:
   6:src/scheduler.cpp **** }
  27              		.loc 1 6 1
  28 0020 83308100 		ld	ra,8(sp)
  29              		.cfi_restore 1
  30 0024 03340100 		ld	s0,0(sp)
  31              		.cfi_restore 8
  32              		.cfi_def_cfa 2, 16
  33 0028 13010101 		addi	sp,sp,16
  34              		.cfi_def_cfa_offset 0
  35 002c 67800000 		jr	ra
  36              		.cfi_endproc
  37              	.LFE0:
  39              		.align	2
  40              		.globl	_ZN9Scheduler3putEP3TCB
  42              	_ZN9Scheduler3putEP3TCB:
  43              	.LFB1:
   7:src/scheduler.cpp **** 
   8:src/scheduler.cpp **** void Scheduler::put(TCB *tcb)
   9:src/scheduler.cpp **** {
  44              		.loc 1 9 1 is_stmt 1
  45              		.cfi_startproc
  46              	.LVL1:
  47 0030 130101FE 		addi	sp,sp,-32
  48              		.cfi_def_cfa_offset 32
  49 0034 233C1100 		sd	ra,24(sp)
GAS LISTING /tmp/ccHEknBN.s 			page 2


  50 0038 23388100 		sd	s0,16(sp)
  51 003c 23349100 		sd	s1,8(sp)
  52              		.cfi_offset 1, -8
  53              		.cfi_offset 8, -16
  54              		.cfi_offset 9, -24
  55 0040 13040102 		addi	s0,sp,32
  56              		.cfi_def_cfa 8, 0
  57 0044 93040500 		mv	s1,a0
  10:src/scheduler.cpp ****     static int s=1;
  58              		.loc 1 10 5
  11:src/scheduler.cpp ****     if(s==1){
  59              		.loc 1 11 5
  60              		.loc 1 11 9 is_stmt 0
  61 0048 17070000 		lw	a4,.LANCHOR1
  61      03270700 
  62              		.loc 1 11 5
  63 0050 93071000 		li	a5,1
  64 0054 6306F702 		beq	a4,a5,.L6
  65              	.LVL2:
  66              	.L4:
  12:src/scheduler.cpp ****         s=0;
  13:src/scheduler.cpp ****         readyCoroutineQueue = create_queue();
  14:src/scheduler.cpp ****     }
  15:src/scheduler.cpp ****     enqueue(readyCoroutineQueue, tcb);
  67              		.loc 1 15 5 is_stmt 1
  68              		.loc 1 15 12 is_stmt 0
  69 0058 93850400 		mv	a1,s1
  70 005c 17050000 		ld	a0,.LANCHOR0
  70      03350500 
  71 0064 97000000 		call	_Z7enqueueP5queueP3TCB@plt
  71      E7800000 
  72              	.LVL3:
  16:src/scheduler.cpp **** }
  73              		.loc 1 16 1
  74 006c 83308101 		ld	ra,24(sp)
  75              		.cfi_remember_state
  76              		.cfi_restore 1
  77 0070 03340101 		ld	s0,16(sp)
  78              		.cfi_restore 8
  79              		.cfi_def_cfa 2, 32
  80 0074 83348100 		ld	s1,8(sp)
  81              		.cfi_restore 9
  82              	.LVL4:
  83 0078 13010102 		addi	sp,sp,32
  84              		.cfi_def_cfa_offset 0
  85 007c 67800000 		jr	ra
  86              	.LVL5:
  87              	.L6:
  88              		.cfi_restore_state
  12:src/scheduler.cpp ****         s=0;
  89              		.loc 1 12 9 is_stmt 1
  12:src/scheduler.cpp ****         s=0;
  90              		.loc 1 12 10 is_stmt 0
  91 0080 97070000 		sw	zero,.LANCHOR1,a5
  91      23A00700 
  13:src/scheduler.cpp ****     }
  92              		.loc 1 13 9 is_stmt 1
GAS LISTING /tmp/ccHEknBN.s 			page 3


  13:src/scheduler.cpp ****     }
  93              		.loc 1 13 43 is_stmt 0
  94 0088 97000000 		call	_Z12create_queuev@plt
  94      E7800000 
  95              	.LVL6:
  13:src/scheduler.cpp ****     }
  96              		.loc 1 13 29
  97 0090 97070000 		sd	a0,.LANCHOR0,a5
  97      23B0A700 
  98 0098 6FF01FFC 		j	.L4
  99              		.cfi_endproc
 100              	.LFE1:
 102              		.globl	_ZN9Scheduler19readyCoroutineQueueE
 103              		.data
 104              		.align	2
 105              		.set	.LANCHOR1,. + 0
 108              	_ZZN9Scheduler3putEP3TCBE1s:
 109 0000 01000000 		.word	1
 110              		.bss
 111              		.align	3
 112              		.set	.LANCHOR0,. + 0
 115              	_ZN9Scheduler19readyCoroutineQueueE:
 116 0000 00000000 		.zero	8
 116      00000000 
 117              		.text
 118              	.Letext0:
 119              		.file 2 "src/../h/../lib/hw.h"
 120              		.file 3 "src/../h/queue.hpp"
 121              		.file 4 "src/../h/scheduler.hpp"
GAS LISTING /tmp/ccHEknBN.s 			page 4

