GAS LISTING /tmp/ccWLfqHe.s 			page 1


   1              		.file	"sem.cpp"
   2              		.option pic
   3              		.option norelax
   4              		.text
   5              	.Ltext0:
   6              		.align	2
   7              		.globl	_ZN3Sem7semOpenEi
   9              	_ZN3Sem7semOpenEi:
  10              	.LFB20:
  11              		.file 1 "src/sem.cpp"
   1:src/sem.cpp   **** #include "../h/sem.hpp"
   2:src/sem.cpp   **** #include "../test/printing.hpp"
   3:src/sem.cpp   **** 
   4:src/sem.cpp   **** Sem* Sem::semOpen(int i){
  12              		.loc 1 4 25
  13              		.cfi_startproc
  14              		.cfi_personality 0x9b,DW.ref.__gxx_personality_v0
  15              		.cfi_lsda 0x1b,.LLSDA20
  16              	.LVL0:
  17 0000 130101FE 		addi	sp,sp,-32
  18              		.cfi_def_cfa_offset 32
  19 0004 233C1100 		sd	ra,24(sp)
  20 0008 23388100 		sd	s0,16(sp)
  21 000c 23349100 		sd	s1,8(sp)
  22 0010 23302101 		sd	s2,0(sp)
  23              		.cfi_offset 1, -8
  24              		.cfi_offset 8, -16
  25              		.cfi_offset 9, -24
  26              		.cfi_offset 18, -32
  27 0014 13040102 		addi	s0,sp,32
  28              		.cfi_def_cfa 8, 0
  29 0018 13090500 		mv	s2,a0
   5:src/sem.cpp   ****     return (Sem*) new Sem((int)i);
  30              		.loc 1 5 5
  31              		.loc 1 5 33 is_stmt 0
  32 001c 13050001 		li	a0,16
  33              	.LVL1:
  34              	.LEHB0:
  35 0020 97000000 		call	_Znwm@plt
  35      E7800000 
  36              	.LVL2:
  37              	.LEHE0:
  38 0028 93040500 		mv	s1,a0
  39              	.LVL3:
  40              	.LBB14:
  41              	.LBB15:
  42              		.file 2 "src/../h/sem.hpp"
   1:src/../h/sem.hpp **** #ifndef sem_hpp
   2:src/../h/sem.hpp **** #define sem_hpp
   3:src/../h/sem.hpp **** 
   4:src/../h/sem.hpp **** #include"queue.hpp"
   5:src/../h/sem.hpp **** #include "tcb.hpp"
   6:src/../h/sem.hpp **** class Sem
   7:src/../h/sem.hpp **** {
   8:src/../h/sem.hpp **** public:
   9:src/../h/sem.hpp ****     Sem(int init=1):val(init),closed(false){
  43              		.loc 2 9 43
GAS LISTING /tmp/ccWLfqHe.s 			page 2


  44 002c 23202501 		sw	s2,0(a0)
  45 0030 23020500 		sb	zero,4(a0)
  10:src/../h/sem.hpp ****         blocked = create_queue();
  46              		.loc 2 10 9 is_stmt 1
  47              	.LEHB1:
  48              		.loc 2 10 31 is_stmt 0
  49 0034 97000000 		call	_Z12create_queuev@plt
  49      E7800000 
  50              	.LVL4:
  51              	.LEHE1:
  52 003c 6F000002 		j	.L7
  53              	.L3:
  54 0040 13090500 		mv	s2,a0
  55              	.LVL5:
  56              	.LBE15:
  57              	.LBE14:
  58              		.loc 1 5 33
  59 0044 13850400 		mv	a0,s1
  60 0048 97000000 		call	_ZdlPv@plt
  60      E7800000 
  61              	.LVL6:
  62 0050 13050900 		mv	a0,s2
  63              	.LEHB2:
  64 0054 97000000 		call	_Unwind_Resume@plt
  64      E7800000 
  65              	.LVL7:
  66              	.LEHE2:
  67              	.L7:
  68              	.LBB17:
  69              	.LBB16:
  70              		.loc 2 10 17
  71 005c 23B4A400 		sd	a0,8(s1)
  72              	.LVL8:
  73              	.LBE16:
  74              	.LBE17:
   6:src/sem.cpp   **** }
  75              		.loc 1 6 1
  76 0060 13850400 		mv	a0,s1
  77 0064 83308101 		ld	ra,24(sp)
  78              		.cfi_restore 1
  79 0068 03340101 		ld	s0,16(sp)
  80              		.cfi_restore 8
  81              		.cfi_def_cfa 2, 32
  82 006c 83348100 		ld	s1,8(sp)
  83              		.cfi_restore 9
  84 0070 03390100 		ld	s2,0(sp)
  85              		.cfi_restore 18
  86 0074 13010102 		addi	sp,sp,32
  87              		.cfi_def_cfa_offset 0
  88 0078 67800000 		jr	ra
  89              		.cfi_endproc
  90              	.LFE20:
  91              		.globl	__gxx_personality_v0
  92              		.section	.gcc_except_table,"a",@progbits
  93              	.LLSDA20:
  94 0000 FF       		.byte	0xff
  95 0001 FF       		.byte	0xff
GAS LISTING /tmp/ccWLfqHe.s 			page 3


  96 0002 03       		.byte	0x3
  97 0003 27       		.byte	0x27
  98 0004 00000000 		.4byte	.LEHB0-.LFB20
  99 0008 00000000 		.4byte	.LEHE0-.LEHB0
 100 000c 00000000 		.4byte	0
 101 0010 00       		.byte	0
 102 0011 00000000 		.4byte	.LEHB1-.LFB20
 103 0015 00000000 		.4byte	.LEHE1-.LEHB1
 104 0019 00000000 		.4byte	.L3-.LFB20
 105 001d 00       		.byte	0
 106 001e 00000000 		.4byte	.LEHB2-.LFB20
 107 0022 00000000 		.4byte	.LEHE2-.LEHB2
 108 0026 00000000 		.4byte	0
 109 002a 00       		.byte	0
 110              		.text
 112              		.align	2
 113              		.globl	_ZN3Sem8semCloseEv
 115              	_ZN3Sem8semCloseEv:
 116              	.LFB21:
   7:src/sem.cpp   **** int Sem::semClose(){
 117              		.loc 1 7 20 is_stmt 1
 118              		.cfi_startproc
 119              	.LVL9:
 120 007c 130101FE 		addi	sp,sp,-32
 121              		.cfi_def_cfa_offset 32
 122 0080 233C1100 		sd	ra,24(sp)
 123 0084 23388100 		sd	s0,16(sp)
 124 0088 23349100 		sd	s1,8(sp)
 125              		.cfi_offset 1, -8
 126              		.cfi_offset 8, -16
 127              		.cfi_offset 9, -24
 128 008c 13040102 		addi	s0,sp,32
 129              		.cfi_def_cfa 8, 0
 130 0090 93040500 		mv	s1,a0
   8:src/sem.cpp   ****     closed=true;
 131              		.loc 1 8 5
 132              		.loc 1 8 11 is_stmt 0
 133 0094 93071000 		li	a5,1
 134 0098 2302F500 		sb	a5,4(a0)
 135              	.LVL10:
 136              	.L10:
   9:src/sem.cpp   ****     while(!is_empty(blocked)){
 137              		.loc 1 9 5 is_stmt 1
 138              		.loc 1 9 11
 139              		.loc 1 9 20 is_stmt 0
 140 009c 03B58400 		ld	a0,8(s1)
 141 00a0 97000000 		call	_Z8is_emptyP5queue@plt
 141      E7800000 
 142              	.LVL11:
 143              		.loc 1 9 11
 144 00a8 63100502 		bnez	a0,.L9
 145              	.LBB18:
  10:src/sem.cpp   ****         TCB* t = dequeue(blocked);
 146              		.loc 1 10 9 is_stmt 1
 147              		.loc 1 10 25 is_stmt 0
 148 00ac 03B58400 		ld	a0,8(s1)
 149 00b0 97000000 		call	_Z7dequeueP5queue@plt
GAS LISTING /tmp/ccWLfqHe.s 			page 4


 149      E7800000 
 150              	.LVL12:
  11:src/sem.cpp   ****         t->setBlocked(false);
 151              		.loc 1 11 9 is_stmt 1
 152              	.LBB19:
 153              	.LBB20:
 154              		.file 3 "src/../h/tcb.hpp"
   1:src/../h/tcb.hpp **** #ifndef tcb_hpp
   2:src/../h/tcb.hpp **** #define tcb_hpp
   3:src/../h/tcb.hpp **** 
   4:src/../h/tcb.hpp **** #include "scheduler.hpp"
   5:src/../h/tcb.hpp **** #include "../lib/hw.h"
   6:src/../h/tcb.hpp **** #include "syscall_cpp.hpp"
   7:src/../h/tcb.hpp **** class Semaphore;
   8:src/../h/tcb.hpp **** class TCB
   9:src/../h/tcb.hpp **** {
  10:src/../h/tcb.hpp **** public:
  11:src/../h/tcb.hpp ****     ~TCB() { delete[] stack; }
  12:src/../h/tcb.hpp **** 
  13:src/../h/tcb.hpp ****     bool isFinished() const { return finished; }
  14:src/../h/tcb.hpp **** 
  15:src/../h/tcb.hpp ****     void setFinished(bool value) { finished = value; }
  16:src/../h/tcb.hpp **** 
  17:src/../h/tcb.hpp ****     bool isSemClosed() const { return sem_closed; }
  18:src/../h/tcb.hpp **** 
  19:src/../h/tcb.hpp ****     void setSemClosed(bool semClosed) { sem_closed = semClosed;}
  20:src/../h/tcb.hpp **** 
  21:src/../h/tcb.hpp ****     uint64 getMemBlockCnt() {return numOfBlocks;}
  22:src/../h/tcb.hpp **** 
  23:src/../h/tcb.hpp ****     bool isBlocked() const { return blocked; }
  24:src/../h/tcb.hpp **** 
  25:src/../h/tcb.hpp ****     void setBlocked(bool blocked) {TCB::blocked = blocked;}
 155              		.loc 3 25 36
 156              		.loc 3 25 49 is_stmt 0
 157 00b8 23090502 		sb	zero,50(a0)
 158              	.LVL13:
 159              	.LBE20:
 160              	.LBE19:
  12:src/sem.cpp   ****         Scheduler::put(t);
 161              		.loc 1 12 9 is_stmt 1
 162              		.loc 1 12 23 is_stmt 0
 163 00bc 97000000 		call	_ZN9Scheduler3putEP3TCB@plt
 163      E7800000 
 164              	.LVL14:
 165              	.LBE18:
   9:src/sem.cpp   ****         TCB* t = dequeue(blocked);
 166              		.loc 1 9 5
 167 00c4 6FF09FFD 		j	.L10
 168              	.L9:
  13:src/sem.cpp   **** 
  14:src/sem.cpp   ****     }
  15:src/sem.cpp   ****     return 0;
 169              		.loc 1 15 5 is_stmt 1
  16:src/sem.cpp   **** }
 170              		.loc 1 16 1 is_stmt 0
 171 00c8 13050000 		li	a0,0
 172 00cc 83308101 		ld	ra,24(sp)
GAS LISTING /tmp/ccWLfqHe.s 			page 5


 173              		.cfi_restore 1
 174 00d0 03340101 		ld	s0,16(sp)
 175              		.cfi_restore 8
 176              		.cfi_def_cfa 2, 32
 177 00d4 83348100 		ld	s1,8(sp)
 178              		.cfi_restore 9
 179              	.LVL15:
 180 00d8 13010102 		addi	sp,sp,32
 181              		.cfi_def_cfa_offset 0
 182 00dc 67800000 		jr	ra
 183              		.cfi_endproc
 184              	.LFE21:
 186              		.align	2
 187              		.globl	_ZN3Sem5blockEv
 189              	_ZN3Sem5blockEv:
 190              	.LFB22:
  17:src/sem.cpp   **** void Sem::block(){
 191              		.loc 1 17 18 is_stmt 1
 192              		.cfi_startproc
 193              	.LVL16:
 194 00e0 130101FF 		addi	sp,sp,-16
 195              		.cfi_def_cfa_offset 16
 196 00e4 23341100 		sd	ra,8(sp)
 197 00e8 23308100 		sd	s0,0(sp)
 198              		.cfi_offset 1, -8
 199              		.cfi_offset 8, -16
 200 00ec 13040101 		addi	s0,sp,16
 201              		.cfi_def_cfa 8, 0
  18:src/sem.cpp   ****     TCB* old = TCB::running;
 202              		.loc 1 18 5
 203              		.loc 1 18 10 is_stmt 0
 204 00f0 97070000 		la	a5,_ZN3TCB7runningE
 204      83B70700 
 205 00f8 83B50700 		ld	a1,0(a5)
 206              	.LVL17:
  19:src/sem.cpp   ****     old->setBlocked(true);
 207              		.loc 1 19 5 is_stmt 1
 208              	.LBB21:
 209              	.LBB22:
 210              		.loc 3 25 36
 211              		.loc 3 25 49 is_stmt 0
 212 00fc 93071000 		li	a5,1
 213 0100 2389F502 		sb	a5,50(a1)
 214              	.LVL18:
 215              	.LBE22:
 216              	.LBE21:
  20:src/sem.cpp   ****     enqueue(blocked, old);
 217              		.loc 1 20 5 is_stmt 1
 218              		.loc 1 20 12 is_stmt 0
 219 0104 03358500 		ld	a0,8(a0)
 220              	.LVL19:
 221 0108 97000000 		call	_Z7enqueueP5queueP3TCB@plt
 221      E7800000 
 222              	.LVL20:
  21:src/sem.cpp   ****     TCB::dispatch();
 223              		.loc 1 21 5 is_stmt 1
 224              		.loc 1 21 18 is_stmt 0
GAS LISTING /tmp/ccWLfqHe.s 			page 6


 225 0110 97000000 		call	_ZN3TCB8dispatchEv@plt
 225      E7800000 
 226              	.LVL21:
  22:src/sem.cpp   **** }
 227              		.loc 1 22 1
 228 0118 83308100 		ld	ra,8(sp)
 229              		.cfi_restore 1
 230 011c 03340100 		ld	s0,0(sp)
 231              		.cfi_restore 8
 232              		.cfi_def_cfa 2, 16
 233 0120 13010101 		addi	sp,sp,16
 234              		.cfi_def_cfa_offset 0
 235 0124 67800000 		jr	ra
 236              		.cfi_endproc
 237              	.LFE22:
 239              		.align	2
 240              		.globl	_ZN3Sem11block_priorEi
 242              	_ZN3Sem11block_priorEi:
 243              	.LFB23:
  23:src/sem.cpp   **** 
  24:src/sem.cpp   **** void Sem::block_prior(int id) {
 244              		.loc 1 24 31 is_stmt 1
 245              		.cfi_startproc
 246              	.LVL22:
 247 0128 130101FF 		addi	sp,sp,-16
 248              		.cfi_def_cfa_offset 16
 249 012c 23341100 		sd	ra,8(sp)
 250 0130 23308100 		sd	s0,0(sp)
 251              		.cfi_offset 1, -8
 252              		.cfi_offset 8, -16
 253 0134 13040101 		addi	s0,sp,16
 254              		.cfi_def_cfa 8, 0
 255 0138 13860500 		mv	a2,a1
  25:src/sem.cpp   ****     TCB* old = TCB::running;
 256              		.loc 1 25 5
 257              		.loc 1 25 10 is_stmt 0
 258 013c 97070000 		la	a5,_ZN3TCB7runningE
 258      83B70700 
 259 0144 83B50700 		ld	a1,0(a5)
 260              	.LVL23:
  26:src/sem.cpp   ****     old->setBlocked(true);
 261              		.loc 1 26 5 is_stmt 1
 262              	.LBB23:
 263              	.LBB24:
 264              		.loc 3 25 36
 265              		.loc 3 25 49 is_stmt 0
 266 0148 13071000 		li	a4,1
 267 014c 2389E502 		sb	a4,50(a1)
 268              	.LVL24:
 269              	.LBE24:
 270              	.LBE23:
  27:src/sem.cpp   ****     enqueue_p(blocked, old, id);
 271              		.loc 1 27 5 is_stmt 1
 272              		.loc 1 27 14 is_stmt 0
 273 0150 03358500 		ld	a0,8(a0)
 274              	.LVL25:
 275 0154 97000000 		call	_Z9enqueue_pP5queueP3TCBi@plt
GAS LISTING /tmp/ccWLfqHe.s 			page 7


 275      E7800000 
 276              	.LVL26:
  28:src/sem.cpp   ****     TCB::dispatch();
 277              		.loc 1 28 5 is_stmt 1
 278              		.loc 1 28 18 is_stmt 0
 279 015c 97000000 		call	_ZN3TCB8dispatchEv@plt
 279      E7800000 
 280              	.LVL27:
  29:src/sem.cpp   **** }
 281              		.loc 1 29 1
 282 0164 83308100 		ld	ra,8(sp)
 283              		.cfi_restore 1
 284 0168 03340100 		ld	s0,0(sp)
 285              		.cfi_restore 8
 286              		.cfi_def_cfa 2, 16
 287 016c 13010101 		addi	sp,sp,16
 288              		.cfi_def_cfa_offset 0
 289 0170 67800000 		jr	ra
 290              		.cfi_endproc
 291              	.LFE23:
 293              		.align	2
 294              		.globl	_ZN3Sem7unblockEv
 296              	_ZN3Sem7unblockEv:
 297              	.LFB24:
  30:src/sem.cpp   **** 
  31:src/sem.cpp   **** void Sem::unblock(){
 298              		.loc 1 31 20 is_stmt 1
 299              		.cfi_startproc
 300              	.LVL28:
 301 0174 130101FF 		addi	sp,sp,-16
 302              		.cfi_def_cfa_offset 16
 303 0178 23341100 		sd	ra,8(sp)
 304 017c 23308100 		sd	s0,0(sp)
 305              		.cfi_offset 1, -8
 306              		.cfi_offset 8, -16
 307 0180 13040101 		addi	s0,sp,16
 308              		.cfi_def_cfa 8, 0
  32:src/sem.cpp   ****     TCB* t = dequeue(blocked);
 309              		.loc 1 32 5
 310              		.loc 1 32 21 is_stmt 0
 311 0184 03358500 		ld	a0,8(a0)
 312              	.LVL29:
 313 0188 97000000 		call	_Z7dequeueP5queue@plt
 313      E7800000 
 314              	.LVL30:
  33:src/sem.cpp   ****     t->setBlocked(false);
 315              		.loc 1 33 5 is_stmt 1
 316              	.LBB25:
 317              	.LBB26:
 318              		.loc 3 25 36
 319              		.loc 3 25 49 is_stmt 0
 320 0190 23090502 		sb	zero,50(a0)
 321              	.LVL31:
 322              	.LBE26:
 323              	.LBE25:
  34:src/sem.cpp   ****     Scheduler::put(t);
 324              		.loc 1 34 5 is_stmt 1
GAS LISTING /tmp/ccWLfqHe.s 			page 8


 325              		.loc 1 34 19 is_stmt 0
 326 0194 97000000 		call	_ZN9Scheduler3putEP3TCB@plt
 326      E7800000 
 327              	.LVL32:
  35:src/sem.cpp   **** }
 328              		.loc 1 35 1
 329 019c 83308100 		ld	ra,8(sp)
 330              		.cfi_restore 1
 331 01a0 03340100 		ld	s0,0(sp)
 332              		.cfi_restore 8
 333              		.cfi_def_cfa 2, 16
 334 01a4 13010101 		addi	sp,sp,16
 335              		.cfi_def_cfa_offset 0
 336 01a8 67800000 		jr	ra
 337              		.cfi_endproc
 338              	.LFE24:
 340              		.align	2
 341              		.globl	_ZN3Sem4waitEv
 343              	_ZN3Sem4waitEv:
 344              	.LFB25:
  36:src/sem.cpp   **** 
  37:src/sem.cpp   **** int Sem::wait(){
 345              		.loc 1 37 16 is_stmt 1
 346              		.cfi_startproc
 347              	.LVL33:
  38:src/sem.cpp   ****     if(closed)return -1;
 348              		.loc 1 38 5
 349              		.loc 1 38 8 is_stmt 0
 350 01ac 83474500 		lbu	a5,4(a0)
 351              		.loc 1 38 5
 352 01b0 63960704 		bnez	a5,.L20
  39:src/sem.cpp   **** 
  40:src/sem.cpp   ****     if(--val<0) {
 353              		.loc 1 40 5 is_stmt 1
 354              		.loc 1 40 10 is_stmt 0
 355 01b4 83270500 		lw	a5,0(a0)
 356              		.loc 1 40 8
 357 01b8 9B87F7FF 		addiw	a5,a5,-1
 358              		.loc 1 40 13
 359 01bc 2320F500 		sw	a5,0(a0)
 360              		.loc 1 40 5
 361 01c0 13970702 		slli	a4,a5,32
 362 01c4 63460700 		bltz	a4,.L26
  41:src/sem.cpp   ****         Sem::block();
  42:src/sem.cpp   ****     }
  43:src/sem.cpp   ****     return 0;
 363              		.loc 1 43 12
 364 01c8 13050000 		li	a0,0
 365              	.LVL34:
  44:src/sem.cpp   **** }
 366              		.loc 1 44 1
 367 01cc 67800000 		ret
 368              	.LVL35:
 369              	.L26:
  37:src/sem.cpp   ****     if(closed)return -1;
 370              		.loc 1 37 16
 371 01d0 130101FF 		addi	sp,sp,-16
GAS LISTING /tmp/ccWLfqHe.s 			page 9


 372              		.cfi_def_cfa_offset 16
 373 01d4 23341100 		sd	ra,8(sp)
 374 01d8 23308100 		sd	s0,0(sp)
 375              		.cfi_offset 1, -8
 376              		.cfi_offset 8, -16
 377 01dc 13040101 		addi	s0,sp,16
 378              		.cfi_def_cfa 8, 0
  41:src/sem.cpp   ****         Sem::block();
 379              		.loc 1 41 9 is_stmt 1
  41:src/sem.cpp   ****         Sem::block();
 380              		.loc 1 41 19 is_stmt 0
 381 01e0 97000000 		call	_ZN3Sem5blockEv
 381      E7800000 
 382              	.LVL36:
  43:src/sem.cpp   **** }
 383              		.loc 1 43 12
 384 01e8 13050000 		li	a0,0
 385              		.loc 1 44 1
 386 01ec 83308100 		ld	ra,8(sp)
 387              		.cfi_restore 1
 388 01f0 03340100 		ld	s0,0(sp)
 389              		.cfi_restore 8
 390              		.cfi_def_cfa 2, 16
 391 01f4 13010101 		addi	sp,sp,16
 392              		.cfi_def_cfa_offset 0
 393 01f8 67800000 		jr	ra
 394              	.LVL37:
 395              	.L20:
  38:src/sem.cpp   **** 
 396              		.loc 1 38 23
 397 01fc 1305F0FF 		li	a0,-1
 398              	.LVL38:
 399 0200 67800000 		ret
 400              		.cfi_endproc
 401              	.LFE25:
 403              		.align	2
 404              		.globl	_ZN3Sem10wait_priorEi
 406              	_ZN3Sem10wait_priorEi:
 407              	.LFB26:
  45:src/sem.cpp   **** 
  46:src/sem.cpp   **** int Sem::wait_prior(int id) {
 408              		.loc 1 46 29 is_stmt 1
 409              		.cfi_startproc
 410              	.LVL39:
  47:src/sem.cpp   ****     if(closed)return -1;
 411              		.loc 1 47 5
 412              		.loc 1 47 8 is_stmt 0
 413 0204 83474500 		lbu	a5,4(a0)
 414              		.loc 1 47 5
 415 0208 63960704 		bnez	a5,.L29
  48:src/sem.cpp   ****     if(--val<0){
 416              		.loc 1 48 5 is_stmt 1
 417              		.loc 1 48 10 is_stmt 0
 418 020c 83270500 		lw	a5,0(a0)
 419              		.loc 1 48 8
 420 0210 9B87F7FF 		addiw	a5,a5,-1
 421              		.loc 1 48 13
GAS LISTING /tmp/ccWLfqHe.s 			page 10


 422 0214 2320F500 		sw	a5,0(a0)
 423              		.loc 1 48 5
 424 0218 13970702 		slli	a4,a5,32
 425 021c 63460700 		bltz	a4,.L35
  49:src/sem.cpp   ****         Sem::block_prior(id);
  50:src/sem.cpp   ****     }
  51:src/sem.cpp   ****     return 0;
 426              		.loc 1 51 12
 427 0220 13050000 		li	a0,0
 428              	.LVL40:
  52:src/sem.cpp   **** }
 429              		.loc 1 52 1
 430 0224 67800000 		ret
 431              	.LVL41:
 432              	.L35:
  46:src/sem.cpp   ****     if(closed)return -1;
 433              		.loc 1 46 29
 434 0228 130101FF 		addi	sp,sp,-16
 435              		.cfi_def_cfa_offset 16
 436 022c 23341100 		sd	ra,8(sp)
 437 0230 23308100 		sd	s0,0(sp)
 438              		.cfi_offset 1, -8
 439              		.cfi_offset 8, -16
 440 0234 13040101 		addi	s0,sp,16
 441              		.cfi_def_cfa 8, 0
  49:src/sem.cpp   ****         Sem::block_prior(id);
 442              		.loc 1 49 9 is_stmt 1
  49:src/sem.cpp   ****         Sem::block_prior(id);
 443              		.loc 1 49 25 is_stmt 0
 444 0238 97000000 		call	_ZN3Sem11block_priorEi
 444      E7800000 
 445              	.LVL42:
  51:src/sem.cpp   **** }
 446              		.loc 1 51 12
 447 0240 13050000 		li	a0,0
 448              		.loc 1 52 1
 449 0244 83308100 		ld	ra,8(sp)
 450              		.cfi_restore 1
 451 0248 03340100 		ld	s0,0(sp)
 452              		.cfi_restore 8
 453              		.cfi_def_cfa 2, 16
 454 024c 13010101 		addi	sp,sp,16
 455              		.cfi_def_cfa_offset 0
 456 0250 67800000 		jr	ra
 457              	.LVL43:
 458              	.L29:
  47:src/sem.cpp   ****     if(--val<0){
 459              		.loc 1 47 23
 460 0254 1305F0FF 		li	a0,-1
 461              	.LVL44:
 462 0258 67800000 		ret
 463              		.cfi_endproc
 464              	.LFE26:
 466              		.align	2
 467              		.globl	_ZN3Sem8try_waitEv
 469              	_ZN3Sem8try_waitEv:
 470              	.LFB27:
GAS LISTING /tmp/ccWLfqHe.s 			page 11


  53:src/sem.cpp   **** int Sem::try_wait(){
 471              		.loc 1 53 20 is_stmt 1
 472              		.cfi_startproc
 473              	.LVL45:
 474 025c 130101FF 		addi	sp,sp,-16
 475              		.cfi_def_cfa_offset 16
 476 0260 23348100 		sd	s0,8(sp)
 477              		.cfi_offset 8, -8
 478 0264 13040101 		addi	s0,sp,16
 479              		.cfi_def_cfa 8, 0
  54:src/sem.cpp   ****     if(closed)return -1;
 480              		.loc 1 54 5
 481              		.loc 1 54 8 is_stmt 0
 482 0268 83474500 		lbu	a5,4(a0)
 483              		.loc 1 54 5
 484 026c 63980702 		bnez	a5,.L38
  55:src/sem.cpp   **** 
  56:src/sem.cpp   ****     if(--val<0) {
 485              		.loc 1 56 5 is_stmt 1
 486              		.loc 1 56 10 is_stmt 0
 487 0270 83270500 		lw	a5,0(a0)
 488              		.loc 1 56 8
 489 0274 9B87F7FF 		addiw	a5,a5,-1
 490              		.loc 1 56 13
 491 0278 2320F500 		sw	a5,0(a0)
 492              		.loc 1 56 5
 493 027c 13970702 		slli	a4,a5,32
 494 0280 634A0700 		bltz	a4,.L41
  57:src/sem.cpp   ****         return 0;
  58:src/sem.cpp   ****     }
  59:src/sem.cpp   ****     else{
  60:src/sem.cpp   ****         return 1;
 495              		.loc 1 60 16
 496 0284 13051000 		li	a0,1
 497              	.LVL46:
 498              	.L37:
  61:src/sem.cpp   ****     }
  62:src/sem.cpp   **** }
 499              		.loc 1 62 1
 500 0288 03348100 		ld	s0,8(sp)
 501              		.cfi_remember_state
 502              		.cfi_restore 8
 503              		.cfi_def_cfa 2, 16
 504 028c 13010101 		addi	sp,sp,16
 505              		.cfi_def_cfa_offset 0
 506 0290 67800000 		jr	ra
 507              	.LVL47:
 508              	.L41:
 509              		.cfi_restore_state
  57:src/sem.cpp   ****         return 0;
 510              		.loc 1 57 16
 511 0294 13050000 		li	a0,0
 512              	.LVL48:
 513 0298 6FF01FFF 		j	.L37
 514              	.LVL49:
 515              	.L38:
  54:src/sem.cpp   **** 
GAS LISTING /tmp/ccWLfqHe.s 			page 12


 516              		.loc 1 54 23
 517 029c 1305F0FF 		li	a0,-1
 518              	.LVL50:
 519 02a0 6FF09FFE 		j	.L37
 520              		.cfi_endproc
 521              	.LFE27:
 523              		.align	2
 524              		.globl	_ZN3Sem6signalEv
 526              	_ZN3Sem6signalEv:
 527              	.LFB28:
  63:src/sem.cpp   **** int Sem::signal(){
 528              		.loc 1 63 18 is_stmt 1
 529              		.cfi_startproc
 530              	.LVL51:
  64:src/sem.cpp   ****     if(closed)return -1;
 531              		.loc 1 64 5
 532              		.loc 1 64 8 is_stmt 0
 533 02a4 83474500 		lbu	a5,4(a0)
 534              		.loc 1 64 5
 535 02a8 63960704 		bnez	a5,.L44
  65:src/sem.cpp   **** 
  66:src/sem.cpp   ****     if(++val<=0) {
 536              		.loc 1 66 5 is_stmt 1
 537              		.loc 1 66 10 is_stmt 0
 538 02ac 83270500 		lw	a5,0(a0)
 539              		.loc 1 66 8
 540 02b0 9B871700 		addiw	a5,a5,1
 541 02b4 1B870700 		sext.w	a4,a5
 542              		.loc 1 66 13
 543 02b8 2320F500 		sw	a5,0(a0)
 544              		.loc 1 66 5
 545 02bc 6356E000 		blez	a4,.L50
  67:src/sem.cpp   ****         Sem::unblock();
  68:src/sem.cpp   ****     }
  69:src/sem.cpp   ****     return 0;
 546              		.loc 1 69 12
 547 02c0 13050000 		li	a0,0
 548              	.LVL52:
  70:src/sem.cpp   **** }...
 549              		.loc 1 70 1
 550 02c4 67800000 		ret
 551              	.LVL53:
 552              	.L50:
  63:src/sem.cpp   **** int Sem::signal(){
 553              		.loc 1 63 18
 554 02c8 130101FF 		addi	sp,sp,-16
 555              		.cfi_def_cfa_offset 16
 556 02cc 23341100 		sd	ra,8(sp)
 557 02d0 23308100 		sd	s0,0(sp)
 558              		.cfi_offset 1, -8
 559              		.cfi_offset 8, -16
 560 02d4 13040101 		addi	s0,sp,16
 561              		.cfi_def_cfa 8, 0
  67:src/sem.cpp   ****         Sem::unblock();
 562              		.loc 1 67 9 is_stmt 1
  67:src/sem.cpp   ****         Sem::unblock();
 563              		.loc 1 67 21 is_stmt 0
GAS LISTING /tmp/ccWLfqHe.s 			page 13


 564 02d8 97000000 		call	_ZN3Sem7unblockEv
 564      E7800000 
 565              	.LVL54:
  69:src/sem.cpp   ****     return 0;
 566              		.loc 1 69 12
 567 02e0 13050000 		li	a0,0
 568              		.loc 1 70 1
 569 02e4 83308100 		ld	ra,8(sp)
 570              		.cfi_restore 1
 571 02e8 03340100 		ld	s0,0(sp)
 572              		.cfi_restore 8
 573              		.cfi_def_cfa 2, 16
 574 02ec 13010101 		addi	sp,sp,16
 575              		.cfi_def_cfa_offset 0
 576 02f0 67800000 		jr	ra
 577              	.LVL55:
 578              	.L44:
  64:src/sem.cpp   ****     if(closed)return -1;
 579              		.loc 1 64 23
 580 02f4 1305F0FF 		li	a0,-1
 581              	.LVL56:
 582 02f8 67800000 		ret
 583              		.cfi_endproc
 584              	.LFE28:
 586              	.Letext0:
 587              		.file 4 "src/../h/../lib/hw.h"
 588              		.file 5 "src/../h/queue.hpp"
 589              		.file 6 "src/../h/scheduler.hpp"
 590              		.file 7 "src/../h/syscall_c.hpp"
 591              		.file 8 "src/../h/syscall_cpp.hpp"
 3508              		.align	3
 3511              	DW.ref.__gxx_personality_v0:
 3512 0000 00000000 		.dword	__gxx_personality_v0
 3512      00000000 
 3513              		.ident	"GCC: (Ubuntu 9.4.0-1ubuntu1~20.04) 9.4.0"
 3514              		.section	.note.GNU-stack,"",@progbits
GAS LISTING /tmp/ccWLfqHe.s 			page 14


DEFINED SYMBOLS
                            *ABS*:0000000000000000 sem.cpp
     /tmp/ccWLfqHe.s:9      .text:0000000000000000 _ZN3Sem7semOpenEi
     /tmp/ccWLfqHe.s:13     .text:0000000000000000 .L0 
     /tmp/ccWLfqHe.s:3511   .data.rel.local.DW.ref.__gxx_personality_v0:0000000000000000 DW.ref.__gxx_personality_v0
     /tmp/ccWLfqHe.s:17     .text:0000000000000000 .L0 
     /tmp/ccWLfqHe.s:18     .text:0000000000000004 .L0 
     /tmp/ccWLfqHe.s:23     .text:0000000000000014 .L0 
     /tmp/ccWLfqHe.s:24     .text:0000000000000014 .L0 
     /tmp/ccWLfqHe.s:25     .text:0000000000000014 .L0 
     /tmp/ccWLfqHe.s:26     .text:0000000000000014 .L0 
     /tmp/ccWLfqHe.s:28     .text:0000000000000018 .L0 
     /tmp/ccWLfqHe.s:31     .text:000000000000001c .L0 
     /tmp/ccWLfqHe.s:32     .text:000000000000001c .L0 
     /tmp/ccWLfqHe.s:44     .text:000000000000002c .L0 
     /tmp/ccWLfqHe.s:48     .text:0000000000000034 .L0 
     /tmp/ccWLfqHe.s:49     .text:0000000000000034 .L0 
     /tmp/ccWLfqHe.s:59     .text:0000000000000044 .L0 
     /tmp/ccWLfqHe.s:71     .text:000000000000005c .L0 
     /tmp/ccWLfqHe.s:76     .text:0000000000000060 .L0 
     /tmp/ccWLfqHe.s:78     .text:0000000000000068 .L0 
     /tmp/ccWLfqHe.s:80     .text:000000000000006c .L0 
     /tmp/ccWLfqHe.s:81     .text:000000000000006c .L0 
     /tmp/ccWLfqHe.s:83     .text:0000000000000070 .L0 
     /tmp/ccWLfqHe.s:85     .text:0000000000000074 .L0 
     /tmp/ccWLfqHe.s:87     .text:0000000000000078 .L0 
     /tmp/ccWLfqHe.s:89     .text:000000000000007c .L0 
     /tmp/ccWLfqHe.s:115    .text:000000000000007c _ZN3Sem8semCloseEv
     /tmp/ccWLfqHe.s:118    .text:000000000000007c .L0 
     /tmp/ccWLfqHe.s:120    .text:000000000000007c .L0 
     /tmp/ccWLfqHe.s:121    .text:0000000000000080 .L0 
     /tmp/ccWLfqHe.s:125    .text:000000000000008c .L0 
     /tmp/ccWLfqHe.s:126    .text:000000000000008c .L0 
     /tmp/ccWLfqHe.s:127    .text:000000000000008c .L0 
     /tmp/ccWLfqHe.s:129    .text:0000000000000090 .L0 
     /tmp/ccWLfqHe.s:132    .text:0000000000000094 .L0 
     /tmp/ccWLfqHe.s:133    .text:0000000000000094 .L0 
     /tmp/ccWLfqHe.s:138    .text:000000000000009c .L0 
     /tmp/ccWLfqHe.s:139    .text:000000000000009c .L0 
     /tmp/ccWLfqHe.s:140    .text:000000000000009c .L0 
     /tmp/ccWLfqHe.s:144    .text:00000000000000a8 .L0 
     /tmp/ccWLfqHe.s:147    .text:00000000000000ac .L0 
     /tmp/ccWLfqHe.s:148    .text:00000000000000ac .L0 
     /tmp/ccWLfqHe.s:155    .text:00000000000000b8 .L0 
     /tmp/ccWLfqHe.s:156    .text:00000000000000b8 .L0 
     /tmp/ccWLfqHe.s:157    .text:00000000000000b8 .L0 
     /tmp/ccWLfqHe.s:162    .text:00000000000000bc .L0 
     /tmp/ccWLfqHe.s:163    .text:00000000000000bc .L0 
     /tmp/ccWLfqHe.s:167    .text:00000000000000c4 .L0 
     /tmp/ccWLfqHe.s:170    .text:00000000000000c8 .L0 
     /tmp/ccWLfqHe.s:171    .text:00000000000000c8 .L0 
     /tmp/ccWLfqHe.s:173    .text:00000000000000d0 .L0 
     /tmp/ccWLfqHe.s:175    .text:00000000000000d4 .L0 
     /tmp/ccWLfqHe.s:176    .text:00000000000000d4 .L0 
     /tmp/ccWLfqHe.s:178    .text:00000000000000d8 .L0 
     /tmp/ccWLfqHe.s:181    .text:00000000000000dc .L0 
     /tmp/ccWLfqHe.s:183    .text:00000000000000e0 .L0 
GAS LISTING /tmp/ccWLfqHe.s 			page 15


     /tmp/ccWLfqHe.s:189    .text:00000000000000e0 _ZN3Sem5blockEv
     /tmp/ccWLfqHe.s:192    .text:00000000000000e0 .L0 
     /tmp/ccWLfqHe.s:194    .text:00000000000000e0 .L0 
     /tmp/ccWLfqHe.s:195    .text:00000000000000e4 .L0 
     /tmp/ccWLfqHe.s:198    .text:00000000000000ec .L0 
     /tmp/ccWLfqHe.s:199    .text:00000000000000ec .L0 
     /tmp/ccWLfqHe.s:201    .text:00000000000000f0 .L0 
     /tmp/ccWLfqHe.s:203    .text:00000000000000f0 .L0 
     /tmp/ccWLfqHe.s:204    .text:00000000000000f0 .L0 
     /tmp/ccWLfqHe.s:210    .text:00000000000000fc .L0 
     /tmp/ccWLfqHe.s:211    .text:00000000000000fc .L0 
     /tmp/ccWLfqHe.s:212    .text:00000000000000fc .L0 
     /tmp/ccWLfqHe.s:218    .text:0000000000000104 .L0 
     /tmp/ccWLfqHe.s:219    .text:0000000000000104 .L0 
     /tmp/ccWLfqHe.s:224    .text:0000000000000110 .L0 
     /tmp/ccWLfqHe.s:225    .text:0000000000000110 .L0 
     /tmp/ccWLfqHe.s:228    .text:0000000000000118 .L0 
     /tmp/ccWLfqHe.s:229    .text:000000000000011c .L0 
     /tmp/ccWLfqHe.s:231    .text:0000000000000120 .L0 
     /tmp/ccWLfqHe.s:232    .text:0000000000000120 .L0 
     /tmp/ccWLfqHe.s:234    .text:0000000000000124 .L0 
     /tmp/ccWLfqHe.s:236    .text:0000000000000128 .L0 
     /tmp/ccWLfqHe.s:242    .text:0000000000000128 _ZN3Sem11block_priorEi
     /tmp/ccWLfqHe.s:245    .text:0000000000000128 .L0 
     /tmp/ccWLfqHe.s:247    .text:0000000000000128 .L0 
     /tmp/ccWLfqHe.s:248    .text:000000000000012c .L0 
     /tmp/ccWLfqHe.s:251    .text:0000000000000134 .L0 
     /tmp/ccWLfqHe.s:252    .text:0000000000000134 .L0 
     /tmp/ccWLfqHe.s:254    .text:0000000000000138 .L0 
     /tmp/ccWLfqHe.s:257    .text:000000000000013c .L0 
     /tmp/ccWLfqHe.s:258    .text:000000000000013c .L0 
     /tmp/ccWLfqHe.s:264    .text:0000000000000148 .L0 
     /tmp/ccWLfqHe.s:265    .text:0000000000000148 .L0 
     /tmp/ccWLfqHe.s:266    .text:0000000000000148 .L0 
     /tmp/ccWLfqHe.s:272    .text:0000000000000150 .L0 
     /tmp/ccWLfqHe.s:273    .text:0000000000000150 .L0 
     /tmp/ccWLfqHe.s:278    .text:000000000000015c .L0 
     /tmp/ccWLfqHe.s:279    .text:000000000000015c .L0 
     /tmp/ccWLfqHe.s:282    .text:0000000000000164 .L0 
     /tmp/ccWLfqHe.s:283    .text:0000000000000168 .L0 
     /tmp/ccWLfqHe.s:285    .text:000000000000016c .L0 
     /tmp/ccWLfqHe.s:286    .text:000000000000016c .L0 
     /tmp/ccWLfqHe.s:288    .text:0000000000000170 .L0 
     /tmp/ccWLfqHe.s:290    .text:0000000000000174 .L0 
     /tmp/ccWLfqHe.s:296    .text:0000000000000174 _ZN3Sem7unblockEv
     /tmp/ccWLfqHe.s:299    .text:0000000000000174 .L0 
     /tmp/ccWLfqHe.s:301    .text:0000000000000174 .L0 
     /tmp/ccWLfqHe.s:302    .text:0000000000000178 .L0 
     /tmp/ccWLfqHe.s:305    .text:0000000000000180 .L0 
     /tmp/ccWLfqHe.s:306    .text:0000000000000180 .L0 
     /tmp/ccWLfqHe.s:308    .text:0000000000000184 .L0 
     /tmp/ccWLfqHe.s:310    .text:0000000000000184 .L0 
     /tmp/ccWLfqHe.s:311    .text:0000000000000184 .L0 
     /tmp/ccWLfqHe.s:318    .text:0000000000000190 .L0 
     /tmp/ccWLfqHe.s:319    .text:0000000000000190 .L0 
     /tmp/ccWLfqHe.s:320    .text:0000000000000190 .L0 
     /tmp/ccWLfqHe.s:325    .text:0000000000000194 .L0 
GAS LISTING /tmp/ccWLfqHe.s 			page 16


     /tmp/ccWLfqHe.s:326    .text:0000000000000194 .L0 
     /tmp/ccWLfqHe.s:329    .text:000000000000019c .L0 
     /tmp/ccWLfqHe.s:330    .text:00000000000001a0 .L0 
     /tmp/ccWLfqHe.s:332    .text:00000000000001a4 .L0 
     /tmp/ccWLfqHe.s:333    .text:00000000000001a4 .L0 
     /tmp/ccWLfqHe.s:335    .text:00000000000001a8 .L0 
     /tmp/ccWLfqHe.s:337    .text:00000000000001ac .L0 
     /tmp/ccWLfqHe.s:343    .text:00000000000001ac _ZN3Sem4waitEv
     /tmp/ccWLfqHe.s:346    .text:00000000000001ac .L0 
     /tmp/ccWLfqHe.s:348    .text:00000000000001ac .L0 
     /tmp/ccWLfqHe.s:349    .text:00000000000001ac .L0 
     /tmp/ccWLfqHe.s:350    .text:00000000000001ac .L0 
     /tmp/ccWLfqHe.s:352    .text:00000000000001b0 .L0 
     /tmp/ccWLfqHe.s:354    .text:00000000000001b4 .L0 
     /tmp/ccWLfqHe.s:355    .text:00000000000001b4 .L0 
     /tmp/ccWLfqHe.s:357    .text:00000000000001b8 .L0 
     /tmp/ccWLfqHe.s:359    .text:00000000000001bc .L0 
     /tmp/ccWLfqHe.s:361    .text:00000000000001c0 .L0 
     /tmp/ccWLfqHe.s:364    .text:00000000000001c8 .L0 
     /tmp/ccWLfqHe.s:367    .text:00000000000001cc .L0 
     /tmp/ccWLfqHe.s:371    .text:00000000000001d0 .L0 
     /tmp/ccWLfqHe.s:372    .text:00000000000001d4 .L0 
     /tmp/ccWLfqHe.s:375    .text:00000000000001dc .L0 
     /tmp/ccWLfqHe.s:376    .text:00000000000001dc .L0 
     /tmp/ccWLfqHe.s:378    .text:00000000000001e0 .L0 
     /tmp/ccWLfqHe.s:380    .text:00000000000001e0 .L0 
     /tmp/ccWLfqHe.s:381    .text:00000000000001e0 .L0 
     /tmp/ccWLfqHe.s:384    .text:00000000000001e8 .L0 
     /tmp/ccWLfqHe.s:386    .text:00000000000001ec .L0 
     /tmp/ccWLfqHe.s:387    .text:00000000000001f0 .L0 
     /tmp/ccWLfqHe.s:389    .text:00000000000001f4 .L0 
     /tmp/ccWLfqHe.s:390    .text:00000000000001f4 .L0 
     /tmp/ccWLfqHe.s:392    .text:00000000000001f8 .L0 
     /tmp/ccWLfqHe.s:397    .text:00000000000001fc .L0 
     /tmp/ccWLfqHe.s:400    .text:0000000000000204 .L0 
     /tmp/ccWLfqHe.s:406    .text:0000000000000204 _ZN3Sem10wait_priorEi
     /tmp/ccWLfqHe.s:409    .text:0000000000000204 .L0 
     /tmp/ccWLfqHe.s:411    .text:0000000000000204 .L0 
     /tmp/ccWLfqHe.s:412    .text:0000000000000204 .L0 
     /tmp/ccWLfqHe.s:413    .text:0000000000000204 .L0 
     /tmp/ccWLfqHe.s:415    .text:0000000000000208 .L0 
     /tmp/ccWLfqHe.s:417    .text:000000000000020c .L0 
     /tmp/ccWLfqHe.s:418    .text:000000000000020c .L0 
     /tmp/ccWLfqHe.s:420    .text:0000000000000210 .L0 
     /tmp/ccWLfqHe.s:422    .text:0000000000000214 .L0 
     /tmp/ccWLfqHe.s:424    .text:0000000000000218 .L0 
     /tmp/ccWLfqHe.s:427    .text:0000000000000220 .L0 
     /tmp/ccWLfqHe.s:430    .text:0000000000000224 .L0 
     /tmp/ccWLfqHe.s:434    .text:0000000000000228 .L0 
     /tmp/ccWLfqHe.s:435    .text:000000000000022c .L0 
     /tmp/ccWLfqHe.s:438    .text:0000000000000234 .L0 
     /tmp/ccWLfqHe.s:439    .text:0000000000000234 .L0 
     /tmp/ccWLfqHe.s:441    .text:0000000000000238 .L0 
     /tmp/ccWLfqHe.s:443    .text:0000000000000238 .L0 
     /tmp/ccWLfqHe.s:444    .text:0000000000000238 .L0 
     /tmp/ccWLfqHe.s:447    .text:0000000000000240 .L0 
     /tmp/ccWLfqHe.s:449    .text:0000000000000244 .L0 
GAS LISTING /tmp/ccWLfqHe.s 			page 17


     /tmp/ccWLfqHe.s:450    .text:0000000000000248 .L0 
     /tmp/ccWLfqHe.s:452    .text:000000000000024c .L0 
     /tmp/ccWLfqHe.s:453    .text:000000000000024c .L0 
     /tmp/ccWLfqHe.s:455    .text:0000000000000250 .L0 
     /tmp/ccWLfqHe.s:460    .text:0000000000000254 .L0 
     /tmp/ccWLfqHe.s:463    .text:000000000000025c .L0 
     /tmp/ccWLfqHe.s:469    .text:000000000000025c _ZN3Sem8try_waitEv
     /tmp/ccWLfqHe.s:472    .text:000000000000025c .L0 
     /tmp/ccWLfqHe.s:474    .text:000000000000025c .L0 
     /tmp/ccWLfqHe.s:475    .text:0000000000000260 .L0 
     /tmp/ccWLfqHe.s:477    .text:0000000000000264 .L0 
     /tmp/ccWLfqHe.s:479    .text:0000000000000268 .L0 
     /tmp/ccWLfqHe.s:481    .text:0000000000000268 .L0 
     /tmp/ccWLfqHe.s:482    .text:0000000000000268 .L0 
     /tmp/ccWLfqHe.s:484    .text:000000000000026c .L0 
     /tmp/ccWLfqHe.s:486    .text:0000000000000270 .L0 
     /tmp/ccWLfqHe.s:487    .text:0000000000000270 .L0 
     /tmp/ccWLfqHe.s:489    .text:0000000000000274 .L0 
     /tmp/ccWLfqHe.s:491    .text:0000000000000278 .L0 
     /tmp/ccWLfqHe.s:493    .text:000000000000027c .L0 
     /tmp/ccWLfqHe.s:496    .text:0000000000000284 .L0 
     /tmp/ccWLfqHe.s:500    .text:0000000000000288 .L0 
     /tmp/ccWLfqHe.s:501    .text:000000000000028c .L0 
     /tmp/ccWLfqHe.s:502    .text:000000000000028c .L0 
     /tmp/ccWLfqHe.s:503    .text:000000000000028c .L0 
     /tmp/ccWLfqHe.s:505    .text:0000000000000290 .L0 
     /tmp/ccWLfqHe.s:509    .text:0000000000000294 .L0 
     /tmp/ccWLfqHe.s:511    .text:0000000000000294 .L0 
     /tmp/ccWLfqHe.s:517    .text:000000000000029c .L0 
     /tmp/ccWLfqHe.s:520    .text:00000000000002a4 .L0 
     /tmp/ccWLfqHe.s:526    .text:00000000000002a4 _ZN3Sem6signalEv
     /tmp/ccWLfqHe.s:529    .text:00000000000002a4 .L0 
     /tmp/ccWLfqHe.s:531    .text:00000000000002a4 .L0 
     /tmp/ccWLfqHe.s:532    .text:00000000000002a4 .L0 
     /tmp/ccWLfqHe.s:533    .text:00000000000002a4 .L0 
     /tmp/ccWLfqHe.s:535    .text:00000000000002a8 .L0 
     /tmp/ccWLfqHe.s:537    .text:00000000000002ac .L0 
     /tmp/ccWLfqHe.s:538    .text:00000000000002ac .L0 
     /tmp/ccWLfqHe.s:540    .text:00000000000002b0 .L0 
     /tmp/ccWLfqHe.s:543    .text:00000000000002b8 .L0 
     /tmp/ccWLfqHe.s:545    .text:00000000000002bc .L0 
     /tmp/ccWLfqHe.s:547    .text:00000000000002c0 .L0 
     /tmp/ccWLfqHe.s:550    .text:00000000000002c4 .L0 
     /tmp/ccWLfqHe.s:554    .text:00000000000002c8 .L0 
     /tmp/ccWLfqHe.s:555    .text:00000000000002cc .L0 
     /tmp/ccWLfqHe.s:558    .text:00000000000002d4 .L0 
     /tmp/ccWLfqHe.s:559    .text:00000000000002d4 .L0 
     /tmp/ccWLfqHe.s:561    .text:00000000000002d8 .L0 
     /tmp/ccWLfqHe.s:563    .text:00000000000002d8 .L0 
     /tmp/ccWLfqHe.s:564    .text:00000000000002d8 .L0 
     /tmp/ccWLfqHe.s:567    .text:00000000000002e0 .L0 
     /tmp/ccWLfqHe.s:569    .text:00000000000002e4 .L0 
     /tmp/ccWLfqHe.s:570    .text:00000000000002e8 .L0 
     /tmp/ccWLfqHe.s:572    .text:00000000000002ec .L0 
     /tmp/ccWLfqHe.s:573    .text:00000000000002ec .L0 
     /tmp/ccWLfqHe.s:575    .text:00000000000002f0 .L0 
     /tmp/ccWLfqHe.s:580    .text:00000000000002f4 .L0 
GAS LISTING /tmp/ccWLfqHe.s 			page 18


     /tmp/ccWLfqHe.s:583    .text:00000000000002fc .L0 
     /tmp/ccWLfqHe.s:592    .text:00000000000002fc .L0 
     /tmp/ccWLfqHe.s:204    .text:00000000000000f0 .L0 
     /tmp/ccWLfqHe.s:258    .text:000000000000013c .L0 
     /tmp/ccWLfqHe.s:67     .text:000000000000005c .L7
     /tmp/ccWLfqHe.s:168    .text:00000000000000c8 .L9
     /tmp/ccWLfqHe.s:136    .text:000000000000009c .L10
     /tmp/ccWLfqHe.s:395    .text:00000000000001fc .L20
     /tmp/ccWLfqHe.s:369    .text:00000000000001d0 .L26
     /tmp/ccWLfqHe.s:458    .text:0000000000000254 .L29
     /tmp/ccWLfqHe.s:432    .text:0000000000000228 .L35
     /tmp/ccWLfqHe.s:515    .text:000000000000029c .L38
     /tmp/ccWLfqHe.s:508    .text:0000000000000294 .L41
     /tmp/ccWLfqHe.s:498    .text:0000000000000288 .L37
     /tmp/ccWLfqHe.s:578    .text:00000000000002f4 .L44
     /tmp/ccWLfqHe.s:552    .text:00000000000002c8 .L50
     /tmp/ccWLfqHe.s:34     .text:0000000000000020 .LEHB0
     /tmp/ccWLfqHe.s:10     .text:0000000000000000 .LFB20
     /tmp/ccWLfqHe.s:37     .text:0000000000000028 .LEHE0
     /tmp/ccWLfqHe.s:47     .text:0000000000000034 .LEHB1
     /tmp/ccWLfqHe.s:51     .text:000000000000003c .LEHE1
     /tmp/ccWLfqHe.s:53     .text:0000000000000040 .L3
     /tmp/ccWLfqHe.s:63     .text:0000000000000054 .LEHB2
     /tmp/ccWLfqHe.s:66     .text:000000000000005c .LEHE2
     /tmp/ccWLfqHe.s:1894   .debug_abbrev:0000000000000000 .Ldebug_abbrev0
     /tmp/ccWLfqHe.s:3463   .debug_str:0000000000000631 .LASF119
     /tmp/ccWLfqHe.s:3309   .debug_str:00000000000001f0 .LASF120
     /tmp/ccWLfqHe.s:3417   .debug_str:00000000000004cb .LASF121
     /tmp/ccWLfqHe.s:5      .text:0000000000000000 .Ltext0
     /tmp/ccWLfqHe.s:586    .text:00000000000002fc .Letext0
     /tmp/ccWLfqHe.s:3239   .debug_line:0000000000000000 .Ldebug_line0
     /tmp/ccWLfqHe.s:3399   .debug_str:000000000000044b .LASF0
     /tmp/ccWLfqHe.s:3411   .debug_str:000000000000049a .LASF1
     /tmp/ccWLfqHe.s:3379   .debug_str:00000000000003bc .LASF2
     /tmp/ccWLfqHe.s:3341   .debug_str:00000000000002e2 .LASF4
     /tmp/ccWLfqHe.s:3445   .debug_str:000000000000057c .LASF3
     /tmp/ccWLfqHe.s:3265   .debug_str:00000000000000c7 .LASF5
     /tmp/ccWLfqHe.s:3413   .debug_str:00000000000004ad .LASF6
     /tmp/ccWLfqHe.s:3397   .debug_str:0000000000000438 .LASF7
     /tmp/ccWLfqHe.s:3477   .debug_str:0000000000000754 .LASF8
     /tmp/ccWLfqHe.s:3321   .debug_str:0000000000000249 .LASF9
     /tmp/ccWLfqHe.s:3427   .debug_str:000000000000051d .LASF10
     /tmp/ccWLfqHe.s:3465   .debug_str:00000000000006f5 .LASF11
     /tmp/ccWLfqHe.s:3269   .debug_str:00000000000000df .LASF12
     /tmp/ccWLfqHe.s:3247   .debug_str:000000000000002e .LASF13
     /tmp/ccWLfqHe.s:3277   .debug_str:0000000000000128 .LASF14
     /tmp/ccWLfqHe.s:3441   .debug_str:0000000000000560 .LASF15
     /tmp/ccWLfqHe.s:3297   .debug_str:00000000000001b4 .LASF16
     /tmp/ccWLfqHe.s:3357   .debug_str:0000000000000336 .LASF19
     /tmp/ccWLfqHe.s:3437   .debug_str:000000000000054f .LASF17
     /tmp/ccWLfqHe.s:3495   .debug_str:00000000000007e3 .LASF18
     /tmp/ccWLfqHe.s:3255   .debug_str:0000000000000079 .LASF20
     /tmp/ccWLfqHe.s:3303   .debug_str:00000000000001d7 .LASF21
     /tmp/ccWLfqHe.s:3433   .debug_str:000000000000053e .LASF23
     /tmp/ccWLfqHe.s:3415   .debug_str:00000000000004c0 .LASF25
     /tmp/ccWLfqHe.s:3319   .debug_str:0000000000000232 .LASF27
     /tmp/ccWLfqHe.s:3381   .debug_str:00000000000003ca .LASF22
GAS LISTING /tmp/ccWLfqHe.s 			page 19


     /tmp/ccWLfqHe.s:3335   .debug_str:000000000000029e .LASF24
     /tmp/ccWLfqHe.s:3305   .debug_str:00000000000001dc .LASF26
     /tmp/ccWLfqHe.s:3395   .debug_str:0000000000000420 .LASF28
     /tmp/ccWLfqHe.s:3429   .debug_str:000000000000052c .LASF29
     /tmp/ccWLfqHe.s:3451   .debug_str:00000000000005b2 .LASF30
     /tmp/ccWLfqHe.s:3261   .debug_str:000000000000009f .LASF31
     /tmp/ccWLfqHe.s:3249   .debug_str:000000000000003e .LASF32
     /tmp/ccWLfqHe.s:3253   .debug_str:000000000000006f .LASF33
     /tmp/ccWLfqHe.s:3359   .debug_str:000000000000033b .LASF34
     /tmp/ccWLfqHe.s:3345   .debug_str:00000000000002fc .LASF35
     /tmp/ccWLfqHe.s:3469   .debug_str:0000000000000712 .LASF36
     /tmp/ccWLfqHe.s:3371   .debug_str:0000000000000382 .LASF37
     /tmp/ccWLfqHe.s:3263   .debug_str:00000000000000ae .LASF38
     /tmp/ccWLfqHe.s:3403   .debug_str:0000000000000464 .LASF45
     /tmp/ccWLfqHe.s:3311   .debug_str:00000000000001fc .LASF47
     /tmp/ccWLfqHe.s:3257   .debug_str:0000000000000081 .LASF41
     /tmp/ccWLfqHe.s:3293   .debug_str:0000000000000195 .LASF43
     /tmp/ccWLfqHe.s:3461   .debug_str:0000000000000625 .LASF49
     /tmp/ccWLfqHe.s:3489   .debug_str:00000000000007bc .LASF51
     /tmp/ccWLfqHe.s:3353   .debug_str:000000000000031d .LASF39
     /tmp/ccWLfqHe.s:3455   .debug_str:00000000000005da .LASF40
     /tmp/ccWLfqHe.s:3435   .debug_str:000000000000054a .LASF122
     /tmp/ccWLfqHe.s:3317   .debug_str:0000000000000226 .LASF42
     /tmp/ccWLfqHe.s:3243   .debug_str:0000000000000008 .LASF44
     /tmp/ccWLfqHe.s:3295   .debug_str:00000000000001ac .LASF46
     /tmp/ccWLfqHe.s:3475   .debug_str:0000000000000742 .LASF48
     /tmp/ccWLfqHe.s:3473   .debug_str:0000000000000730 .LASF50
     /tmp/ccWLfqHe.s:3373   .debug_str:000000000000038f .LASF52
     /tmp/ccWLfqHe.s:3307   .debug_str:00000000000001e8 .LASF53
     /tmp/ccWLfqHe.s:3467   .debug_str:0000000000000704 .LASF54
     /tmp/ccWLfqHe.s:3285   .debug_str:0000000000000154 .LASF78
     /tmp/ccWLfqHe.s:3349   .debug_str:0000000000000310 .LASF55
     /tmp/ccWLfqHe.s:3283   .debug_str:000000000000014e .LASF56
     /tmp/ccWLfqHe.s:3351   .debug_str:0000000000000315 .LASF57
     /tmp/ccWLfqHe.s:3409   .debug_str:0000000000000490 .LASF58
     /tmp/ccWLfqHe.s:3347   .debug_str:0000000000000307 .LASF59
     /tmp/ccWLfqHe.s:3385   .debug_str:00000000000003df .LASF60
     /tmp/ccWLfqHe.s:3241   .debug_str:0000000000000000 .LASF61
     /tmp/ccWLfqHe.s:3405   .debug_str:000000000000046d .LASF62
     /tmp/ccWLfqHe.s:3301   .debug_str:00000000000001d0 .LASF63
     /tmp/ccWLfqHe.s:3459   .debug_str:0000000000000612 .LASF64
     /tmp/ccWLfqHe.s:3245   .debug_str:000000000000001f .LASF65
     /tmp/ccWLfqHe.s:3401   .debug_str:0000000000000458 .LASF66
     /tmp/ccWLfqHe.s:3369   .debug_str:0000000000000379 .LASF67
     /tmp/ccWLfqHe.s:3363   .debug_str:000000000000035b .LASF123
     /tmp/ccWLfqHe.s:3327   .debug_str:0000000000000266 .LASF124
     /tmp/ccWLfqHe.s:3483   .debug_str:0000000000000790 .LASF77
     /tmp/ccWLfqHe.s:3337   .debug_str:00000000000002b5 .LASF125
     /tmp/ccWLfqHe.s:3447   .debug_str:000000000000058e .LASF75
     /tmp/ccWLfqHe.s:3331   .debug_str:0000000000000284 .LASF68
     /tmp/ccWLfqHe.s:3361   .debug_str:0000000000000350 .LASF69
     /tmp/ccWLfqHe.s:3365   .debug_str:0000000000000369 .LASF70
     /tmp/ccWLfqHe.s:3323   .debug_str:0000000000000257 .LASF71
     /tmp/ccWLfqHe.s:3339   .debug_str:00000000000002dd .LASF72
     /tmp/ccWLfqHe.s:3393   .debug_str:000000000000041b .LASF73
     /tmp/ccWLfqHe.s:3423   .debug_str:00000000000004fc .LASF74
     /tmp/ccWLfqHe.s:3481   .debug_str:000000000000077c .LASF76
GAS LISTING /tmp/ccWLfqHe.s 			page 20


     /tmp/ccWLfqHe.s:3273   .debug_str:00000000000000fc .LASF126
     /tmp/ccWLfqHe.s:3275   .debug_str:0000000000000110 .LASF127
     /tmp/ccWLfqHe.s:3291   .debug_str:0000000000000189 .LASF79
     /tmp/ccWLfqHe.s:3499   .debug_str:00000000000007f7 .LASF80
     /tmp/ccWLfqHe.s:3497   .debug_str:00000000000007e8 .LASF81
     /tmp/ccWLfqHe.s:3419   .debug_str:00000000000004eb .LASF82
     /tmp/ccWLfqHe.s:3267   .debug_str:00000000000000ce .LASF83
     /tmp/ccWLfqHe.s:3375   .debug_str:00000000000003ac .LASF84
     /tmp/ccWLfqHe.s:3343   .debug_str:00000000000002e9 .LASF85
     /tmp/ccWLfqHe.s:3289   .debug_str:000000000000017e .LASF86
     /tmp/ccWLfqHe.s:3391   .debug_str:0000000000000405 .LASF87
     /tmp/ccWLfqHe.s:3471   .debug_str:0000000000000728 .LASF88
     /tmp/ccWLfqHe.s:3281   .debug_str:000000000000013c .LASF89
     /tmp/ccWLfqHe.s:3383   .debug_str:00000000000003d6 .LASF90
     /tmp/ccWLfqHe.s:3387   .debug_str:00000000000003ea .LASF91
     /tmp/ccWLfqHe.s:3299   .debug_str:00000000000001ca .LASF92
     /tmp/ccWLfqHe.s:3485   .debug_str:000000000000079e .LASF93
     /tmp/ccWLfqHe.s:3491   .debug_str:00000000000007d5 .LASF94
     /tmp/ccWLfqHe.s:3287   .debug_str:000000000000016e .LASF95
     /tmp/ccWLfqHe.s:3439   .debug_str:0000000000000554 .LASF96
     /tmp/ccWLfqHe.s:3425   .debug_str:0000000000000506 .LASF97
     /tmp/ccWLfqHe.s:3389   .debug_str:00000000000003fd .LASF98
     /tmp/ccWLfqHe.s:3259   .debug_str:000000000000008d .LASF99
     /tmp/ccWLfqHe.s:3377   .debug_str:00000000000003b5 .LASF100
     /tmp/ccWLfqHe.s:3329   .debug_str:000000000000027f .LASF101
     /tmp/ccWLfqHe.s:3313   .debug_str:000000000000020f .LASF102
     /tmp/ccWLfqHe.s:3367   .debug_str:000000000000036f .LASF128
     /tmp/ccWLfqHe.s:527    .text:00000000000002a4 .LFB28
     /tmp/ccWLfqHe.s:584    .text:00000000000002fc .LFE28
     /tmp/ccWLfqHe.s:3431   .debug_str:0000000000000539 .LASF103
     /tmp/ccWLfqHe.s:2862   .debug_loc:0000000000000000 .LLST24
     /tmp/ccWLfqHe.s:565    .text:00000000000002e0 .LVL54
     /tmp/ccWLfqHe.s:470    .text:000000000000025c .LFB27
     /tmp/ccWLfqHe.s:521    .text:00000000000002a4 .LFE27
     /tmp/ccWLfqHe.s:2898   .debug_loc:000000000000008b .LLST23
     /tmp/ccWLfqHe.s:407    .text:0000000000000204 .LFB26
     /tmp/ccWLfqHe.s:464    .text:000000000000025c .LFE26
     /tmp/ccWLfqHe.s:2934   .debug_loc:0000000000000116 .LLST21
     /tmp/ccWLfqHe.s:2970   .debug_loc:00000000000001a1 .LLST22
     /tmp/ccWLfqHe.s:445    .text:0000000000000240 .LVL42
     /tmp/ccWLfqHe.s:344    .text:00000000000001ac .LFB25
     /tmp/ccWLfqHe.s:401    .text:0000000000000204 .LFE25
     /tmp/ccWLfqHe.s:2988   .debug_loc:00000000000001ed .LLST20
     /tmp/ccWLfqHe.s:382    .text:00000000000001e8 .LVL36
     /tmp/ccWLfqHe.s:297    .text:0000000000000174 .LFB24
     /tmp/ccWLfqHe.s:338    .text:00000000000001ac .LFE24
     /tmp/ccWLfqHe.s:3024   .debug_loc:0000000000000278 .LLST16
     /tmp/ccWLfqHe.s:3038   .debug_loc:00000000000002b1 .LLST17
     /tmp/ccWLfqHe.s:316    .text:0000000000000190 .LBB25
     /tmp/ccWLfqHe.s:323    .text:0000000000000194 .LBE25
     /tmp/ccWLfqHe.s:3045   .debug_loc:00000000000002d4 .LLST18
     /tmp/ccWLfqHe.s:3053   .debug_loc:00000000000002f8 .LLST19
     /tmp/ccWLfqHe.s:314    .text:0000000000000190 .LVL30
     /tmp/ccWLfqHe.s:327    .text:000000000000019c .LVL32
     /tmp/ccWLfqHe.s:243    .text:0000000000000128 .LFB23
     /tmp/ccWLfqHe.s:291    .text:0000000000000174 .LFE23
     /tmp/ccWLfqHe.s:3060   .debug_loc:000000000000031b .LLST11
GAS LISTING /tmp/ccWLfqHe.s 			page 21


     /tmp/ccWLfqHe.s:3074   .debug_loc:0000000000000354 .LLST12
     /tmp/ccWLfqHe.s:3088   .debug_loc:000000000000038d .LLST13
     /tmp/ccWLfqHe.s:262    .text:0000000000000148 .LBB23
     /tmp/ccWLfqHe.s:270    .text:0000000000000150 .LBE23
     /tmp/ccWLfqHe.s:3095   .debug_loc:00000000000003b0 .LLST14
     /tmp/ccWLfqHe.s:3103   .debug_loc:00000000000003d4 .LLST15
     /tmp/ccWLfqHe.s:276    .text:000000000000015c .LVL26
     /tmp/ccWLfqHe.s:280    .text:0000000000000164 .LVL27
     /tmp/ccWLfqHe.s:190    .text:00000000000000e0 .LFB22
     /tmp/ccWLfqHe.s:237    .text:0000000000000128 .LFE22
     /tmp/ccWLfqHe.s:3110   .debug_loc:00000000000003f7 .LLST7
     /tmp/ccWLfqHe.s:3124   .debug_loc:0000000000000430 .LLST8
     /tmp/ccWLfqHe.s:208    .text:00000000000000fc .LBB21
     /tmp/ccWLfqHe.s:216    .text:0000000000000104 .LBE21
     /tmp/ccWLfqHe.s:3131   .debug_loc:0000000000000453 .LLST9
     /tmp/ccWLfqHe.s:3139   .debug_loc:0000000000000477 .LLST10
     /tmp/ccWLfqHe.s:222    .text:0000000000000110 .LVL20
     /tmp/ccWLfqHe.s:226    .text:0000000000000118 .LVL21
     /tmp/ccWLfqHe.s:116    .text:000000000000007c .LFB21
     /tmp/ccWLfqHe.s:184    .text:00000000000000e0 .LFE21
     /tmp/ccWLfqHe.s:3146   .debug_loc:000000000000049a .LLST3
     /tmp/ccWLfqHe.s:145    .text:00000000000000ac .LBB18
     /tmp/ccWLfqHe.s:165    .text:00000000000000c4 .LBE18
     /tmp/ccWLfqHe.s:3164   .debug_loc:00000000000004e6 .LLST4
     /tmp/ccWLfqHe.s:152    .text:00000000000000b8 .LBB19
     /tmp/ccWLfqHe.s:160    .text:00000000000000bc .LBE19
     /tmp/ccWLfqHe.s:3171   .debug_loc:0000000000000509 .LLST5
     /tmp/ccWLfqHe.s:3179   .debug_loc:000000000000052d .LLST6
     /tmp/ccWLfqHe.s:150    .text:00000000000000b8 .LVL12
     /tmp/ccWLfqHe.s:164    .text:00000000000000c4 .LVL14
     /tmp/ccWLfqHe.s:142    .text:00000000000000a8 .LVL11
     /tmp/ccWLfqHe.s:90     .text:000000000000007c .LFE20
     /tmp/ccWLfqHe.s:3186   .debug_loc:0000000000000550 .LLST0
     /tmp/ccWLfqHe.s:40     .text:000000000000002c .LBB14
     /tmp/ccWLfqHe.s:3231   .debug_ranges:0000000000000000 .Ldebug_ranges0
     /tmp/ccWLfqHe.s:3200   .debug_loc:0000000000000589 .LLST1
     /tmp/ccWLfqHe.s:3211   .debug_loc:00000000000005bf .LLST2
     /tmp/ccWLfqHe.s:50     .text:000000000000003c .LVL4
     /tmp/ccWLfqHe.s:36     .text:0000000000000028 .LVL2
     /tmp/ccWLfqHe.s:61     .text:0000000000000050 .LVL6
     /tmp/ccWLfqHe.s:65     .text:000000000000005c .LVL7
     /tmp/ccWLfqHe.s:3501   .debug_str:00000000000007fc .LASF104
     /tmp/ccWLfqHe.s:3355   .debug_str:000000000000032a .LASF129
     /tmp/ccWLfqHe.s:3457   .debug_str:0000000000000600 .LASF105
     /tmp/ccWLfqHe.s:3493   .debug_str:00000000000007db .LASF107
     /tmp/ccWLfqHe.s:3407   .debug_str:0000000000000476 .LASF106
     /tmp/ccWLfqHe.s:3421   .debug_str:00000000000004f2 .LASF108
     /tmp/ccWLfqHe.s:3251   .debug_str:0000000000000058 .LASF109
     /tmp/ccWLfqHe.s:3279   .debug_str:0000000000000134 .LASF110
     /tmp/ccWLfqHe.s:3449   .debug_str:000000000000059f .LASF111
     /tmp/ccWLfqHe.s:3325   .debug_str:000000000000025d .LASF112
     /tmp/ccWLfqHe.s:3315   .debug_str:0000000000000214 .LASF113
     /tmp/ccWLfqHe.s:3271   .debug_str:00000000000000ef .LASF114
     /tmp/ccWLfqHe.s:3443   .debug_str:0000000000000576 .LASF115
     /tmp/ccWLfqHe.s:3487   .debug_str:00000000000007af .LASF116
     /tmp/ccWLfqHe.s:3503   .debug_str:0000000000000801 .LASF117
     /tmp/ccWLfqHe.s:3453   .debug_str:00000000000005ca .LASF118
GAS LISTING /tmp/ccWLfqHe.s 			page 22


     /tmp/ccWLfqHe.s:3333   .debug_str:000000000000028f .LASF130
     /tmp/ccWLfqHe.s:3479   .debug_str:0000000000000764 .LASF131
     /tmp/ccWLfqHe.s:530    .text:00000000000002a4 .LVL51
     /tmp/ccWLfqHe.s:548    .text:00000000000002c4 .LVL52
     /tmp/ccWLfqHe.s:551    .text:00000000000002c8 .LVL53
     /tmp/ccWLfqHe.s:577    .text:00000000000002f4 .LVL55
     /tmp/ccWLfqHe.s:581    .text:00000000000002f8 .LVL56
     /tmp/ccWLfqHe.s:473    .text:000000000000025c .LVL45
     /tmp/ccWLfqHe.s:497    .text:0000000000000288 .LVL46
     /tmp/ccWLfqHe.s:507    .text:0000000000000294 .LVL47
     /tmp/ccWLfqHe.s:512    .text:0000000000000298 .LVL48
     /tmp/ccWLfqHe.s:514    .text:000000000000029c .LVL49
     /tmp/ccWLfqHe.s:518    .text:00000000000002a0 .LVL50
     /tmp/ccWLfqHe.s:410    .text:0000000000000204 .LVL39
     /tmp/ccWLfqHe.s:428    .text:0000000000000224 .LVL40
     /tmp/ccWLfqHe.s:431    .text:0000000000000228 .LVL41
     /tmp/ccWLfqHe.s:457    .text:0000000000000254 .LVL43
     /tmp/ccWLfqHe.s:461    .text:0000000000000258 .LVL44
     /tmp/ccWLfqHe.s:347    .text:00000000000001ac .LVL33
     /tmp/ccWLfqHe.s:365    .text:00000000000001cc .LVL34
     /tmp/ccWLfqHe.s:368    .text:00000000000001d0 .LVL35
     /tmp/ccWLfqHe.s:394    .text:00000000000001fc .LVL37
     /tmp/ccWLfqHe.s:398    .text:0000000000000200 .LVL38
     /tmp/ccWLfqHe.s:300    .text:0000000000000174 .LVL28
     /tmp/ccWLfqHe.s:312    .text:0000000000000188 .LVL29
     /tmp/ccWLfqHe.s:321    .text:0000000000000194 .LVL31
     /tmp/ccWLfqHe.s:246    .text:0000000000000128 .LVL22
     /tmp/ccWLfqHe.s:274    .text:0000000000000154 .LVL25
     /tmp/ccWLfqHe.s:260    .text:0000000000000148 .LVL23
     /tmp/ccWLfqHe.s:268    .text:0000000000000150 .LVL24
     /tmp/ccWLfqHe.s:193    .text:00000000000000e0 .LVL16
     /tmp/ccWLfqHe.s:220    .text:0000000000000108 .LVL19
     /tmp/ccWLfqHe.s:206    .text:00000000000000fc .LVL17
     /tmp/ccWLfqHe.s:214    .text:0000000000000104 .LVL18
     /tmp/ccWLfqHe.s:119    .text:000000000000007c .LVL9
     /tmp/ccWLfqHe.s:135    .text:000000000000009c .LVL10
     /tmp/ccWLfqHe.s:179    .text:00000000000000d8 .LVL15
     /tmp/ccWLfqHe.s:158    .text:00000000000000bc .LVL13
     /tmp/ccWLfqHe.s:16     .text:0000000000000000 .LVL0
     /tmp/ccWLfqHe.s:33     .text:0000000000000020 .LVL1
     /tmp/ccWLfqHe.s:39     .text:000000000000002c .LVL3
     /tmp/ccWLfqHe.s:55     .text:0000000000000044 .LVL5
     /tmp/ccWLfqHe.s:72     .text:0000000000000060 .LVL8
     /tmp/ccWLfqHe.s:593    .debug_info:0000000000000000 .Ldebug_info0
     /tmp/ccWLfqHe.s:57     .text:0000000000000044 .LBE14
     /tmp/ccWLfqHe.s:68     .text:000000000000005c .LBB17
     /tmp/ccWLfqHe.s:74     .text:0000000000000060 .LBE17
     /tmp/ccWLfqHe.s:93     .gcc_except_table:0000000000000000 .LLSDA20

UNDEFINED SYMBOLS
_Znwm
_Z12create_queuev
_ZdlPv
_Unwind_Resume
__gxx_personality_v0
_Z8is_emptyP5queue
_Z7dequeueP5queue
GAS LISTING /tmp/ccWLfqHe.s 			page 23


_ZN9Scheduler3putEP3TCB
_ZN3TCB7runningE
_Z7enqueueP5queueP3TCB
_ZN3TCB8dispatchEv
_Z9enqueue_pP5queueP3TCBi
