GAS LISTING /tmp/ccIbwoOS.s 			page 1


   1              		.file	"syscall_cpp.cpp"
   2              		.option pic
   3              		.option norelax
   4              		.text
   5              	.Ltext0:
   6              		.section	.text._ZN6Thread3runEv,"axG",@progbits,_ZN6Thread3runEv,comdat
   7              		.align	2
   8              		.weak	_ZN6Thread3runEv
  10              	_ZN6Thread3runEv:
  11              	.LFB18:
  12              		.file 1 "src/../h/syscall_cpp.hpp"
   1:src/../h/syscall_cpp.hpp **** #ifndef _syscall_cpp
   2:src/../h/syscall_cpp.hpp **** #define _syscall_cpp
   3:src/../h/syscall_cpp.hpp **** 
   4:src/../h/syscall_cpp.hpp **** #include "syscall_c.hpp"
   5:src/../h/syscall_cpp.hpp **** 
   6:src/../h/syscall_cpp.hpp **** void* operator new (size_t size);
   7:src/../h/syscall_cpp.hpp **** void operator delete (void* ptr);
   8:src/../h/syscall_cpp.hpp **** 
   9:src/../h/syscall_cpp.hpp **** class Thread {
  10:src/../h/syscall_cpp.hpp **** public:
  11:src/../h/syscall_cpp.hpp ****     Thread (void (*body)(void*), void* arg);
  12:src/../h/syscall_cpp.hpp ****     virtual ~Thread ();
  13:src/../h/syscall_cpp.hpp ****     int start ();
  14:src/../h/syscall_cpp.hpp ****     //void join();
  15:src/../h/syscall_cpp.hpp ****     static void dispatch ();
  16:src/../h/syscall_cpp.hpp ****     static int sleep (time_t);
  17:src/../h/syscall_cpp.hpp ****     void ping();
  18:src/../h/syscall_cpp.hpp **** protected:
  19:src/../h/syscall_cpp.hpp ****     Thread ();
  20:src/../h/syscall_cpp.hpp ****     virtual void run () {}
  13              		.loc 1 20 18
  14              		.cfi_startproc
  15              	.LVL0:
  16 0000 130101FF 		addi	sp,sp,-16
  17              		.cfi_def_cfa_offset 16
  18 0004 23348100 		sd	s0,8(sp)
  19              		.cfi_offset 8, -8
  20 0008 13040101 		addi	s0,sp,16
  21              		.cfi_def_cfa 8, 0
  22              		.loc 1 20 26 is_stmt 0
  23 000c 03348100 		ld	s0,8(sp)
  24              		.cfi_restore 8
  25              		.cfi_def_cfa 2, 16
  26 0010 13010101 		addi	sp,sp,16
  27              		.cfi_def_cfa_offset 0
  28 0014 67800000 		jr	ra
  29              		.cfi_endproc
  30              	.LFE18:
  32              		.section	.text._ZN14PeriodicThread18periodicActivationEv,"axG",@progbits,_ZN14PeriodicThread18peri
  33              		.align	2
  34              		.weak	_ZN14PeriodicThread18periodicActivationEv
  36              	_ZN14PeriodicThread18periodicActivationEv:
  37              	.LFB19:
  21:src/../h/syscall_cpp.hpp **** private:
  22:src/../h/syscall_cpp.hpp ****     TCB* myHandle;
  23:src/../h/syscall_cpp.hpp ****     void (*body)(void*);
GAS LISTING /tmp/ccIbwoOS.s 			page 2


  24:src/../h/syscall_cpp.hpp ****     void* arg;
  25:src/../h/syscall_cpp.hpp ****     static void thread_wrapper(void*);
  26:src/../h/syscall_cpp.hpp **** };
  27:src/../h/syscall_cpp.hpp **** class Sem;
  28:src/../h/syscall_cpp.hpp **** typedef Sem* sem_t;
  29:src/../h/syscall_cpp.hpp **** 
  30:src/../h/syscall_cpp.hpp **** struct RedOwner{
  31:src/../h/syscall_cpp.hpp ****     int owner;
  32:src/../h/syscall_cpp.hpp ****     RedOwner* next;
  33:src/../h/syscall_cpp.hpp **** };
  34:src/../h/syscall_cpp.hpp **** 
  35:src/../h/syscall_cpp.hpp **** class Semaphore {
  36:src/../h/syscall_cpp.hpp **** public:
  37:src/../h/syscall_cpp.hpp ****     Semaphore (unsigned init = 1);
  38:src/../h/syscall_cpp.hpp ****     virtual ~Semaphore ();
  39:src/../h/syscall_cpp.hpp ****     int wait ();
  40:src/../h/syscall_cpp.hpp ****     int signal ();
  41:src/../h/syscall_cpp.hpp ****     int tryWait();
  42:src/../h/syscall_cpp.hpp ****     void turnOnPriorities();
  43:src/../h/syscall_cpp.hpp ****     void addOwner();
  44:src/../h/syscall_cpp.hpp ****     void removeOwner(int id);
  45:src/../h/syscall_cpp.hpp **** private:
  46:src/../h/syscall_cpp.hpp ****     sem_t myHandle;
  47:src/../h/syscall_cpp.hpp ****     bool turnFlag;
  48:src/../h/syscall_cpp.hpp ****     RedOwner* owners;
  49:src/../h/syscall_cpp.hpp **** };
  50:src/../h/syscall_cpp.hpp **** 
  51:src/../h/syscall_cpp.hpp **** class PeriodicThread : public Thread {
  52:src/../h/syscall_cpp.hpp **** public:
  53:src/../h/syscall_cpp.hpp ****     void terminate ();
  54:src/../h/syscall_cpp.hpp **** protected:
  55:src/../h/syscall_cpp.hpp ****     PeriodicThread (time_t period);
  56:src/../h/syscall_cpp.hpp ****     virtual void periodicActivation () {}
  38              		.loc 1 56 18 is_stmt 1
  39              		.cfi_startproc
  40              	.LVL1:
  41 0000 130101FF 		addi	sp,sp,-16
  42              		.cfi_def_cfa_offset 16
  43 0004 23348100 		sd	s0,8(sp)
  44              		.cfi_offset 8, -8
  45 0008 13040101 		addi	s0,sp,16
  46              		.cfi_def_cfa 8, 0
  47              		.loc 1 56 41 is_stmt 0
  48 000c 03348100 		ld	s0,8(sp)
  49              		.cfi_restore 8
  50              		.cfi_def_cfa 2, 16
  51 0010 13010101 		addi	sp,sp,16
  52              		.cfi_def_cfa_offset 0
  53 0014 67800000 		jr	ra
  54              		.cfi_endproc
  55              	.LFE19:
  57              		.text
  58              		.align	2
  59              		.globl	_ZN6Thread14thread_wrapperEPv
  61              	_ZN6Thread14thread_wrapperEPv:
  62              	.LFB37:
  63              		.file 2 "src/syscall_cpp.cpp"
GAS LISTING /tmp/ccIbwoOS.s 			page 3


   1:src/syscall_cpp.cpp **** #include "../h/syscall_cpp.hpp"
   2:src/syscall_cpp.cpp **** #include "../test/printing.hpp"
   3:src/syscall_cpp.cpp **** //memory allocator
   4:src/syscall_cpp.cpp **** void* operator new(size_t n){
   5:src/syscall_cpp.cpp ****     return mem_alloc(n);
   6:src/syscall_cpp.cpp **** }
   7:src/syscall_cpp.cpp **** 
   8:src/syscall_cpp.cpp **** void* operator new[](size_t n){
   9:src/syscall_cpp.cpp ****     return mem_alloc(n);
  10:src/syscall_cpp.cpp **** }
  11:src/syscall_cpp.cpp **** 
  12:src/syscall_cpp.cpp **** void operator delete(void *p){
  13:src/syscall_cpp.cpp ****     mem_free(p);
  14:src/syscall_cpp.cpp **** }
  15:src/syscall_cpp.cpp **** 
  16:src/syscall_cpp.cpp **** void operator delete[](void *p){
  17:src/syscall_cpp.cpp ****     mem_free(p);
  18:src/syscall_cpp.cpp **** }
  19:src/syscall_cpp.cpp **** //niti
  20:src/syscall_cpp.cpp **** 
  21:src/syscall_cpp.cpp **** int Thread::start (){
  22:src/syscall_cpp.cpp ****     int k;
  23:src/syscall_cpp.cpp ****     k = thread_create(&this->myHandle,body, arg);//ove video
  24:src/syscall_cpp.cpp ****     return k;
  25:src/syscall_cpp.cpp **** }
  26:src/syscall_cpp.cpp **** //void Thread::join(){
  27:src/syscall_cpp.cpp **** //    thread_join(myHandle);
  28:src/syscall_cpp.cpp **** //}
  29:src/syscall_cpp.cpp **** void Thread::dispatch(){
  30:src/syscall_cpp.cpp ****     thread_dispatch();
  31:src/syscall_cpp.cpp **** }
  32:src/syscall_cpp.cpp **** int Thread::sleep (time_t time){
  33:src/syscall_cpp.cpp ****     return 0;
  34:src/syscall_cpp.cpp **** }
  35:src/syscall_cpp.cpp **** 
  36:src/syscall_cpp.cpp **** Thread::Thread(void (*body)(void *), void *arg) {
  37:src/syscall_cpp.cpp ****     this->body = body;
  38:src/syscall_cpp.cpp ****     this->arg = arg;
  39:src/syscall_cpp.cpp **** }
  40:src/syscall_cpp.cpp **** 
  41:src/syscall_cpp.cpp **** Thread::~Thread() {
  42:src/syscall_cpp.cpp ****     this->body = nullptr;
  43:src/syscall_cpp.cpp ****     this->arg = nullptr;
  44:src/syscall_cpp.cpp ****     myHandle->setFinished(true);
  45:src/syscall_cpp.cpp ****     delete myHandle;
  46:src/syscall_cpp.cpp **** }
  47:src/syscall_cpp.cpp **** Thread::Thread() {
  48:src/syscall_cpp.cpp ****     body = thread_wrapper;
  49:src/syscall_cpp.cpp ****     arg = this;
  50:src/syscall_cpp.cpp **** }
  51:src/syscall_cpp.cpp **** 
  52:src/syscall_cpp.cpp **** void Thread::thread_wrapper(void* handle) {
  64              		.loc 2 52 43 is_stmt 1
  65              		.cfi_startproc
  66              	.LVL2:
  67 0000 130101FF 		addi	sp,sp,-16
  68              		.cfi_def_cfa_offset 16
GAS LISTING /tmp/ccIbwoOS.s 			page 4


  69 0004 23341100 		sd	ra,8(sp)
  70 0008 23308100 		sd	s0,0(sp)
  71              		.cfi_offset 1, -8
  72              		.cfi_offset 8, -16
  73 000c 13040101 		addi	s0,sp,16
  74              		.cfi_def_cfa 8, 0
  53:src/syscall_cpp.cpp ****     ((Thread*)handle)->run();
  75              		.loc 2 53 5
  76              		.loc 2 53 28 is_stmt 0
  77 0010 83370500 		ld	a5,0(a0)
  78 0014 83B70701 		ld	a5,16(a5)
  79              		.loc 2 53 27
  80 0018 E7800700 		jalr	a5
  81              	.LVL3:
  54:src/syscall_cpp.cpp **** }
  82              		.loc 2 54 1
  83 001c 83308100 		ld	ra,8(sp)
  84              		.cfi_restore 1
  85 0020 03340100 		ld	s0,0(sp)
  86              		.cfi_restore 8
  87              		.cfi_def_cfa 2, 16
  88 0024 13010101 		addi	sp,sp,16
  89              		.cfi_def_cfa_offset 0
  90 0028 67800000 		jr	ra
  91              		.cfi_endproc
  92              	.LFE37:
  94              		.align	2
  95              		.globl	_Znwm
  97              	_Znwm:
  98              	.LFB20:
   4:src/syscall_cpp.cpp ****     return mem_alloc(n);
  99              		.loc 2 4 29 is_stmt 1
 100              		.cfi_startproc
 101              	.LVL4:
 102 002c 130101FF 		addi	sp,sp,-16
 103              		.cfi_def_cfa_offset 16
 104 0030 23341100 		sd	ra,8(sp)
 105 0034 23308100 		sd	s0,0(sp)
 106              		.cfi_offset 1, -8
 107              		.cfi_offset 8, -16
 108 0038 13040101 		addi	s0,sp,16
 109              		.cfi_def_cfa 8, 0
   5:src/syscall_cpp.cpp **** }
 110              		.loc 2 5 5
   5:src/syscall_cpp.cpp **** }
 111              		.loc 2 5 21 is_stmt 0
 112 003c 97000000 		call	_Z9mem_allocm@plt
 112      E7800000 
 113              	.LVL5:
   6:src/syscall_cpp.cpp **** 
 114              		.loc 2 6 1
 115 0044 83308100 		ld	ra,8(sp)
 116              		.cfi_restore 1
 117 0048 03340100 		ld	s0,0(sp)
 118              		.cfi_restore 8
 119              		.cfi_def_cfa 2, 16
 120 004c 13010101 		addi	sp,sp,16
GAS LISTING /tmp/ccIbwoOS.s 			page 5


 121              		.cfi_def_cfa_offset 0
 122 0050 67800000 		jr	ra
 123              		.cfi_endproc
 124              	.LFE20:
 126              		.align	2
 127              		.globl	_Znam
 129              	_Znam:
 130              	.LFB21:
   8:src/syscall_cpp.cpp ****     return mem_alloc(n);
 131              		.loc 2 8 31 is_stmt 1
 132              		.cfi_startproc
 133              	.LVL6:
 134 0054 130101FF 		addi	sp,sp,-16
 135              		.cfi_def_cfa_offset 16
 136 0058 23341100 		sd	ra,8(sp)
 137 005c 23308100 		sd	s0,0(sp)
 138              		.cfi_offset 1, -8
 139              		.cfi_offset 8, -16
 140 0060 13040101 		addi	s0,sp,16
 141              		.cfi_def_cfa 8, 0
   9:src/syscall_cpp.cpp **** }
 142              		.loc 2 9 5
   9:src/syscall_cpp.cpp **** }
 143              		.loc 2 9 21 is_stmt 0
 144 0064 97000000 		call	_Z9mem_allocm@plt
 144      E7800000 
 145              	.LVL7:
  10:src/syscall_cpp.cpp **** 
 146              		.loc 2 10 1
 147 006c 83308100 		ld	ra,8(sp)
 148              		.cfi_restore 1
 149 0070 03340100 		ld	s0,0(sp)
 150              		.cfi_restore 8
 151              		.cfi_def_cfa 2, 16
 152 0074 13010101 		addi	sp,sp,16
 153              		.cfi_def_cfa_offset 0
 154 0078 67800000 		jr	ra
 155              		.cfi_endproc
 156              	.LFE21:
 158              		.align	2
 159              		.globl	_ZdlPv
 161              	_ZdlPv:
 162              	.LFB22:
  12:src/syscall_cpp.cpp ****     mem_free(p);
 163              		.loc 2 12 30 is_stmt 1
 164              		.cfi_startproc
 165              	.LVL8:
 166 007c 130101FF 		addi	sp,sp,-16
 167              		.cfi_def_cfa_offset 16
 168 0080 23341100 		sd	ra,8(sp)
 169 0084 23308100 		sd	s0,0(sp)
 170              		.cfi_offset 1, -8
 171              		.cfi_offset 8, -16
 172 0088 13040101 		addi	s0,sp,16
 173              		.cfi_def_cfa 8, 0
  13:src/syscall_cpp.cpp **** }
 174              		.loc 2 13 5
GAS LISTING /tmp/ccIbwoOS.s 			page 6


  13:src/syscall_cpp.cpp **** }
 175              		.loc 2 13 13 is_stmt 0
 176 008c 97000000 		call	_Z8mem_freePv@plt
 176      E7800000 
 177              	.LVL9:
  14:src/syscall_cpp.cpp **** 
 178              		.loc 2 14 1
 179 0094 83308100 		ld	ra,8(sp)
 180              		.cfi_restore 1
 181 0098 03340100 		ld	s0,0(sp)
 182              		.cfi_restore 8
 183              		.cfi_def_cfa 2, 16
 184 009c 13010101 		addi	sp,sp,16
 185              		.cfi_def_cfa_offset 0
 186 00a0 67800000 		jr	ra
 187              		.cfi_endproc
 188              	.LFE22:
 190              		.align	2
 191              		.globl	_ZN9SemaphoreD2Ev
 193              	_ZN9SemaphoreD2Ev:
 194              	.LFB47:
  55:src/syscall_cpp.cpp **** 
  56:src/syscall_cpp.cpp **** void Thread::ping() {
  57:src/syscall_cpp.cpp ****     ::ping(myHandle);
  58:src/syscall_cpp.cpp **** }
  59:src/syscall_cpp.cpp **** 
  60:src/syscall_cpp.cpp **** Semaphore::Semaphore(unsigned int init) {
  61:src/syscall_cpp.cpp ****     turnFlag=false;
  62:src/syscall_cpp.cpp ****     owners = nullptr;
  63:src/syscall_cpp.cpp ****     sem_open(&myHandle, init);
  64:src/syscall_cpp.cpp **** }
  65:src/syscall_cpp.cpp **** int Semaphore::wait(){
  66:src/syscall_cpp.cpp **** 
  67:src/syscall_cpp.cpp ****     if(owners!= nullptr){
  68:src/syscall_cpp.cpp ****         RedOwner* a= nullptr;
  69:src/syscall_cpp.cpp ****         bool ownersFlag = false;
  70:src/syscall_cpp.cpp ****         int id = getThreadId();
  71:src/syscall_cpp.cpp ****         for(a = owners; a;a=a->next){
  72:src/syscall_cpp.cpp ****             if(a->owner==id){
  73:src/syscall_cpp.cpp ****                 ownersFlag=true;
  74:src/syscall_cpp.cpp ****                 printString("Cekam na semaforu id:");
  75:src/syscall_cpp.cpp ****                 printInt(id);
  76:src/syscall_cpp.cpp ****                 printString(" \n");
  77:src/syscall_cpp.cpp ****                 break;
  78:src/syscall_cpp.cpp ****             }
  79:src/syscall_cpp.cpp ****         }if(ownersFlag){
  80:src/syscall_cpp.cpp ****             if (turnFlag) {
  81:src/syscall_cpp.cpp ****                 //int id = getThreadId();
  82:src/syscall_cpp.cpp ****                 printString("Wait zove: ");
  83:src/syscall_cpp.cpp ****                 printInt(id);
  84:src/syscall_cpp.cpp ****                 printString("\n");
  85:src/syscall_cpp.cpp ****                 return sem_wait_prior(myHandle, id);
  86:src/syscall_cpp.cpp ****             } else {
  87:src/syscall_cpp.cpp ****                 return sem_wait(myHandle);
  88:src/syscall_cpp.cpp ****             }
  89:src/syscall_cpp.cpp ****         }
  90:src/syscall_cpp.cpp ****         else return 0;
GAS LISTING /tmp/ccIbwoOS.s 			page 7


  91:src/syscall_cpp.cpp **** 
  92:src/syscall_cpp.cpp ****     }
  93:src/syscall_cpp.cpp ****     else{
  94:src/syscall_cpp.cpp ****         if (turnFlag) {
  95:src/syscall_cpp.cpp ****             int id = getThreadId();
  96:src/syscall_cpp.cpp ****             printString("Wait zove: ");
  97:src/syscall_cpp.cpp ****             printInt(id);
  98:src/syscall_cpp.cpp ****             printString("\n");
  99:src/syscall_cpp.cpp ****             return sem_wait_prior(myHandle, id);
 100:src/syscall_cpp.cpp ****         } else {
 101:src/syscall_cpp.cpp ****             return sem_wait(myHandle);
 102:src/syscall_cpp.cpp ****         }
 103:src/syscall_cpp.cpp ****     }
 104:src/syscall_cpp.cpp **** }
 105:src/syscall_cpp.cpp **** int Semaphore::signal() {
 106:src/syscall_cpp.cpp **** 
 107:src/syscall_cpp.cpp ****     if (owners != nullptr) {
 108:src/syscall_cpp.cpp ****         RedOwner *a = nullptr;
 109:src/syscall_cpp.cpp ****         bool ownersFlag = false;
 110:src/syscall_cpp.cpp ****         int id = getThreadId();
 111:src/syscall_cpp.cpp ****         for (a = owners; a; a = a->next) {
 112:src/syscall_cpp.cpp ****             if (a->owner == id) {
 113:src/syscall_cpp.cpp ****                 ownersFlag = true;
 114:src/syscall_cpp.cpp ****                 printString("Signa na semaforu id:");
 115:src/syscall_cpp.cpp ****                 printInt(id);
 116:src/syscall_cpp.cpp ****                 printString(" \n");
 117:src/syscall_cpp.cpp ****                 break;
 118:src/syscall_cpp.cpp ****             }
 119:src/syscall_cpp.cpp ****         }
 120:src/syscall_cpp.cpp ****         if (turnFlag) {
 121:src/syscall_cpp.cpp ****             //int id = getThreadId();
 122:src/syscall_cpp.cpp ****             printString("Signal zove: ");
 123:src/syscall_cpp.cpp ****             printInt(id);
 124:src/syscall_cpp.cpp ****             printString("\n");
 125:src/syscall_cpp.cpp ****         }
 126:src/syscall_cpp.cpp ****         if(ownersFlag)
 127:src/syscall_cpp.cpp ****             return sem_signal(myHandle);
 128:src/syscall_cpp.cpp ****         else
 129:src/syscall_cpp.cpp ****             return 0;
 130:src/syscall_cpp.cpp ****     }
 131:src/syscall_cpp.cpp ****     else {
 132:src/syscall_cpp.cpp ****         if (turnFlag) {
 133:src/syscall_cpp.cpp ****             int id = getThreadId();
 134:src/syscall_cpp.cpp ****             printString("Signal zove: ");
 135:src/syscall_cpp.cpp ****             printInt(id);
 136:src/syscall_cpp.cpp ****             printString("\n");
 137:src/syscall_cpp.cpp ****         }
 138:src/syscall_cpp.cpp ****         return sem_signal(myHandle);
 139:src/syscall_cpp.cpp ****     }
 140:src/syscall_cpp.cpp **** }
 141:src/syscall_cpp.cpp **** 
 142:src/syscall_cpp.cpp **** int Semaphore::tryWait() {
 143:src/syscall_cpp.cpp ****     return sem_trywait(myHandle);
 144:src/syscall_cpp.cpp **** }
 145:src/syscall_cpp.cpp **** 
 146:src/syscall_cpp.cpp **** void Semaphore::turnOnPriorities() {
 147:src/syscall_cpp.cpp ****     turnFlag=true;
GAS LISTING /tmp/ccIbwoOS.s 			page 8


 148:src/syscall_cpp.cpp **** }
 149:src/syscall_cpp.cpp **** 
 150:src/syscall_cpp.cpp **** Semaphore::~Semaphore() {
 195              		.loc 2 150 1 is_stmt 1
 196              		.cfi_startproc
 197              		.cfi_personality 0x9b,DW.ref.__gxx_personality_v0
 198              		.cfi_lsda 0x1b,.LLSDA47
 199              	.LVL10:
 200 00a4 130101FE 		addi	sp,sp,-32
 201              		.cfi_def_cfa_offset 32
 202 00a8 233C1100 		sd	ra,24(sp)
 203 00ac 23388100 		sd	s0,16(sp)
 204 00b0 23349100 		sd	s1,8(sp)
 205              		.cfi_offset 1, -8
 206              		.cfi_offset 8, -16
 207              		.cfi_offset 9, -24
 208 00b4 13040102 		addi	s0,sp,32
 209              		.cfi_def_cfa 8, 0
 210 00b8 93040500 		mv	s1,a0
 211              	.LBB11:
 212              		.loc 2 150 23 is_stmt 0
 213 00bc 97070000 		lla	a5,_ZTV9Semaphore+16
 213      93870700 
 214 00c4 2330F500 		sd	a5,0(a0)
 151:src/syscall_cpp.cpp ****     sem_close(myHandle);
 215              		.loc 2 151 5 is_stmt 1
 216              		.loc 2 151 14 is_stmt 0
 217 00c8 03358500 		ld	a0,8(a0)
 218              	.LVL11:
 219 00cc 97000000 		call	_Z9sem_closeP3Sem@plt
 219      E7800000 
 220              	.LVL12:
 152:src/syscall_cpp.cpp ****     delete myHandle;
 221              		.loc 2 152 5 is_stmt 1
 222              		.loc 2 152 12 is_stmt 0
 223 00d4 03B58400 		ld	a0,8(s1)
 224              		.loc 2 152 20
 225 00d8 63060500 		beqz	a0,.L13
 226              		.loc 2 152 12 discriminator 1
 227 00dc 97000000 		call	_ZdlPv
 227      E7800000 
 228              	.LVL13:
 229              	.L13:
 230              	.LBE11:
 153:src/syscall_cpp.cpp **** }
 231              		.loc 2 153 1
 232 00e4 83308101 		ld	ra,24(sp)
 233              		.cfi_restore 1
 234 00e8 03340101 		ld	s0,16(sp)
 235              		.cfi_restore 8
 236              		.cfi_def_cfa 2, 32
 237 00ec 83348100 		ld	s1,8(sp)
 238              		.cfi_restore 9
 239              	.LVL14:
 240 00f0 13010102 		addi	sp,sp,32
 241              		.cfi_def_cfa_offset 0
 242 00f4 67800000 		jr	ra
GAS LISTING /tmp/ccIbwoOS.s 			page 9


 243              		.cfi_endproc
 244              	.LFE47:
 245              		.globl	__gxx_personality_v0
 246              		.section	.gcc_except_table,"a",@progbits
 247              	.LLSDA47:
 248 0000 FF       		.byte	0xff
 249 0001 FF       		.byte	0xff
 250 0002 03       		.byte	0x3
 251 0003 00       		.byte	0
 252              		.text
 254              		.globl	_ZN9SemaphoreD1Ev
 255              		.set	_ZN9SemaphoreD1Ev,_ZN9SemaphoreD2Ev
 256              		.align	2
 257              		.globl	_ZN9SemaphoreD0Ev
 259              	_ZN9SemaphoreD0Ev:
 260              	.LFB49:
 150:src/syscall_cpp.cpp ****     sem_close(myHandle);
 261              		.loc 2 150 1 is_stmt 1
 262              		.cfi_startproc
 263              	.LVL15:
 264 00f8 130101FE 		addi	sp,sp,-32
 265              		.cfi_def_cfa_offset 32
 266 00fc 233C1100 		sd	ra,24(sp)
 267 0100 23388100 		sd	s0,16(sp)
 268 0104 23349100 		sd	s1,8(sp)
 269              		.cfi_offset 1, -8
 270              		.cfi_offset 8, -16
 271              		.cfi_offset 9, -24
 272 0108 13040102 		addi	s0,sp,32
 273              		.cfi_def_cfa 8, 0
 274 010c 93040500 		mv	s1,a0
 275              		.loc 2 153 1 is_stmt 0
 276 0110 97000000 		call	_ZN9SemaphoreD1Ev
 276      E7800000 
 277              	.LVL16:
 278 0118 13850400 		mv	a0,s1
 279 011c 97000000 		call	_ZdlPv
 279      E7800000 
 280              	.LVL17:
 281 0124 83308101 		ld	ra,24(sp)
 282              		.cfi_restore 1
 283 0128 03340101 		ld	s0,16(sp)
 284              		.cfi_restore 8
 285              		.cfi_def_cfa 2, 32
 286 012c 83348100 		ld	s1,8(sp)
 287              		.cfi_restore 9
 288              	.LVL18:
 289 0130 13010102 		addi	sp,sp,32
 290              		.cfi_def_cfa_offset 0
 291 0134 67800000 		jr	ra
 292              		.cfi_endproc
 293              	.LFE49:
 295              		.align	2
 296              		.globl	_ZdaPv
 298              	_ZdaPv:
 299              	.LFB23:
  16:src/syscall_cpp.cpp ****     mem_free(p);
GAS LISTING /tmp/ccIbwoOS.s 			page 10


 300              		.loc 2 16 32 is_stmt 1
 301              		.cfi_startproc
 302              	.LVL19:
 303 0138 130101FF 		addi	sp,sp,-16
 304              		.cfi_def_cfa_offset 16
 305 013c 23341100 		sd	ra,8(sp)
 306 0140 23308100 		sd	s0,0(sp)
 307              		.cfi_offset 1, -8
 308              		.cfi_offset 8, -16
 309 0144 13040101 		addi	s0,sp,16
 310              		.cfi_def_cfa 8, 0
  17:src/syscall_cpp.cpp **** }
 311              		.loc 2 17 5
  17:src/syscall_cpp.cpp **** }
 312              		.loc 2 17 13 is_stmt 0
 313 0148 97000000 		call	_Z8mem_freePv@plt
 313      E7800000 
 314              	.LVL20:
  18:src/syscall_cpp.cpp **** //niti
 315              		.loc 2 18 1
 316 0150 83308100 		ld	ra,8(sp)
 317              		.cfi_restore 1
 318 0154 03340100 		ld	s0,0(sp)
 319              		.cfi_restore 8
 320              		.cfi_def_cfa 2, 16
 321 0158 13010101 		addi	sp,sp,16
 322              		.cfi_def_cfa_offset 0
 323 015c 67800000 		jr	ra
 324              		.cfi_endproc
 325              	.LFE23:
 327              		.align	2
 328              		.globl	_ZN6ThreadD2Ev
 330              	_ZN6ThreadD2Ev:
 331              	.LFB31:
  41:src/syscall_cpp.cpp ****     this->body = nullptr;
 332              		.loc 2 41 1 is_stmt 1
 333              		.cfi_startproc
 334              		.cfi_personality 0x9b,DW.ref.__gxx_personality_v0
 335              		.cfi_lsda 0x1b,.LLSDA31
 336              	.LVL21:
 337 0160 130101FE 		addi	sp,sp,-32
 338              		.cfi_def_cfa_offset 32
 339 0164 233C1100 		sd	ra,24(sp)
 340 0168 23388100 		sd	s0,16(sp)
 341 016c 23349100 		sd	s1,8(sp)
 342              		.cfi_offset 1, -8
 343              		.cfi_offset 8, -16
 344              		.cfi_offset 9, -24
 345 0170 13040102 		addi	s0,sp,32
 346              		.cfi_def_cfa 8, 0
 347              	.LBB12:
  41:src/syscall_cpp.cpp ****     this->body = nullptr;
 348              		.loc 2 41 17 is_stmt 0
 349 0174 97070000 		lla	a5,_ZTV6Thread+16
 349      93870700 
 350 017c 2330F500 		sd	a5,0(a0)
  42:src/syscall_cpp.cpp ****     this->arg = nullptr;
GAS LISTING /tmp/ccIbwoOS.s 			page 11


 351              		.loc 2 42 5 is_stmt 1
  42:src/syscall_cpp.cpp ****     this->arg = nullptr;
 352              		.loc 2 42 16 is_stmt 0
 353 0180 23380500 		sd	zero,16(a0)
  43:src/syscall_cpp.cpp ****     myHandle->setFinished(true);
 354              		.loc 2 43 5 is_stmt 1
  43:src/syscall_cpp.cpp ****     myHandle->setFinished(true);
 355              		.loc 2 43 15 is_stmt 0
 356 0184 233C0500 		sd	zero,24(a0)
  44:src/syscall_cpp.cpp ****     delete myHandle;
 357              		.loc 2 44 5 is_stmt 1
 358 0188 83378500 		ld	a5,8(a0)
 359              	.LVL22:
 360              	.LBB13:
 361              	.LBB14:
 362              		.file 3 "src/../h/tcb.hpp"
   1:src/../h/tcb.hpp **** #ifndef tcb_hpp
   2:src/../h/tcb.hpp **** #define tcb_hpp
   3:src/../h/tcb.hpp **** 
   4:src/../h/tcb.hpp **** #include "scheduler.hpp"
   5:src/../h/tcb.hpp **** #include "../lib/hw.h"
   6:src/../h/tcb.hpp **** #include "syscall_cpp.hpp"
   7:src/../h/tcb.hpp **** class Semaphore;
   8:src/../h/tcb.hpp **** class TCB
   9:src/../h/tcb.hpp **** {
  10:src/../h/tcb.hpp **** public:
  11:src/../h/tcb.hpp ****     ~TCB() { delete[] stack; }
  12:src/../h/tcb.hpp **** 
  13:src/../h/tcb.hpp ****     bool isFinished() const { return finished; }
  14:src/../h/tcb.hpp **** 
  15:src/../h/tcb.hpp ****     void setFinished(bool value) { finished = value; }
 363              		.loc 3 15 36
 364              		.loc 3 15 45 is_stmt 0
 365 018c 13071000 		li	a4,1
 366 0190 2388E702 		sb	a4,48(a5)
 367              	.LVL23:
 368              	.LBE14:
 369              	.LBE13:
  45:src/syscall_cpp.cpp **** }
 370              		.loc 2 45 5 is_stmt 1
  45:src/syscall_cpp.cpp **** }
 371              		.loc 2 45 12 is_stmt 0
 372 0194 83348500 		ld	s1,8(a0)
  45:src/syscall_cpp.cpp **** }
 373              		.loc 2 45 20
 374 0198 63800402 		beqz	s1,.L20
 375              	.LVL24:
 376              	.LBB15:
 377              	.LBB16:
  11:src/../h/tcb.hpp **** 
 378              		.loc 3 11 14 is_stmt 1
  11:src/../h/tcb.hpp **** 
 379              		.loc 3 11 23 is_stmt 0
 380 019c 03B50401 		ld	a0,16(s1)
 381              	.LVL25:
  11:src/../h/tcb.hpp **** 
 382              		.loc 3 11 28
GAS LISTING /tmp/ccIbwoOS.s 			page 12


 383 01a0 63060500 		beqz	a0,.L22
  11:src/../h/tcb.hpp **** 
 384              		.loc 3 11 23
 385 01a4 97000000 		call	_ZdaPv
 385      E7800000 
 386              	.LVL26:
 387              	.L22:
 388              	.LBE16:
 389              	.LBE15:
  45:src/syscall_cpp.cpp **** }
 390              		.loc 2 45 12
 391 01ac 13850400 		mv	a0,s1
 392 01b0 97000000 		call	_ZdlPv
 392      E7800000 
 393              	.LVL27:
 394              	.L20:
 395              	.LBE12:
  46:src/syscall_cpp.cpp **** Thread::Thread() {
 396              		.loc 2 46 1
 397 01b8 83308101 		ld	ra,24(sp)
 398              		.cfi_restore 1
 399 01bc 03340101 		ld	s0,16(sp)
 400              		.cfi_restore 8
 401              		.cfi_def_cfa 2, 32
 402 01c0 83348100 		ld	s1,8(sp)
 403              		.cfi_restore 9
 404 01c4 13010102 		addi	sp,sp,32
 405              		.cfi_def_cfa_offset 0
 406 01c8 67800000 		jr	ra
 407              		.cfi_endproc
 408              	.LFE31:
 409              		.section	.gcc_except_table
 410              	.LLSDA31:
 411 0004 FF       		.byte	0xff
 412 0005 FF       		.byte	0xff
 413 0006 03       		.byte	0x3
 414 0007 00       		.byte	0
 415              		.text
 417              		.globl	_ZN6ThreadD1Ev
 418              		.set	_ZN6ThreadD1Ev,_ZN6ThreadD2Ev
 419              		.align	2
 420              		.globl	_ZN6ThreadD0Ev
 422              	_ZN6ThreadD0Ev:
 423              	.LFB33:
  41:src/syscall_cpp.cpp ****     this->body = nullptr;
 424              		.loc 2 41 1 is_stmt 1
 425              		.cfi_startproc
 426              	.LVL28:
 427 01cc 130101FE 		addi	sp,sp,-32
 428              		.cfi_def_cfa_offset 32
 429 01d0 233C1100 		sd	ra,24(sp)
 430 01d4 23388100 		sd	s0,16(sp)
 431 01d8 23349100 		sd	s1,8(sp)
 432              		.cfi_offset 1, -8
 433              		.cfi_offset 8, -16
 434              		.cfi_offset 9, -24
 435 01dc 13040102 		addi	s0,sp,32
GAS LISTING /tmp/ccIbwoOS.s 			page 13


 436              		.cfi_def_cfa 8, 0
 437 01e0 93040500 		mv	s1,a0
  46:src/syscall_cpp.cpp **** Thread::Thread() {
 438              		.loc 2 46 1 is_stmt 0
 439 01e4 97000000 		call	_ZN6ThreadD1Ev
 439      E7800000 
 440              	.LVL29:
 441 01ec 13850400 		mv	a0,s1
 442 01f0 97000000 		call	_ZdlPv
 442      E7800000 
 443              	.LVL30:
 444 01f8 83308101 		ld	ra,24(sp)
 445              		.cfi_restore 1
 446 01fc 03340101 		ld	s0,16(sp)
 447              		.cfi_restore 8
 448              		.cfi_def_cfa 2, 32
 449 0200 83348100 		ld	s1,8(sp)
 450              		.cfi_restore 9
 451              	.LVL31:
 452 0204 13010102 		addi	sp,sp,32
 453              		.cfi_def_cfa_offset 0
 454 0208 67800000 		jr	ra
 455              		.cfi_endproc
 456              	.LFE33:
 458              		.section	.text._ZN14PeriodicThreadD2Ev,"axG",@progbits,_ZN14PeriodicThreadD5Ev,comdat
 459              		.align	2
 460              		.weak	_ZN14PeriodicThreadD2Ev
 462              	_ZN14PeriodicThreadD2Ev:
 463              	.LFB59:
  51:src/../h/syscall_cpp.hpp **** public:
 464              		.loc 1 51 7 is_stmt 1
 465              		.cfi_startproc
 466              	.LVL32:
 467 0000 130101FF 		addi	sp,sp,-16
 468              		.cfi_def_cfa_offset 16
 469 0004 23341100 		sd	ra,8(sp)
 470 0008 23308100 		sd	s0,0(sp)
 471              		.cfi_offset 1, -8
 472              		.cfi_offset 8, -16
 473 000c 13040101 		addi	s0,sp,16
 474              		.cfi_def_cfa 8, 0
 475              	.LBB17:
  51:src/../h/syscall_cpp.hpp **** public:
 476              		.loc 1 51 7 is_stmt 0
 477 0010 97070000 		lla	a5,_ZTV14PeriodicThread+16
 477      93870700 
 478 0018 2330F500 		sd	a5,0(a0)
 479 001c 97000000 		call	_ZN6ThreadD2Ev
 479      E7800000 
 480              	.LVL33:
 481              	.LBE17:
 482 0024 83308100 		ld	ra,8(sp)
 483              		.cfi_restore 1
 484 0028 03340100 		ld	s0,0(sp)
 485              		.cfi_restore 8
 486              		.cfi_def_cfa 2, 16
 487 002c 13010101 		addi	sp,sp,16
GAS LISTING /tmp/ccIbwoOS.s 			page 14


 488              		.cfi_def_cfa_offset 0
 489 0030 67800000 		jr	ra
 490              		.cfi_endproc
 491              	.LFE59:
 493              		.weak	_ZN14PeriodicThreadD1Ev
 494              		.set	_ZN14PeriodicThreadD1Ev,_ZN14PeriodicThreadD2Ev
 495              		.section	.text._ZN14PeriodicThreadD0Ev,"axG",@progbits,_ZN14PeriodicThreadD5Ev,comdat
 496              		.align	2
 497              		.weak	_ZN14PeriodicThreadD0Ev
 499              	_ZN14PeriodicThreadD0Ev:
 500              	.LFB61:
  51:src/../h/syscall_cpp.hpp **** public:
 501              		.loc 1 51 7 is_stmt 1
 502              		.cfi_startproc
 503              	.LVL34:
 504 0000 130101FE 		addi	sp,sp,-32
 505              		.cfi_def_cfa_offset 32
 506 0004 233C1100 		sd	ra,24(sp)
 507 0008 23388100 		sd	s0,16(sp)
 508 000c 23349100 		sd	s1,8(sp)
 509              		.cfi_offset 1, -8
 510              		.cfi_offset 8, -16
 511              		.cfi_offset 9, -24
 512 0010 13040102 		addi	s0,sp,32
 513              		.cfi_def_cfa 8, 0
 514 0014 93040500 		mv	s1,a0
 515              	.LVL35:
 516              	.LBB18:
 517              	.LBB19:
  51:src/../h/syscall_cpp.hpp **** public:
 518              		.loc 1 51 7 is_stmt 0
 519 0018 97070000 		lla	a5,_ZTV14PeriodicThread+16
 519      93870700 
 520 0020 2330F500 		sd	a5,0(a0)
 521 0024 97000000 		call	_ZN6ThreadD2Ev
 521      E7800000 
 522              	.LVL36:
 523              	.LBE19:
 524              	.LBE18:
 525 002c 13850400 		mv	a0,s1
 526 0030 97000000 		call	_ZdlPv
 526      E7800000 
 527              	.LVL37:
 528 0038 83308101 		ld	ra,24(sp)
 529              		.cfi_restore 1
 530 003c 03340101 		ld	s0,16(sp)
 531              		.cfi_restore 8
 532              		.cfi_def_cfa 2, 32
 533 0040 83348100 		ld	s1,8(sp)
 534              		.cfi_restore 9
 535              	.LVL38:
 536 0044 13010102 		addi	sp,sp,32
 537              		.cfi_def_cfa_offset 0
 538 0048 67800000 		jr	ra
 539              		.cfi_endproc
 540              	.LFE61:
 542              		.text
GAS LISTING /tmp/ccIbwoOS.s 			page 15


 543              		.align	2
 544              		.globl	_ZN6Thread5startEv
 546              	_ZN6Thread5startEv:
 547              	.LFB24:
  21:src/syscall_cpp.cpp ****     int k;
 548              		.loc 2 21 21 is_stmt 1
 549              		.cfi_startproc
 550              	.LVL39:
 551 020c 130101FF 		addi	sp,sp,-16
 552              		.cfi_def_cfa_offset 16
 553 0210 23341100 		sd	ra,8(sp)
 554 0214 23308100 		sd	s0,0(sp)
 555              		.cfi_offset 1, -8
 556              		.cfi_offset 8, -16
 557 0218 13040101 		addi	s0,sp,16
 558              		.cfi_def_cfa 8, 0
  22:src/syscall_cpp.cpp ****     k = thread_create(&this->myHandle,body, arg);//ove video
 559              		.loc 2 22 5
  23:src/syscall_cpp.cpp ****     return k;
 560              		.loc 2 23 5
  23:src/syscall_cpp.cpp ****     return k;
 561              		.loc 2 23 22 is_stmt 0
 562 021c 03368501 		ld	a2,24(a0)
 563 0220 83350501 		ld	a1,16(a0)
 564 0224 13058500 		addi	a0,a0,8
 565              	.LVL40:
 566 0228 97000000 		call	_Z13thread_createPP3TCBPFvPvES2_@plt
 566      E7800000 
 567              	.LVL41:
  24:src/syscall_cpp.cpp **** }
 568              		.loc 2 24 5 is_stmt 1
  25:src/syscall_cpp.cpp **** //void Thread::join(){
 569              		.loc 2 25 1 is_stmt 0
 570 0230 83308100 		ld	ra,8(sp)
 571              		.cfi_restore 1
 572 0234 03340100 		ld	s0,0(sp)
 573              		.cfi_restore 8
 574              		.cfi_def_cfa 2, 16
 575 0238 13010101 		addi	sp,sp,16
 576              		.cfi_def_cfa_offset 0
 577 023c 67800000 		jr	ra
 578              		.cfi_endproc
 579              	.LFE24:
 581              		.align	2
 582              		.globl	_ZN6Thread8dispatchEv
 584              	_ZN6Thread8dispatchEv:
 585              	.LFB25:
  29:src/syscall_cpp.cpp ****     thread_dispatch();
 586              		.loc 2 29 24 is_stmt 1
 587              		.cfi_startproc
 588 0240 130101FF 		addi	sp,sp,-16
 589              		.cfi_def_cfa_offset 16
 590 0244 23341100 		sd	ra,8(sp)
 591 0248 23308100 		sd	s0,0(sp)
 592              		.cfi_offset 1, -8
 593              		.cfi_offset 8, -16
 594 024c 13040101 		addi	s0,sp,16
GAS LISTING /tmp/ccIbwoOS.s 			page 16


 595              		.cfi_def_cfa 8, 0
  30:src/syscall_cpp.cpp **** }
 596              		.loc 2 30 5
  30:src/syscall_cpp.cpp **** }
 597              		.loc 2 30 20 is_stmt 0
 598 0250 97000000 		call	_Z15thread_dispatchv@plt
 598      E7800000 
 599              	.LVL42:
  31:src/syscall_cpp.cpp **** int Thread::sleep (time_t time){
 600              		.loc 2 31 1
 601 0258 83308100 		ld	ra,8(sp)
 602              		.cfi_restore 1
 603 025c 03340100 		ld	s0,0(sp)
 604              		.cfi_restore 8
 605              		.cfi_def_cfa 2, 16
 606 0260 13010101 		addi	sp,sp,16
 607              		.cfi_def_cfa_offset 0
 608 0264 67800000 		jr	ra
 609              		.cfi_endproc
 610              	.LFE25:
 612              		.align	2
 613              		.globl	_ZN6Thread5sleepEm
 615              	_ZN6Thread5sleepEm:
 616              	.LFB26:
  32:src/syscall_cpp.cpp ****     return 0;
 617              		.loc 2 32 32 is_stmt 1
 618              		.cfi_startproc
 619              	.LVL43:
 620 0268 130101FF 		addi	sp,sp,-16
 621              		.cfi_def_cfa_offset 16
 622 026c 23348100 		sd	s0,8(sp)
 623              		.cfi_offset 8, -8
 624 0270 13040101 		addi	s0,sp,16
 625              		.cfi_def_cfa 8, 0
  33:src/syscall_cpp.cpp **** }
 626              		.loc 2 33 5
  34:src/syscall_cpp.cpp **** 
 627              		.loc 2 34 1 is_stmt 0
 628 0274 13050000 		li	a0,0
 629              	.LVL44:
 630 0278 03348100 		ld	s0,8(sp)
 631              		.cfi_restore 8
 632              		.cfi_def_cfa 2, 16
 633 027c 13010101 		addi	sp,sp,16
 634              		.cfi_def_cfa_offset 0
 635 0280 67800000 		jr	ra
 636              		.cfi_endproc
 637              	.LFE26:
 639              		.align	2
 640              		.globl	_ZN6ThreadC2EPFvPvES0_
 642              	_ZN6ThreadC2EPFvPvES0_:
 643              	.LFB28:
  36:src/syscall_cpp.cpp ****     this->body = body;
 644              		.loc 2 36 1 is_stmt 1
 645              		.cfi_startproc
 646              	.LVL45:
 647 0284 130101FF 		addi	sp,sp,-16
GAS LISTING /tmp/ccIbwoOS.s 			page 17


 648              		.cfi_def_cfa_offset 16
 649 0288 23348100 		sd	s0,8(sp)
 650              		.cfi_offset 8, -8
 651 028c 13040101 		addi	s0,sp,16
 652              		.cfi_def_cfa 8, 0
 653              	.LBB20:
  36:src/syscall_cpp.cpp ****     this->body = body;
 654              		.loc 2 36 47 is_stmt 0
 655 0290 97070000 		lla	a5,_ZTV6Thread+16
 655      93870700 
 656 0298 2330F500 		sd	a5,0(a0)
  37:src/syscall_cpp.cpp ****     this->arg = arg;
 657              		.loc 2 37 5 is_stmt 1
  37:src/syscall_cpp.cpp ****     this->arg = arg;
 658              		.loc 2 37 16 is_stmt 0
 659 029c 2338B500 		sd	a1,16(a0)
  38:src/syscall_cpp.cpp **** }
 660              		.loc 2 38 5 is_stmt 1
  38:src/syscall_cpp.cpp **** }
 661              		.loc 2 38 15 is_stmt 0
 662 02a0 233CC500 		sd	a2,24(a0)
 663              	.LBE20:
  39:src/syscall_cpp.cpp **** 
 664              		.loc 2 39 1
 665 02a4 03348100 		ld	s0,8(sp)
 666              		.cfi_restore 8
 667              		.cfi_def_cfa 2, 16
 668 02a8 13010101 		addi	sp,sp,16
 669              		.cfi_def_cfa_offset 0
 670 02ac 67800000 		jr	ra
 671              		.cfi_endproc
 672              	.LFE28:
 674              		.globl	_ZN6ThreadC1EPFvPvES0_
 675              		.set	_ZN6ThreadC1EPFvPvES0_,_ZN6ThreadC2EPFvPvES0_
 676              		.align	2
 677              		.globl	_ZN6ThreadC2Ev
 679              	_ZN6ThreadC2Ev:
 680              	.LFB35:
  47:src/syscall_cpp.cpp ****     body = thread_wrapper;
 681              		.loc 2 47 1 is_stmt 1
 682              		.cfi_startproc
 683              	.LVL46:
 684 02b0 130101FF 		addi	sp,sp,-16
 685              		.cfi_def_cfa_offset 16
 686 02b4 23348100 		sd	s0,8(sp)
 687              		.cfi_offset 8, -8
 688 02b8 13040101 		addi	s0,sp,16
 689              		.cfi_def_cfa 8, 0
 690              	.LBB21:
  47:src/syscall_cpp.cpp ****     body = thread_wrapper;
 691              		.loc 2 47 16 is_stmt 0
 692 02bc 97070000 		lla	a5,_ZTV6Thread+16
 692      93870700 
 693 02c4 2330F500 		sd	a5,0(a0)
  48:src/syscall_cpp.cpp ****     arg = this;
 694              		.loc 2 48 5 is_stmt 1
  48:src/syscall_cpp.cpp ****     arg = this;
GAS LISTING /tmp/ccIbwoOS.s 			page 18


 695              		.loc 2 48 10 is_stmt 0
 696 02c8 97070000 		lla	a5,_ZN6Thread14thread_wrapperEPv
 696      93870700 
 697 02d0 2338F500 		sd	a5,16(a0)
  49:src/syscall_cpp.cpp **** }
 698              		.loc 2 49 5 is_stmt 1
  49:src/syscall_cpp.cpp **** }
 699              		.loc 2 49 9 is_stmt 0
 700 02d4 233CA500 		sd	a0,24(a0)
 701              	.LBE21:
  50:src/syscall_cpp.cpp **** 
 702              		.loc 2 50 1
 703 02d8 03348100 		ld	s0,8(sp)
 704              		.cfi_restore 8
 705              		.cfi_def_cfa 2, 16
 706 02dc 13010101 		addi	sp,sp,16
 707              		.cfi_def_cfa_offset 0
 708 02e0 67800000 		jr	ra
 709              		.cfi_endproc
 710              	.LFE35:
 712              		.globl	_ZN6ThreadC1Ev
 713              		.set	_ZN6ThreadC1Ev,_ZN6ThreadC2Ev
 714              		.align	2
 715              		.globl	_ZN6Thread4pingEv
 717              	_ZN6Thread4pingEv:
 718              	.LFB38:
  56:src/syscall_cpp.cpp ****     ::ping(myHandle);
 719              		.loc 2 56 21 is_stmt 1
 720              		.cfi_startproc
 721              	.LVL47:
 722 02e4 130101FF 		addi	sp,sp,-16
 723              		.cfi_def_cfa_offset 16
 724 02e8 23341100 		sd	ra,8(sp)
 725 02ec 23308100 		sd	s0,0(sp)
 726              		.cfi_offset 1, -8
 727              		.cfi_offset 8, -16
 728 02f0 13040101 		addi	s0,sp,16
 729              		.cfi_def_cfa 8, 0
  57:src/syscall_cpp.cpp **** }
 730              		.loc 2 57 5
  57:src/syscall_cpp.cpp **** }
 731              		.loc 2 57 11 is_stmt 0
 732 02f4 03358500 		ld	a0,8(a0)
 733              	.LVL48:
 734 02f8 97000000 		call	_Z4pingP3TCB@plt
 734      E7800000 
 735              	.LVL49:
  58:src/syscall_cpp.cpp **** 
 736              		.loc 2 58 1
 737 0300 83308100 		ld	ra,8(sp)
 738              		.cfi_restore 1
 739 0304 03340100 		ld	s0,0(sp)
 740              		.cfi_restore 8
 741              		.cfi_def_cfa 2, 16
 742 0308 13010101 		addi	sp,sp,16
 743              		.cfi_def_cfa_offset 0
 744 030c 67800000 		jr	ra
GAS LISTING /tmp/ccIbwoOS.s 			page 19


 745              		.cfi_endproc
 746              	.LFE38:
 748              		.align	2
 749              		.globl	_ZN9SemaphoreC2Ej
 751              	_ZN9SemaphoreC2Ej:
 752              	.LFB40:
  60:src/syscall_cpp.cpp ****     turnFlag=false;
 753              		.loc 2 60 1 is_stmt 1
 754              		.cfi_startproc
 755              	.LVL50:
 756 0310 130101FF 		addi	sp,sp,-16
 757              		.cfi_def_cfa_offset 16
 758 0314 23341100 		sd	ra,8(sp)
 759 0318 23308100 		sd	s0,0(sp)
 760              		.cfi_offset 1, -8
 761              		.cfi_offset 8, -16
 762 031c 13040101 		addi	s0,sp,16
 763              		.cfi_def_cfa 8, 0
 764              	.LBB22:
  60:src/syscall_cpp.cpp ****     turnFlag=false;
 765              		.loc 2 60 39 is_stmt 0
 766 0320 97070000 		lla	a5,_ZTV9Semaphore+16
 766      93870700 
 767 0328 2330F500 		sd	a5,0(a0)
  61:src/syscall_cpp.cpp ****     owners = nullptr;
 768              		.loc 2 61 5 is_stmt 1
  61:src/syscall_cpp.cpp ****     owners = nullptr;
 769              		.loc 2 61 13 is_stmt 0
 770 032c 23080500 		sb	zero,16(a0)
  62:src/syscall_cpp.cpp ****     sem_open(&myHandle, init);
 771              		.loc 2 62 5 is_stmt 1
  62:src/syscall_cpp.cpp ****     sem_open(&myHandle, init);
 772              		.loc 2 62 12 is_stmt 0
 773 0330 233C0500 		sd	zero,24(a0)
  63:src/syscall_cpp.cpp **** }
 774              		.loc 2 63 5 is_stmt 1
  63:src/syscall_cpp.cpp **** }
 775              		.loc 2 63 13 is_stmt 0
 776 0334 13058500 		addi	a0,a0,8
 777              	.LVL51:
 778 0338 97000000 		call	_Z8sem_openPP3Semj@plt
 778      E7800000 
 779              	.LVL52:
 780              	.LBE22:
  64:src/syscall_cpp.cpp **** int Semaphore::wait(){
 781              		.loc 2 64 1
 782 0340 83308100 		ld	ra,8(sp)
 783              		.cfi_restore 1
 784 0344 03340100 		ld	s0,0(sp)
 785              		.cfi_restore 8
 786              		.cfi_def_cfa 2, 16
 787 0348 13010101 		addi	sp,sp,16
 788              		.cfi_def_cfa_offset 0
 789 034c 67800000 		jr	ra
 790              		.cfi_endproc
 791              	.LFE40:
 793              		.globl	_ZN9SemaphoreC1Ej
GAS LISTING /tmp/ccIbwoOS.s 			page 20


 794              		.set	_ZN9SemaphoreC1Ej,_ZN9SemaphoreC2Ej
 795              		.section	.rodata.str1.8,"aMS",@progbits,1
 796              		.align	3
 797              	.LC0:
 798 0000 43656B61 		.string	"Cekam na semaforu id:"
 798      6D206E61 
 798      2073656D 
 798      61666F72 
 798      75206964 
 799 0016 0000     		.align	3
 800              	.LC1:
 801 0018 200A00   		.string	" \n"
 802 001b 00000000 		.align	3
 802      00
 803              	.LC2:
 804 0020 57616974 		.string	"Wait zove: "
 804      207A6F76 
 804      653A2000 
 805 002c 00000000 		.align	3
 806              	.LC3:
 807 0030 0A00     		.string	"\n"
 808              		.text
 809              		.align	2
 810              		.globl	_ZN9Semaphore4waitEv
 812              	_ZN9Semaphore4waitEv:
 813              	.LFB42:
  65:src/syscall_cpp.cpp **** 
 814              		.loc 2 65 22 is_stmt 1
 815              		.cfi_startproc
 816              	.LVL53:
 817 0350 130101FE 		addi	sp,sp,-32
 818              		.cfi_def_cfa_offset 32
 819 0354 233C1100 		sd	ra,24(sp)
 820 0358 23388100 		sd	s0,16(sp)
 821 035c 23349100 		sd	s1,8(sp)
 822 0360 23302101 		sd	s2,0(sp)
 823              		.cfi_offset 1, -8
 824              		.cfi_offset 8, -16
 825              		.cfi_offset 9, -24
 826              		.cfi_offset 18, -32
 827 0364 13040102 		addi	s0,sp,32
 828              		.cfi_def_cfa 8, 0
 829 0368 13090500 		mv	s2,a0
  67:src/syscall_cpp.cpp ****         RedOwner* a= nullptr;
 830              		.loc 2 67 5
 831              	.LBB23:
  67:src/syscall_cpp.cpp ****         RedOwner* a= nullptr;
 832              		.loc 2 67 8 is_stmt 0
 833 036c 83378501 		ld	a5,24(a0)
  67:src/syscall_cpp.cpp ****         RedOwner* a= nullptr;
 834              		.loc 2 67 5
 835 0370 638E070A 		beqz	a5,.L45
 836              	.LBB24:
  68:src/syscall_cpp.cpp ****         bool ownersFlag = false;
 837              		.loc 2 68 9 is_stmt 1
 838              	.LVL54:
  69:src/syscall_cpp.cpp ****         int id = getThreadId();
GAS LISTING /tmp/ccIbwoOS.s 			page 21


 839              		.loc 2 69 9
  70:src/syscall_cpp.cpp ****         for(a = owners; a;a=a->next){
 840              		.loc 2 70 9
  70:src/syscall_cpp.cpp ****         for(a = owners; a;a=a->next){
 841              		.loc 2 70 29 is_stmt 0
 842 0374 97000000 		call	_Z11getThreadIdv@plt
 842      E7800000 
 843              	.LVL55:
 844 037c 93040500 		mv	s1,a0
 845              	.LVL56:
  71:src/syscall_cpp.cpp ****             if(a->owner==id){
 846              		.loc 2 71 9 is_stmt 1
  71:src/syscall_cpp.cpp ****             if(a->owner==id){
 847              		.loc 2 71 15 is_stmt 0
 848 0380 83378901 		ld	a5,24(s2)
 849              	.LVL57:
 850              	.L50:
  71:src/syscall_cpp.cpp ****             if(a->owner==id){
 851              		.loc 2 71 25 is_stmt 1 discriminator 1
 852 0384 638A0710 		beqz	a5,.L52
  72:src/syscall_cpp.cpp ****                 ownersFlag=true;
 853              		.loc 2 72 13
  72:src/syscall_cpp.cpp ****                 ownersFlag=true;
 854              		.loc 2 72 19 is_stmt 0
 855 0388 03A70700 		lw	a4,0(a5)
  72:src/syscall_cpp.cpp ****                 ownersFlag=true;
 856              		.loc 2 72 13
 857 038c 63069700 		beq	a4,s1,.L55
  71:src/syscall_cpp.cpp ****             if(a->owner==id){
 858              		.loc 2 71 9 is_stmt 1 discriminator 2
  71:src/syscall_cpp.cpp ****             if(a->owner==id){
 859              		.loc 2 71 28 is_stmt 0 discriminator 2
 860 0390 83B78700 		ld	a5,8(a5)
 861              	.LVL58:
  71:src/syscall_cpp.cpp ****             if(a->owner==id){
 862              		.loc 2 71 9 discriminator 2
 863 0394 6FF01FFF 		j	.L50
 864              	.L55:
  73:src/syscall_cpp.cpp ****                 printString("Cekam na semaforu id:");
 865              		.loc 2 73 17 is_stmt 1
 866              	.LVL59:
  74:src/syscall_cpp.cpp ****                 printInt(id);
 867              		.loc 2 74 17
  74:src/syscall_cpp.cpp ****                 printInt(id);
 868              		.loc 2 74 28 is_stmt 0
 869 0398 17050000 		lla	a0,.LC0
 869      13050500 
 870 03a0 97000000 		call	_Z11printStringPKc@plt
 870      E7800000 
 871              	.LVL60:
  75:src/syscall_cpp.cpp ****                 printString(" \n");
 872              		.loc 2 75 17 is_stmt 1
  75:src/syscall_cpp.cpp ****                 printString(" \n");
 873              		.loc 2 75 25 is_stmt 0
 874 03a8 13060000 		li	a2,0
 875 03ac 9305A000 		li	a1,10
 876 03b0 13850400 		mv	a0,s1
GAS LISTING /tmp/ccIbwoOS.s 			page 22


 877 03b4 97000000 		call	_Z8printIntiii@plt
 877      E7800000 
 878              	.LVL61:
  76:src/syscall_cpp.cpp ****                 break;
 879              		.loc 2 76 17 is_stmt 1
  76:src/syscall_cpp.cpp ****                 break;
 880              		.loc 2 76 28 is_stmt 0
 881 03bc 17050000 		lla	a0,.LC1
 881      13050500 
 882 03c4 97000000 		call	_Z11printStringPKc@plt
 882      E7800000 
 883              	.LVL62:
  77:src/syscall_cpp.cpp ****             }
 884              		.loc 2 77 17 is_stmt 1
  79:src/syscall_cpp.cpp ****             if (turnFlag) {
 885              		.loc 2 79 10
  80:src/syscall_cpp.cpp ****                 //int id = getThreadId();
 886              		.loc 2 80 13
  80:src/syscall_cpp.cpp ****                 //int id = getThreadId();
 887              		.loc 2 80 17 is_stmt 0
 888 03cc 83470901 		lbu	a5,16(s2)
  80:src/syscall_cpp.cpp ****                 //int id = getThreadId();
 889              		.loc 2 80 13
 890 03d0 639A0700 		bnez	a5,.L48
  87:src/syscall_cpp.cpp ****             }
 891              		.loc 2 87 17 is_stmt 1
  87:src/syscall_cpp.cpp ****             }
 892              		.loc 2 87 32 is_stmt 0
 893 03d4 03358900 		ld	a0,8(s2)
 894 03d8 97000000 		call	_Z8sem_waitP3Sem@plt
 894      E7800000 
 895              	.LVL63:
  87:src/syscall_cpp.cpp ****             }
 896              		.loc 2 87 41
 897 03e0 6F00C00B 		j	.L46
 898              	.L48:
  82:src/syscall_cpp.cpp ****                 printInt(id);
 899              		.loc 2 82 17 is_stmt 1
  82:src/syscall_cpp.cpp ****                 printInt(id);
 900              		.loc 2 82 28 is_stmt 0
 901 03e4 17050000 		lla	a0,.LC2
 901      13050500 
 902 03ec 97000000 		call	_Z11printStringPKc@plt
 902      E7800000 
 903              	.LVL64:
  83:src/syscall_cpp.cpp ****                 printString("\n");
 904              		.loc 2 83 17 is_stmt 1
  83:src/syscall_cpp.cpp ****                 printString("\n");
 905              		.loc 2 83 25 is_stmt 0
 906 03f4 13060000 		li	a2,0
 907 03f8 9305A000 		li	a1,10
 908 03fc 13850400 		mv	a0,s1
 909 0400 97000000 		call	_Z8printIntiii@plt
 909      E7800000 
 910              	.LVL65:
  84:src/syscall_cpp.cpp ****                 return sem_wait_prior(myHandle, id);
 911              		.loc 2 84 17 is_stmt 1
GAS LISTING /tmp/ccIbwoOS.s 			page 23


  84:src/syscall_cpp.cpp ****                 return sem_wait_prior(myHandle, id);
 912              		.loc 2 84 28 is_stmt 0
 913 0408 17050000 		lla	a0,.LC3
 913      13050500 
 914 0410 97000000 		call	_Z11printStringPKc@plt
 914      E7800000 
 915              	.LVL66:
  85:src/syscall_cpp.cpp ****             } else {
 916              		.loc 2 85 17 is_stmt 1
  85:src/syscall_cpp.cpp ****             } else {
 917              		.loc 2 85 38 is_stmt 0
 918 0418 9B850400 		sext.w	a1,s1
 919 041c 03358900 		ld	a0,8(s2)
 920 0420 97000000 		call	_Z14sem_wait_priorP3Semj@plt
 920      E7800000 
 921              	.LVL67:
  85:src/syscall_cpp.cpp ****             } else {
 922              		.loc 2 85 51
 923 0428 6F004007 		j	.L46
 924              	.LVL68:
 925              	.L45:
 926              	.LBE24:
 927              	.LBE23:
  94:src/syscall_cpp.cpp ****             int id = getThreadId();
 928              		.loc 2 94 9 is_stmt 1
 929              	.LBB28:
 930              	.LBB25:
  94:src/syscall_cpp.cpp ****             int id = getThreadId();
 931              		.loc 2 94 13 is_stmt 0
 932 042c 83470501 		lbu	a5,16(a0)
  94:src/syscall_cpp.cpp ****             int id = getThreadId();
 933              		.loc 2 94 9
 934 0430 638C0704 		beqz	a5,.L51
 935              	.LBB26:
  95:src/syscall_cpp.cpp ****             printString("Wait zove: ");
 936              		.loc 2 95 13 is_stmt 1
  95:src/syscall_cpp.cpp ****             printString("Wait zove: ");
 937              		.loc 2 95 33 is_stmt 0
 938 0434 97000000 		call	_Z11getThreadIdv@plt
 938      E7800000 
 939              	.LVL69:
 940 043c 93040500 		mv	s1,a0
 941              	.LVL70:
  96:src/syscall_cpp.cpp ****             printInt(id);
 942              		.loc 2 96 13 is_stmt 1
  96:src/syscall_cpp.cpp ****             printInt(id);
 943              		.loc 2 96 24 is_stmt 0
 944 0440 17050000 		lla	a0,.LC2
 944      13050500 
 945 0448 97000000 		call	_Z11printStringPKc@plt
 945      E7800000 
 946              	.LVL71:
  97:src/syscall_cpp.cpp ****             printString("\n");
 947              		.loc 2 97 13 is_stmt 1
  97:src/syscall_cpp.cpp ****             printString("\n");
 948              		.loc 2 97 21 is_stmt 0
 949 0450 13060000 		li	a2,0
GAS LISTING /tmp/ccIbwoOS.s 			page 24


 950 0454 9305A000 		li	a1,10
 951 0458 13850400 		mv	a0,s1
 952 045c 97000000 		call	_Z8printIntiii@plt
 952      E7800000 
 953              	.LVL72:
  98:src/syscall_cpp.cpp ****             return sem_wait_prior(myHandle, id);
 954              		.loc 2 98 13 is_stmt 1
  98:src/syscall_cpp.cpp ****             return sem_wait_prior(myHandle, id);
 955              		.loc 2 98 24 is_stmt 0
 956 0464 17050000 		lla	a0,.LC3
 956      13050500 
 957 046c 97000000 		call	_Z11printStringPKc@plt
 957      E7800000 
 958              	.LVL73:
  99:src/syscall_cpp.cpp ****         } else {
 959              		.loc 2 99 13 is_stmt 1
  99:src/syscall_cpp.cpp ****         } else {
 960              		.loc 2 99 34 is_stmt 0
 961 0474 9B850400 		sext.w	a1,s1
 962 0478 03358900 		ld	a0,8(s2)
 963 047c 97000000 		call	_Z14sem_wait_priorP3Semj@plt
 963      E7800000 
 964              	.LVL74:
  99:src/syscall_cpp.cpp ****         } else {
 965              		.loc 2 99 47
 966 0484 6F008001 		j	.L46
 967              	.LVL75:
 968              	.L51:
 969              	.LBE26:
 101:src/syscall_cpp.cpp ****         }
 970              		.loc 2 101 13 is_stmt 1
 101:src/syscall_cpp.cpp ****         }
 971              		.loc 2 101 28 is_stmt 0
 972 0488 03358500 		ld	a0,8(a0)
 973              	.LVL76:
 974 048c 97000000 		call	_Z8sem_waitP3Sem@plt
 974      E7800000 
 975              	.LVL77:
 101:src/syscall_cpp.cpp ****         }
 976              		.loc 2 101 37
 977 0494 6F008000 		j	.L46
 978              	.LVL78:
 979              	.L52:
 980              	.LBE25:
 981              	.LBB27:
  90:src/syscall_cpp.cpp **** 
 982              		.loc 2 90 21
 983 0498 13050000 		li	a0,0
 984              	.LVL79:
 985              	.L46:
 986              	.LBE27:
 987              	.LBE28:
 104:src/syscall_cpp.cpp **** int Semaphore::signal() {
 988              		.loc 2 104 1
 989 049c 83308101 		ld	ra,24(sp)
 990              		.cfi_restore 1
 991 04a0 03340101 		ld	s0,16(sp)
GAS LISTING /tmp/ccIbwoOS.s 			page 25


 992              		.cfi_restore 8
 993              		.cfi_def_cfa 2, 32
 994 04a4 83348100 		ld	s1,8(sp)
 995              		.cfi_restore 9
 996 04a8 03390100 		ld	s2,0(sp)
 997              		.cfi_restore 18
 998              	.LVL80:
 999 04ac 13010102 		addi	sp,sp,32
 1000              		.cfi_def_cfa_offset 0
 1001 04b0 67800000 		jr	ra
 1002              		.cfi_endproc
 1003              	.LFE42:
 1005              		.section	.rodata.str1.8
 1006 0032 00000000 		.align	3
 1006      0000
 1007              	.LC4:
 1008 0038 5369676E 		.string	"Signa na semaforu id:"
 1008      61206E61 
 1008      2073656D 
 1008      61666F72 
 1008      75206964 
 1009 004e 0000     		.align	3
 1010              	.LC5:
 1011 0050 5369676E 		.string	"Signal zove: "
 1011      616C207A 
 1011      6F76653A 
 1011      2000
 1012              		.text
 1013              		.align	2
 1014              		.globl	_ZN9Semaphore6signalEv
 1016              	_ZN9Semaphore6signalEv:
 1017              	.LFB43:
 105:src/syscall_cpp.cpp **** 
 1018              		.loc 2 105 25 is_stmt 1
 1019              		.cfi_startproc
 1020              	.LVL81:
 1021 04b4 130101FD 		addi	sp,sp,-48
 1022              		.cfi_def_cfa_offset 48
 1023 04b8 23341102 		sd	ra,40(sp)
 1024 04bc 23308102 		sd	s0,32(sp)
 1025 04c0 233C9100 		sd	s1,24(sp)
 1026 04c4 23382101 		sd	s2,16(sp)
 1027 04c8 23343101 		sd	s3,8(sp)
 1028              		.cfi_offset 1, -8
 1029              		.cfi_offset 8, -16
 1030              		.cfi_offset 9, -24
 1031              		.cfi_offset 18, -32
 1032              		.cfi_offset 19, -40
 1033 04cc 13040103 		addi	s0,sp,48
 1034              		.cfi_def_cfa 8, 0
 1035 04d0 13090500 		mv	s2,a0
 107:src/syscall_cpp.cpp ****         RedOwner *a = nullptr;
 1036              		.loc 2 107 5
 1037              	.LBB29:
 107:src/syscall_cpp.cpp ****         RedOwner *a = nullptr;
 1038              		.loc 2 107 9 is_stmt 0
 1039 04d4 83378501 		ld	a5,24(a0)
GAS LISTING /tmp/ccIbwoOS.s 			page 26


 107:src/syscall_cpp.cpp ****         RedOwner *a = nullptr;
 1040              		.loc 2 107 5
 1041 04d8 6382070C 		beqz	a5,.L57
 1042              	.LBB30:
 108:src/syscall_cpp.cpp ****         bool ownersFlag = false;
 1043              		.loc 2 108 9 is_stmt 1
 1044              	.LVL82:
 109:src/syscall_cpp.cpp ****         int id = getThreadId();
 1045              		.loc 2 109 9
 110:src/syscall_cpp.cpp ****         for (a = owners; a; a = a->next) {
 1046              		.loc 2 110 9
 110:src/syscall_cpp.cpp ****         for (a = owners; a; a = a->next) {
 1047              		.loc 2 110 29 is_stmt 0
 1048 04dc 97000000 		call	_Z11getThreadIdv@plt
 1048      E7800000 
 1049              	.LVL83:
 1050 04e4 93040500 		mv	s1,a0
 1051              	.LVL84:
 111:src/syscall_cpp.cpp ****             if (a->owner == id) {
 1052              		.loc 2 111 9 is_stmt 1
 111:src/syscall_cpp.cpp ****             if (a->owner == id) {
 1053              		.loc 2 111 16 is_stmt 0
 1054 04e8 83378901 		ld	a5,24(s2)
 1055              	.LVL85:
 1056              	.L60:
 111:src/syscall_cpp.cpp ****             if (a->owner == id) {
 1057              		.loc 2 111 26 is_stmt 1 discriminator 1
 1058 04ec 63880704 		beqz	a5,.L64
 112:src/syscall_cpp.cpp ****                 ownersFlag = true;
 1059              		.loc 2 112 13
 112:src/syscall_cpp.cpp ****                 ownersFlag = true;
 1060              		.loc 2 112 20 is_stmt 0
 1061 04f0 03A70700 		lw	a4,0(a5)
 112:src/syscall_cpp.cpp ****                 ownersFlag = true;
 1062              		.loc 2 112 13
 1063 04f4 63069700 		beq	a4,s1,.L67
 111:src/syscall_cpp.cpp ****             if (a->owner == id) {
 1064              		.loc 2 111 9 is_stmt 1 discriminator 2
 111:src/syscall_cpp.cpp ****             if (a->owner == id) {
 1065              		.loc 2 111 31 is_stmt 0 discriminator 2
 1066 04f8 83B78700 		ld	a5,8(a5)
 1067              	.LVL86:
 111:src/syscall_cpp.cpp ****             if (a->owner == id) {
 1068              		.loc 2 111 9 discriminator 2
 1069 04fc 6FF01FFF 		j	.L60
 1070              	.L67:
 113:src/syscall_cpp.cpp ****                 printString("Signa na semaforu id:");
 1071              		.loc 2 113 17 is_stmt 1
 1072              	.LVL87:
 114:src/syscall_cpp.cpp ****                 printInt(id);
 1073              		.loc 2 114 17
 114:src/syscall_cpp.cpp ****                 printInt(id);
 1074              		.loc 2 114 28 is_stmt 0
 1075 0500 17050000 		lla	a0,.LC4
 1075      13050500 
 1076 0508 97000000 		call	_Z11printStringPKc@plt
 1076      E7800000 
GAS LISTING /tmp/ccIbwoOS.s 			page 27


 1077              	.LVL88:
 115:src/syscall_cpp.cpp ****                 printString(" \n");
 1078              		.loc 2 115 17 is_stmt 1
 115:src/syscall_cpp.cpp ****                 printString(" \n");
 1079              		.loc 2 115 25 is_stmt 0
 1080 0510 13060000 		li	a2,0
 1081 0514 9305A000 		li	a1,10
 1082 0518 13850400 		mv	a0,s1
 1083 051c 97000000 		call	_Z8printIntiii@plt
 1083      E7800000 
 1084              	.LVL89:
 116:src/syscall_cpp.cpp ****                 break;
 1085              		.loc 2 116 17 is_stmt 1
 116:src/syscall_cpp.cpp ****                 break;
 1086              		.loc 2 116 28 is_stmt 0
 1087 0524 17050000 		lla	a0,.LC1
 1087      13050500 
 1088 052c 97000000 		call	_Z11printStringPKc@plt
 1088      E7800000 
 1089              	.LVL90:
 117:src/syscall_cpp.cpp ****             }
 1090              		.loc 2 117 17 is_stmt 1
 113:src/syscall_cpp.cpp ****                 printString("Signa na semaforu id:");
 1091              		.loc 2 113 28 is_stmt 0
 1092 0534 93091000 		li	s3,1
 117:src/syscall_cpp.cpp ****             }
 1093              		.loc 2 117 17
 1094 0538 6F008000 		j	.L58
 1095              	.LVL91:
 1096              	.L64:
 109:src/syscall_cpp.cpp ****         int id = getThreadId();
 1097              		.loc 2 109 14
 1098 053c 93090000 		li	s3,0
 1099              	.LVL92:
 1100              	.L58:
 120:src/syscall_cpp.cpp ****             //int id = getThreadId();
 1101              		.loc 2 120 9 is_stmt 1
 120:src/syscall_cpp.cpp ****             //int id = getThreadId();
 1102              		.loc 2 120 13 is_stmt 0
 1103 0540 83470901 		lbu	a5,16(s2)
 120:src/syscall_cpp.cpp ****             //int id = getThreadId();
 1104              		.loc 2 120 9
 1105 0544 63980700 		bnez	a5,.L68
 1106              	.L61:
 126:src/syscall_cpp.cpp ****             return sem_signal(myHandle);
 1107              		.loc 2 126 9 is_stmt 1
 1108 0548 63920904 		bnez	s3,.L69
 129:src/syscall_cpp.cpp ****     }
 1109              		.loc 2 129 20 is_stmt 0
 1110 054c 13050000 		li	a0,0
 1111 0550 6F000006 		j	.L62
 1112              	.L68:
 122:src/syscall_cpp.cpp ****             printInt(id);
 1113              		.loc 2 122 13 is_stmt 1
 122:src/syscall_cpp.cpp ****             printInt(id);
 1114              		.loc 2 122 24 is_stmt 0
 1115 0554 17050000 		lla	a0,.LC5
GAS LISTING /tmp/ccIbwoOS.s 			page 28


 1115      13050500 
 1116 055c 97000000 		call	_Z11printStringPKc@plt
 1116      E7800000 
 1117              	.LVL93:
 123:src/syscall_cpp.cpp ****             printString("\n");
 1118              		.loc 2 123 13 is_stmt 1
 123:src/syscall_cpp.cpp ****             printString("\n");
 1119              		.loc 2 123 21 is_stmt 0
 1120 0564 13060000 		li	a2,0
 1121 0568 9305A000 		li	a1,10
 1122 056c 13850400 		mv	a0,s1
 1123 0570 97000000 		call	_Z8printIntiii@plt
 1123      E7800000 
 1124              	.LVL94:
 124:src/syscall_cpp.cpp ****         }
 1125              		.loc 2 124 13 is_stmt 1
 124:src/syscall_cpp.cpp ****         }
 1126              		.loc 2 124 24 is_stmt 0
 1127 0578 17050000 		lla	a0,.LC3
 1127      13050500 
 1128 0580 97000000 		call	_Z11printStringPKc@plt
 1128      E7800000 
 1129              	.LVL95:
 1130 0588 6FF01FFC 		j	.L61
 1131              	.L69:
 127:src/syscall_cpp.cpp ****         else
 1132              		.loc 2 127 13 is_stmt 1
 127:src/syscall_cpp.cpp ****         else
 1133              		.loc 2 127 30 is_stmt 0
 1134 058c 03358900 		ld	a0,8(s2)
 1135 0590 97000000 		call	_Z10sem_signalP3Sem@plt
 1135      E7800000 
 1136              	.LVL96:
 127:src/syscall_cpp.cpp ****         else
 1137              		.loc 2 127 39
 1138 0598 6F008001 		j	.L62
 1139              	.LVL97:
 1140              	.L57:
 1141              	.LBE30:
 1142              	.LBB31:
 132:src/syscall_cpp.cpp ****             int id = getThreadId();
 1143              		.loc 2 132 9 is_stmt 1
 1144              	.LBB32:
 132:src/syscall_cpp.cpp ****             int id = getThreadId();
 1145              		.loc 2 132 13 is_stmt 0
 1146 059c 83470501 		lbu	a5,16(a0)
 132:src/syscall_cpp.cpp ****             int id = getThreadId();
 1147              		.loc 2 132 9
 1148 05a0 63960702 		bnez	a5,.L70
 1149              	.LVL98:
 1150              	.L63:
 1151              	.LBE32:
 138:src/syscall_cpp.cpp ****     }
 1152              		.loc 2 138 9 is_stmt 1
 138:src/syscall_cpp.cpp ****     }
 1153              		.loc 2 138 26 is_stmt 0
 1154 05a4 03358900 		ld	a0,8(s2)
GAS LISTING /tmp/ccIbwoOS.s 			page 29


 1155 05a8 97000000 		call	_Z10sem_signalP3Sem@plt
 1155      E7800000 
 1156              	.LVL99:
 1157              	.L62:
 1158              	.LBE31:
 1159              	.LBE29:
 140:src/syscall_cpp.cpp **** 
 1160              		.loc 2 140 1
 1161 05b0 83308102 		ld	ra,40(sp)
 1162              		.cfi_remember_state
 1163              		.cfi_restore 1
 1164 05b4 03340102 		ld	s0,32(sp)
 1165              		.cfi_restore 8
 1166              		.cfi_def_cfa 2, 48
 1167 05b8 83348101 		ld	s1,24(sp)
 1168              		.cfi_restore 9
 1169 05bc 03390101 		ld	s2,16(sp)
 1170              		.cfi_restore 18
 1171              	.LVL100:
 1172 05c0 83398100 		ld	s3,8(sp)
 1173              		.cfi_restore 19
 1174 05c4 13010103 		addi	sp,sp,48
 1175              		.cfi_def_cfa_offset 0
 1176 05c8 67800000 		jr	ra
 1177              	.LVL101:
 1178              	.L70:
 1179              		.cfi_restore_state
 1180              	.LBB36:
 1181              	.LBB35:
 1182              	.LBB34:
 1183              	.LBB33:
 133:src/syscall_cpp.cpp ****             printString("Signal zove: ");
 1184              		.loc 2 133 13 is_stmt 1
 133:src/syscall_cpp.cpp ****             printString("Signal zove: ");
 1185              		.loc 2 133 33 is_stmt 0
 1186 05cc 97000000 		call	_Z11getThreadIdv@plt
 1186      E7800000 
 1187              	.LVL102:
 1188 05d4 93040500 		mv	s1,a0
 1189              	.LVL103:
 134:src/syscall_cpp.cpp ****             printInt(id);
 1190              		.loc 2 134 13 is_stmt 1
 134:src/syscall_cpp.cpp ****             printInt(id);
 1191              		.loc 2 134 24 is_stmt 0
 1192 05d8 17050000 		lla	a0,.LC5
 1192      13050500 
 1193 05e0 97000000 		call	_Z11printStringPKc@plt
 1193      E7800000 
 1194              	.LVL104:
 135:src/syscall_cpp.cpp ****             printString("\n");
 1195              		.loc 2 135 13 is_stmt 1
 135:src/syscall_cpp.cpp ****             printString("\n");
 1196              		.loc 2 135 21 is_stmt 0
 1197 05e8 13060000 		li	a2,0
 1198 05ec 9305A000 		li	a1,10
 1199 05f0 13850400 		mv	a0,s1
 1200 05f4 97000000 		call	_Z8printIntiii@plt
GAS LISTING /tmp/ccIbwoOS.s 			page 30


 1200      E7800000 
 1201              	.LVL105:
 136:src/syscall_cpp.cpp ****         }
 1202              		.loc 2 136 13 is_stmt 1
 136:src/syscall_cpp.cpp ****         }
 1203              		.loc 2 136 24 is_stmt 0
 1204 05fc 17050000 		lla	a0,.LC3
 1204      13050500 
 1205 0604 97000000 		call	_Z11printStringPKc@plt
 1205      E7800000 
 1206              	.LVL106:
 1207              	.LBE33:
 1208 060c 6FF09FF9 		j	.L63
 1209              	.LBE34:
 1210              	.LBE35:
 1211              	.LBE36:
 1212              		.cfi_endproc
 1213              	.LFE43:
 1215              		.align	2
 1216              		.globl	_ZN9Semaphore7tryWaitEv
 1218              	_ZN9Semaphore7tryWaitEv:
 1219              	.LFB44:
 142:src/syscall_cpp.cpp ****     return sem_trywait(myHandle);
 1220              		.loc 2 142 26 is_stmt 1
 1221              		.cfi_startproc
 1222              	.LVL107:
 1223 0610 130101FF 		addi	sp,sp,-16
 1224              		.cfi_def_cfa_offset 16
 1225 0614 23341100 		sd	ra,8(sp)
 1226 0618 23308100 		sd	s0,0(sp)
 1227              		.cfi_offset 1, -8
 1228              		.cfi_offset 8, -16
 1229 061c 13040101 		addi	s0,sp,16
 1230              		.cfi_def_cfa 8, 0
 143:src/syscall_cpp.cpp **** }
 1231              		.loc 2 143 5
 143:src/syscall_cpp.cpp **** }
 1232              		.loc 2 143 23 is_stmt 0
 1233 0620 03358500 		ld	a0,8(a0)
 1234              	.LVL108:
 1235 0624 97000000 		call	_Z11sem_trywaitP3Sem@plt
 1235      E7800000 
 1236              	.LVL109:
 144:src/syscall_cpp.cpp **** 
 1237              		.loc 2 144 1
 1238 062c 83308100 		ld	ra,8(sp)
 1239              		.cfi_restore 1
 1240 0630 03340100 		ld	s0,0(sp)
 1241              		.cfi_restore 8
 1242              		.cfi_def_cfa 2, 16
 1243 0634 13010101 		addi	sp,sp,16
 1244              		.cfi_def_cfa_offset 0
 1245 0638 67800000 		jr	ra
 1246              		.cfi_endproc
 1247              	.LFE44:
 1249              		.align	2
 1250              		.globl	_ZN9Semaphore16turnOnPrioritiesEv
GAS LISTING /tmp/ccIbwoOS.s 			page 31


 1252              	_ZN9Semaphore16turnOnPrioritiesEv:
 1253              	.LFB45:
 146:src/syscall_cpp.cpp ****     turnFlag=true;
 1254              		.loc 2 146 36 is_stmt 1
 1255              		.cfi_startproc
 1256              	.LVL110:
 1257 063c 130101FF 		addi	sp,sp,-16
 1258              		.cfi_def_cfa_offset 16
 1259 0640 23348100 		sd	s0,8(sp)
 1260              		.cfi_offset 8, -8
 1261 0644 13040101 		addi	s0,sp,16
 1262              		.cfi_def_cfa 8, 0
 147:src/syscall_cpp.cpp **** }
 1263              		.loc 2 147 5
 147:src/syscall_cpp.cpp **** }
 1264              		.loc 2 147 13 is_stmt 0
 1265 0648 93071000 		li	a5,1
 1266 064c 2308F500 		sb	a5,16(a0)
 148:src/syscall_cpp.cpp **** 
 1267              		.loc 2 148 1
 1268 0650 03348100 		ld	s0,8(sp)
 1269              		.cfi_restore 8
 1270              		.cfi_def_cfa 2, 16
 1271 0654 13010101 		addi	sp,sp,16
 1272              		.cfi_def_cfa_offset 0
 1273 0658 67800000 		jr	ra
 1274              		.cfi_endproc
 1275              	.LFE45:
 1277              		.section	.rodata.str1.8
 1278 005e 0000     		.align	3
 1279              	.LC6:
 1280 0060 56656320 		.string	"Vec postoji ovakav owner u listi!\n"
 1280      706F7374 
 1280      6F6A6920 
 1280      6F76616B 
 1280      6176206F 
 1281              		.text
 1282              		.align	2
 1283              		.globl	_ZN9Semaphore8addOwnerEv
 1285              	_ZN9Semaphore8addOwnerEv:
 1286              	.LFB50:
 154:src/syscall_cpp.cpp **** 
 155:src/syscall_cpp.cpp **** void Semaphore::addOwner(){
 1287              		.loc 2 155 27 is_stmt 1
 1288              		.cfi_startproc
 1289              	.LVL111:
 1290 065c 130101FE 		addi	sp,sp,-32
 1291              		.cfi_def_cfa_offset 32
 1292 0660 233C1100 		sd	ra,24(sp)
 1293 0664 23388100 		sd	s0,16(sp)
 1294 0668 23349100 		sd	s1,8(sp)
 1295 066c 23302101 		sd	s2,0(sp)
 1296              		.cfi_offset 1, -8
 1297              		.cfi_offset 8, -16
 1298              		.cfi_offset 9, -24
 1299              		.cfi_offset 18, -32
 1300 0670 13040102 		addi	s0,sp,32
GAS LISTING /tmp/ccIbwoOS.s 			page 32


 1301              		.cfi_def_cfa 8, 0
 1302 0674 93040500 		mv	s1,a0
 156:src/syscall_cpp.cpp ****     RedOwner* newOwner = (RedOwner*) mem_alloc(sizeof(RedOwner*));
 1303              		.loc 2 156 5
 1304              		.loc 2 156 47 is_stmt 0
 1305 0678 13058000 		li	a0,8
 1306              	.LVL112:
 1307 067c 97000000 		call	_Z9mem_allocm@plt
 1307      E7800000 
 1308              	.LVL113:
 1309 0684 13090500 		mv	s2,a0
 1310              	.LVL114:
 157:src/syscall_cpp.cpp ****     int id = getThreadId();
 1311              		.loc 2 157 5 is_stmt 1
 1312              		.loc 2 157 25 is_stmt 0
 1313 0688 97000000 		call	_Z11getThreadIdv@plt
 1313      E7800000 
 1314              	.LVL115:
 1315 0690 93060500 		mv	a3,a0
 1316              	.LVL116:
 158:src/syscall_cpp.cpp ****     newOwner->owner = id;
 1317              		.loc 2 158 5 is_stmt 1
 1318              		.loc 2 158 21 is_stmt 0
 1319 0694 2320A900 		sw	a0,0(s2)
 159:src/syscall_cpp.cpp ****     newOwner->next = nullptr;
 1320              		.loc 2 159 5 is_stmt 1
 1321              		.loc 2 159 20 is_stmt 0
 1322 0698 23340900 		sd	zero,8(s2)
 160:src/syscall_cpp.cpp ****     if(owners== nullptr){
 1323              		.loc 2 160 5 is_stmt 1
 1324              	.LBB37:
 1325              		.loc 2 160 8 is_stmt 0
 1326 069c 83B78401 		ld	a5,24(s1)
 1327              		.loc 2 160 5
 1328 06a0 63820704 		beqz	a5,.L80
 1329              	.LVL117:
 1330              	.L76:
 1331              	.LBB38:
 161:src/syscall_cpp.cpp ****         owners=newOwner;
 162:src/syscall_cpp.cpp ****     }
 163:src/syscall_cpp.cpp ****     else{
 164:src/syscall_cpp.cpp ****         RedOwner* a;
 165:src/syscall_cpp.cpp ****         for(a = owners; a->next!=nullptr;a=a->next){
 1332              		.loc 2 165 32 is_stmt 1 discriminator 1
 1333 06a4 93840700 		mv	s1,a5
 1334              		.loc 2 165 28 is_stmt 0 discriminator 1
 1335 06a8 83B78700 		ld	a5,8(a5)
 1336              	.LVL118:
 1337              		.loc 2 165 32 discriminator 1
 1338 06ac 638E0700 		beqz	a5,.L78
 166:src/syscall_cpp.cpp ****             if(a->owner==id){
 1339              		.loc 2 166 13 is_stmt 1
 1340              		.loc 2 166 19 is_stmt 0
 1341 06b0 03A70400 		lw	a4,0(s1)
 1342              		.loc 2 166 13
 1343 06b4 E318D7FE 		bne	a4,a3,.L76
 167:src/syscall_cpp.cpp ****                 printString("Vec postoji ovakav owner u listi!\n");
GAS LISTING /tmp/ccIbwoOS.s 			page 33


 1344              		.loc 2 167 17 is_stmt 1
 1345              		.loc 2 167 28 is_stmt 0
 1346 06b8 17050000 		lla	a0,.LC6
 1346      13050500 
 1347              	.LVL119:
 1348 06c0 97000000 		call	_Z11printStringPKc@plt
 1348      E7800000 
 1349              	.LVL120:
 168:src/syscall_cpp.cpp ****                 break;
 1350              		.loc 2 168 17 is_stmt 1
 1351              	.L78:
 169:src/syscall_cpp.cpp ****             }
 170:src/syscall_cpp.cpp ****         }
 171:src/syscall_cpp.cpp ****         a->next = newOwner;
 1352              		.loc 2 171 9
 1353              		.loc 2 171 17 is_stmt 0
 1354 06c8 23B42401 		sd	s2,8(s1)
 1355              	.LVL121:
 1356              	.L75:
 1357              	.LBE38:
 1358              	.LBE37:
 172:src/syscall_cpp.cpp ****     }
 173:src/syscall_cpp.cpp **** };
 1359              		.loc 2 173 1
 1360 06cc 83308101 		ld	ra,24(sp)
 1361              		.cfi_remember_state
 1362              		.cfi_restore 1
 1363 06d0 03340101 		ld	s0,16(sp)
 1364              		.cfi_restore 8
 1365              		.cfi_def_cfa 2, 32
 1366 06d4 83348100 		ld	s1,8(sp)
 1367              		.cfi_restore 9
 1368 06d8 03390100 		ld	s2,0(sp)
 1369              		.cfi_restore 18
 1370              	.LVL122:
 1371 06dc 13010102 		addi	sp,sp,32
 1372              		.cfi_def_cfa_offset 0
 1373 06e0 67800000 		jr	ra
 1374              	.LVL123:
 1375              	.L80:
 1376              		.cfi_restore_state
 1377              	.LBB39:
 161:src/syscall_cpp.cpp ****     }
 1378              		.loc 2 161 9 is_stmt 1
 161:src/syscall_cpp.cpp ****     }
 1379              		.loc 2 161 15 is_stmt 0
 1380 06e4 23BC2401 		sd	s2,24(s1)
 1381 06e8 6FF05FFE 		j	.L75
 1382              	.LBE39:
 1383              		.cfi_endproc
 1384              	.LFE50:
 1386              		.align	2
 1387              		.globl	_ZN9Semaphore11removeOwnerEi
 1389              	_ZN9Semaphore11removeOwnerEi:
 1390              	.LFB51:
 174:src/syscall_cpp.cpp **** void Semaphore::removeOwner(int id){
 1391              		.loc 2 174 36 is_stmt 1
GAS LISTING /tmp/ccIbwoOS.s 			page 34


 1392              		.cfi_startproc
 1393              	.LVL124:
 1394 06ec 130101FE 		addi	sp,sp,-32
 1395              		.cfi_def_cfa_offset 32
 1396 06f0 233C1100 		sd	ra,24(sp)
 1397 06f4 23388100 		sd	s0,16(sp)
 1398 06f8 23349100 		sd	s1,8(sp)
 1399 06fc 23302101 		sd	s2,0(sp)
 1400              		.cfi_offset 1, -8
 1401              		.cfi_offset 8, -16
 1402              		.cfi_offset 9, -24
 1403              		.cfi_offset 18, -32
 1404 0700 13040102 		addi	s0,sp,32
 1405              		.cfi_def_cfa 8, 0
 1406 0704 13890500 		mv	s2,a1
 175:src/syscall_cpp.cpp ****     RedOwner* a ;
 1407              		.loc 2 175 5
 176:src/syscall_cpp.cpp ****     RedOwner* prev=nullptr;
 1408              		.loc 2 176 5
 1409              	.LVL125:
 177:src/syscall_cpp.cpp ****     for(a = owners;a;prev = a, a=a->next){
 1410              		.loc 2 177 5
 1411              		.loc 2 177 11 is_stmt 0
 1412 0708 83348501 		ld	s1,24(a0)
 1413              	.LVL126:
 176:src/syscall_cpp.cpp ****     RedOwner* prev=nullptr;
 1414              		.loc 2 176 15
 1415 070c 13070000 		li	a4,0
 1416 0710 6F00C001 		j	.L86
 1417              	.LVL127:
 1418              	.L84:
 178:src/syscall_cpp.cpp ****         if(a->owner==id){
 179:src/syscall_cpp.cpp ****             if(a->next) prev->next = a->next;
 180:src/syscall_cpp.cpp ****             else {
 181:src/syscall_cpp.cpp ****                 prev->next= nullptr;
 1419              		.loc 2 181 17 is_stmt 1
 1420              		.loc 2 181 27 is_stmt 0
 1421 0714 23340700 		sd	zero,8(a4)
 1422              	.L85:
 182:src/syscall_cpp.cpp ****             }
 183:src/syscall_cpp.cpp ****             mem_free(a);
 1423              		.loc 2 183 13 is_stmt 1
 1424              		.loc 2 183 21 is_stmt 0
 1425 0718 13850400 		mv	a0,s1
 1426 071c 97000000 		call	_Z8mem_freePv@plt
 1426      E7800000 
 1427              	.LVL128:
 1428              	.L83:
 177:src/syscall_cpp.cpp ****         if(a->owner==id){
 1429              		.loc 2 177 5 is_stmt 1 discriminator 2
 177:src/syscall_cpp.cpp ****         if(a->owner==id){
 1430              		.loc 2 177 27 is_stmt 0 discriminator 2
 1431 0724 13870400 		mv	a4,s1
 177:src/syscall_cpp.cpp ****         if(a->owner==id){
 1432              		.loc 2 177 33 discriminator 2
 1433 0728 83B48400 		ld	s1,8(s1)
 1434              	.LVL129:
GAS LISTING /tmp/ccIbwoOS.s 			page 35


 1435              	.L86:
 177:src/syscall_cpp.cpp ****         if(a->owner==id){
 1436              		.loc 2 177 20 is_stmt 1 discriminator 1
 1437 072c 638E0400 		beqz	s1,.L81
 178:src/syscall_cpp.cpp ****         if(a->owner==id){
 1438              		.loc 2 178 9
 178:src/syscall_cpp.cpp ****         if(a->owner==id){
 1439              		.loc 2 178 15 is_stmt 0
 1440 0730 83A70400 		lw	a5,0(s1)
 178:src/syscall_cpp.cpp ****         if(a->owner==id){
 1441              		.loc 2 178 9
 1442 0734 E39827FF 		bne	a5,s2,.L83
 179:src/syscall_cpp.cpp ****             else {
 1443              		.loc 2 179 13 is_stmt 1
 179:src/syscall_cpp.cpp ****             else {
 1444              		.loc 2 179 19 is_stmt 0
 1445 0738 83B78400 		ld	a5,8(s1)
 179:src/syscall_cpp.cpp ****             else {
 1446              		.loc 2 179 13
 1447 073c E38C07FC 		beqz	a5,.L84
 179:src/syscall_cpp.cpp ****             else {
 1448              		.loc 2 179 25 is_stmt 1 discriminator 1
 179:src/syscall_cpp.cpp ****             else {
 1449              		.loc 2 179 36 is_stmt 0 discriminator 1
 1450 0740 2334F700 		sd	a5,8(a4)
 1451 0744 6FF05FFD 		j	.L85
 1452              	.L81:
 184:src/syscall_cpp.cpp ****         }
 185:src/syscall_cpp.cpp ****         else{
 186:src/syscall_cpp.cpp ****             continue;
 187:src/syscall_cpp.cpp ****         }
 188:src/syscall_cpp.cpp ****     }
 189:src/syscall_cpp.cpp **** 
 190:src/syscall_cpp.cpp **** }
 1453              		.loc 2 190 1
 1454 0748 83308101 		ld	ra,24(sp)
 1455              		.cfi_restore 1
 1456 074c 03340101 		ld	s0,16(sp)
 1457              		.cfi_restore 8
 1458              		.cfi_def_cfa 2, 32
 1459 0750 83348100 		ld	s1,8(sp)
 1460              		.cfi_restore 9
 1461              	.LVL130:
 1462 0754 03390100 		ld	s2,0(sp)
 1463              		.cfi_restore 18
 1464 0758 13010102 		addi	sp,sp,32
 1465              		.cfi_def_cfa_offset 0
 1466 075c 67800000 		jr	ra
 1467              		.cfi_endproc
 1468              	.LFE51:
 1470              		.align	2
 1471              		.globl	_ZN14PeriodicThread9terminateEv
 1473              	_ZN14PeriodicThread9terminateEv:
 1474              	.LFB52:
 191:src/syscall_cpp.cpp **** 
 192:src/syscall_cpp.cpp **** 
 193:src/syscall_cpp.cpp **** void PeriodicThread::terminate() {
GAS LISTING /tmp/ccIbwoOS.s 			page 36


 1475              		.loc 2 193 34 is_stmt 1
 1476              		.cfi_startproc
 1477              	.LVL131:
 1478 0760 130101FF 		addi	sp,sp,-16
 1479              		.cfi_def_cfa_offset 16
 1480 0764 23348100 		sd	s0,8(sp)
 1481              		.cfi_offset 8, -8
 1482 0768 13040101 		addi	s0,sp,16
 1483              		.cfi_def_cfa 8, 0
 194:src/syscall_cpp.cpp **** 
 195:src/syscall_cpp.cpp **** }
 1484              		.loc 2 195 1 is_stmt 0
 1485 076c 03348100 		ld	s0,8(sp)
 1486              		.cfi_restore 8
 1487              		.cfi_def_cfa 2, 16
 1488 0770 13010101 		addi	sp,sp,16
 1489              		.cfi_def_cfa_offset 0
 1490 0774 67800000 		jr	ra
 1491              		.cfi_endproc
 1492              	.LFE52:
 1494              		.align	2
 1495              		.globl	_ZN14PeriodicThreadC2Em
 1497              	_ZN14PeriodicThreadC2Em:
 1498              	.LFB54:
 196:src/syscall_cpp.cpp **** 
 197:src/syscall_cpp.cpp **** PeriodicThread::PeriodicThread(time_t period) {
 1499              		.loc 2 197 1 is_stmt 1
 1500              		.cfi_startproc
 1501              	.LVL132:
 1502 0778 130101FE 		addi	sp,sp,-32
 1503              		.cfi_def_cfa_offset 32
 1504 077c 233C1100 		sd	ra,24(sp)
 1505 0780 23388100 		sd	s0,16(sp)
 1506 0784 23349100 		sd	s1,8(sp)
 1507 0788 23302101 		sd	s2,0(sp)
 1508              		.cfi_offset 1, -8
 1509              		.cfi_offset 8, -16
 1510              		.cfi_offset 9, -24
 1511              		.cfi_offset 18, -32
 1512 078c 13040102 		addi	s0,sp,32
 1513              		.cfi_def_cfa 8, 0
 1514 0790 93040500 		mv	s1,a0
 1515 0794 13890500 		mv	s2,a1
 1516              	.LBB40:
 1517              		.loc 2 197 45 is_stmt 0
 1518 0798 97000000 		call	_ZN6ThreadC2Ev
 1518      E7800000 
 1519              	.LVL133:
 1520 07a0 97070000 		lla	a5,_ZTV14PeriodicThread+16
 1520      93870700 
 1521 07a8 23B0F400 		sd	a5,0(s1)
 198:src/syscall_cpp.cpp ****     this->period=period;
 1522              		.loc 2 198 5 is_stmt 1
 1523              		.loc 2 198 17 is_stmt 0
 1524 07ac 23B02403 		sd	s2,32(s1)
 1525              	.LBE40:
 199:src/syscall_cpp.cpp **** }
GAS LISTING /tmp/ccIbwoOS.s 			page 37


 1526              		.loc 2 199 1
 1527 07b0 83308101 		ld	ra,24(sp)
 1528              		.cfi_restore 1
 1529 07b4 03340101 		ld	s0,16(sp)
 1530              		.cfi_restore 8
 1531              		.cfi_def_cfa 2, 32
 1532 07b8 83348100 		ld	s1,8(sp)
 1533              		.cfi_restore 9
 1534              	.LVL134:
 1535 07bc 03390100 		ld	s2,0(sp)
 1536              		.cfi_restore 18
 1537              	.LVL135:
 1538 07c0 13010102 		addi	sp,sp,32
 1539              		.cfi_def_cfa_offset 0
 1540 07c4 67800000 		jr	ra
 1541              		.cfi_endproc
 1542              	.LFE54:
 1544              		.globl	_ZN14PeriodicThreadC1Em
 1545              		.set	_ZN14PeriodicThreadC1Em,_ZN14PeriodicThreadC2Em
 1546              		.align	2
 1547              		.globl	_ZN7Console4getcEv
 1549              	_ZN7Console4getcEv:
 1550              	.LFB56:
 200:src/syscall_cpp.cpp **** 
 201:src/syscall_cpp.cpp **** 
 202:src/syscall_cpp.cpp **** //konzola
 203:src/syscall_cpp.cpp **** char Console::getc (){
 1551              		.loc 2 203 22 is_stmt 1
 1552              		.cfi_startproc
 1553 07c8 130101FF 		addi	sp,sp,-16
 1554              		.cfi_def_cfa_offset 16
 1555 07cc 23341100 		sd	ra,8(sp)
 1556 07d0 23308100 		sd	s0,0(sp)
 1557              		.cfi_offset 1, -8
 1558              		.cfi_offset 8, -16
 1559 07d4 13040101 		addi	s0,sp,16
 1560              		.cfi_def_cfa 8, 0
 204:src/syscall_cpp.cpp ****     return ::getc();
 1561              		.loc 2 204 5
 1562              		.loc 2 204 18 is_stmt 0
 1563 07d8 97000000 		call	_Z4getcv@plt
 1563      E7800000 
 1564              	.LVL136:
 205:src/syscall_cpp.cpp **** }
 1565              		.loc 2 205 1
 1566 07e0 83308100 		ld	ra,8(sp)
 1567              		.cfi_restore 1
 1568 07e4 03340100 		ld	s0,0(sp)
 1569              		.cfi_restore 8
 1570              		.cfi_def_cfa 2, 16
 1571 07e8 13010101 		addi	sp,sp,16
 1572              		.cfi_def_cfa_offset 0
 1573 07ec 67800000 		jr	ra
 1574              		.cfi_endproc
 1575              	.LFE56:
 1577              		.align	2
 1578              		.globl	_ZN7Console4putcEc
GAS LISTING /tmp/ccIbwoOS.s 			page 38


 1580              	_ZN7Console4putcEc:
 1581              	.LFB57:
 206:src/syscall_cpp.cpp **** 
 207:src/syscall_cpp.cpp **** void Console::putc (char c){
 1582              		.loc 2 207 28 is_stmt 1
 1583              		.cfi_startproc
 1584              	.LVL137:
 1585 07f0 130101FF 		addi	sp,sp,-16
 1586              		.cfi_def_cfa_offset 16
 1587 07f4 23341100 		sd	ra,8(sp)
 1588 07f8 23308100 		sd	s0,0(sp)
 1589              		.cfi_offset 1, -8
 1590              		.cfi_offset 8, -16
 1591 07fc 13040101 		addi	s0,sp,16
 1592              		.cfi_def_cfa 8, 0
 208:src/syscall_cpp.cpp ****     ::putc(c);
 1593              		.loc 2 208 5
 1594              		.loc 2 208 11 is_stmt 0
 1595 0800 97000000 		call	_Z4putcc@plt
 1595      E7800000 
 1596              	.LVL138:
 209:src/syscall_cpp.cpp **** }...
 1597              		.loc 2 209 1
 1598 0808 83308100 		ld	ra,8(sp)
 1599              		.cfi_restore 1
 1600 080c 03340100 		ld	s0,0(sp)
 1601              		.cfi_restore 8
 1602              		.cfi_def_cfa 2, 16
 1603 0810 13010101 		addi	sp,sp,16
 1604              		.cfi_def_cfa_offset 0
 1605 0814 67800000 		jr	ra
 1606              		.cfi_endproc
 1607              	.LFE57:
 1609              		.weak	_ZTV14PeriodicThread
 1610              		.section	.data.rel.ro.local._ZTV14PeriodicThread,"awG",@progbits,_ZTV14PeriodicThread,comdat
 1611              		.align	3
 1614              	_ZTV14PeriodicThread:
 1615 0000 00000000 		.dword	0
 1615      00000000 
 1616 0008 00000000 		.dword	0
 1616      00000000 
 1617 0010 00000000 		.dword	_ZN14PeriodicThreadD1Ev
 1617      00000000 
 1618 0018 00000000 		.dword	_ZN14PeriodicThreadD0Ev
 1618      00000000 
 1619 0020 00000000 		.dword	_ZN6Thread3runEv
 1619      00000000 
 1620 0028 00000000 		.dword	_ZN14PeriodicThread18periodicActivationEv
 1620      00000000 
 1621              		.weak	_ZTV6Thread
 1622              		.section	.data.rel.ro.local._ZTV6Thread,"awG",@progbits,_ZTV6Thread,comdat
 1623              		.align	3
 1626              	_ZTV6Thread:
 1627 0000 00000000 		.dword	0
 1627      00000000 
 1628 0008 00000000 		.dword	0
 1628      00000000 
GAS LISTING /tmp/ccIbwoOS.s 			page 39


 1629 0010 00000000 		.dword	_ZN6ThreadD1Ev
 1629      00000000 
 1630 0018 00000000 		.dword	_ZN6ThreadD0Ev
 1630      00000000 
 1631 0020 00000000 		.dword	_ZN6Thread3runEv
 1631      00000000 
 1632              		.weak	_ZTV9Semaphore
 1633              		.section	.data.rel.ro.local._ZTV9Semaphore,"awG",@progbits,_ZTV9Semaphore,comdat
 1634              		.align	3
 1637              	_ZTV9Semaphore:
 1638 0000 00000000 		.dword	0
 1638      00000000 
 1639 0008 00000000 		.dword	0
 1639      00000000 
 1640 0010 00000000 		.dword	_ZN9SemaphoreD1Ev
 1640      00000000 
 1641 0018 00000000 		.dword	_ZN9SemaphoreD0Ev
 1641      00000000 
 1642              		.text
 1643              	.Letext0:
 1644              		.file 4 "src/../h/../lib/hw.h"
 1645              		.file 5 "src/../h/queue.hpp"
 1646              		.file 6 "src/../h/sem.hpp"
 1647              		.file 7 "src/../h/syscall_c.hpp"
 1648              		.file 8 "src/../test/printing.hpp"
 6860              		.align	3
 6863              	DW.ref.__gxx_personality_v0:
 6864 0000 00000000 		.dword	__gxx_personality_v0
 6864      00000000 
 6865              		.ident	"GCC: (Ubuntu 9.4.0-1ubuntu1~20.04) 9.4.0"
 6866              		.section	.note.GNU-stack,"",@progbits
GAS LISTING /tmp/ccIbwoOS.s 			page 40

