GAS LISTING /tmp/ccmCh4nE.s 			page 1


   1              		.file	"syscall_c.cpp"
   2              		.option pic
   3              		.option norelax
   4              		.text
   5              	.Ltext0:
   6              		.align	2
   7              		.globl	_Z9mem_allocm
   9              	_Z9mem_allocm:
  10              	.LFB20:
  11              		.file 1 "src/syscall_c.cpp"
   1:src/syscall_c.cpp **** #include "../h/syscall_c.hpp"
   2:src/syscall_c.cpp **** 
   3:src/syscall_c.cpp **** void* mem_alloc(size_t size){
  12              		.loc 1 3 29
  13              		.cfi_startproc
  14              	.LVL0:
  15 0000 130101FF 		addi	sp,sp,-16
  16              		.cfi_def_cfa_offset 16
  17 0004 23341100 		sd	ra,8(sp)
  18 0008 23308100 		sd	s0,0(sp)
  19              		.cfi_offset 1, -8
  20              		.cfi_offset 8, -16
  21 000c 13040101 		addi	s0,sp,16
  22              		.cfi_def_cfa 8, 0
   4:src/syscall_c.cpp **** 
   5:src/syscall_c.cpp ****     size_t op_code = 0x1;
  23              		.loc 1 5 5
  24              	.LVL1:
   6:src/syscall_c.cpp **** 
   7:src/syscall_c.cpp ****     __asm__ volatile("mv a1, %[size]"::[size]"r"(MemoryAllocator::transferToNumBlock(size)));
  25              		.loc 1 7 5
  26              		.loc 1 7 85 is_stmt 0
  27 0010 97000000 		call	_ZN15MemoryAllocator18transferToNumBlockEm@plt
  27      E7800000 
  28              	.LVL2:
  29              		.loc 1 7 93
  30              	#APP
  31              	# 7 "src/syscall_c.cpp" 1
   8              	    __asm__ volatile("mv a0, %[op]"::[op]"r"(op_code));
  32              		mv a1, a0
  33              	# 0 "" 2
  34              		.loc 1 8 5 is_stmt 1
  35              		.loc 1 8 55 is_stmt 0
  36              	#NO_APP
  37 001c 93071000 		li	a5,1
  38              	#APP
  39              	# 8 "src/syscall_c.cpp" 1
   9              	    //prenos argumenta size
  10:src/syscall_c.cpp ****     //i skok u prekidnu rutinu
  11:src/syscall_c.cpp ****     __asm__ volatile("ecall");
  40              		mv a0, a5
  41              	# 0 "" 2
  42              		.loc 1 11 5 is_stmt 1
  43              		.loc 1 11 30 is_stmt 0
  44              	# 11 "src/syscall_c.cpp" 1
  12              	
  13:src/syscall_c.cpp ****     void* x;
GAS LISTING /tmp/ccmCh4nE.s 			page 2


  45              		ecall
  46              	# 0 "" 2
  47              		.loc 1 13 5 is_stmt 1
  14:src/syscall_c.cpp ****     //treba vratim pokazivac koji mi vrati syscall od mem_alloc-a
  15:src/syscall_c.cpp ****     __asm__ volatile("mv %[x], a0":[x]"=r"(x));
  48              		.loc 1 15 5
  49              		.loc 1 15 47 is_stmt 0
  50              	# 15 "src/syscall_c.cpp" 1
  16              	    return x;
  51              		mv a0, a0
  52              	# 0 "" 2
  53              	.LVL3:
  54              		.loc 1 16 5 is_stmt 1
  17:src/syscall_c.cpp **** }
  55              		.loc 1 17 1 is_stmt 0
  56              	#NO_APP
  57 002c 83308100 		ld	ra,8(sp)
  58              		.cfi_restore 1
  59 0030 03340100 		ld	s0,0(sp)
  60              		.cfi_restore 8
  61              		.cfi_def_cfa 2, 16
  62 0034 13010101 		addi	sp,sp,16
  63              		.cfi_def_cfa_offset 0
  64 0038 67800000 		jr	ra
  65              		.cfi_endproc
  66              	.LFE20:
  68              		.align	2
  69              		.globl	_Z8mem_freePv
  71              	_Z8mem_freePv:
  72              	.LFB21:
  18:src/syscall_c.cpp **** 
  19:src/syscall_c.cpp **** int mem_free(void* ptr){
  73              		.loc 1 19 24 is_stmt 1
  74              		.cfi_startproc
  75              	.LVL4:
  76 003c 130101FF 		addi	sp,sp,-16
  77              		.cfi_def_cfa_offset 16
  78 0040 23348100 		sd	s0,8(sp)
  79              		.cfi_offset 8, -8
  80 0044 13040101 		addi	s0,sp,16
  81              		.cfi_def_cfa 8, 0
  20:src/syscall_c.cpp **** 
  21:src/syscall_c.cpp ****     size_t op_code=0x2;
  82              		.loc 1 21 5
  83              	.LVL5:
  22:src/syscall_c.cpp ****     __asm__ volatile("mv a1, %[addr]"::[addr]"r"(ptr));
  84              		.loc 1 22 5
  85              		.loc 1 22 55 is_stmt 0
  86              	#APP
  87              	# 22 "src/syscall_c.cpp" 1
  23              	    __asm__ volatile("mv a0, %[op]"::[op]"r"(op_code));
  88              		mv a1, a0
  89              	# 0 "" 2
  90              		.loc 1 23 5 is_stmt 1
  91              		.loc 1 23 55 is_stmt 0
  92              	#NO_APP
  93 004c 93072000 		li	a5,2
GAS LISTING /tmp/ccmCh4nE.s 			page 3


  94              	#APP
  95              	# 23 "src/syscall_c.cpp" 1
  24              	    __asm__ volatile("ecall");
  96              		mv a0, a5
  97              	# 0 "" 2
  98              		.loc 1 24 5 is_stmt 1
  99              		.loc 1 24 30 is_stmt 0
 100              	# 24 "src/syscall_c.cpp" 1
  25              	    int x;
 101              		ecall
 102              	# 0 "" 2
 103              		.loc 1 25 5 is_stmt 1
  26:src/syscall_c.cpp ****     __asm__ volatile("mv %[x], a0":[x]"=r"(x));
 104              		.loc 1 26 5
 105              		.loc 1 26 47 is_stmt 0
 106              	# 26 "src/syscall_c.cpp" 1
  27              	    return x;
 107              		mv a0, a0
 108              	# 0 "" 2
 109              	.LVL6:
 110              		.loc 1 27 5 is_stmt 1
  28:src/syscall_c.cpp **** }
 111              		.loc 1 28 1 is_stmt 0
 112              	#NO_APP
 113 005c 1B050500 		sext.w	a0,a0
 114 0060 03348100 		ld	s0,8(sp)
 115              		.cfi_restore 8
 116              		.cfi_def_cfa 2, 16
 117 0064 13010101 		addi	sp,sp,16
 118              		.cfi_def_cfa_offset 0
 119 0068 67800000 		jr	ra
 120              		.cfi_endproc
 121              	.LFE21:
 123              		.align	2
 124              		.globl	_Z13thread_createPP3TCBPFvPvES2_S1_
 126              	_Z13thread_createPP3TCBPFvPvES2_S1_:
 127              	.LFB22:
  29:src/syscall_c.cpp **** int thread_create(thread_t *handle, void(*start_routine)(void*), void* arg, thread_t* parent){
 128              		.loc 1 29 94 is_stmt 1
 129              		.cfi_startproc
 130              	.LVL7:
 131 006c 130101FD 		addi	sp,sp,-48
 132              		.cfi_def_cfa_offset 48
 133 0070 23341102 		sd	ra,40(sp)
 134 0074 23308102 		sd	s0,32(sp)
 135 0078 233C9100 		sd	s1,24(sp)
 136 007c 23382101 		sd	s2,16(sp)
 137 0080 23343101 		sd	s3,8(sp)
 138              		.cfi_offset 1, -8
 139              		.cfi_offset 8, -16
 140              		.cfi_offset 9, -24
 141              		.cfi_offset 18, -32
 142              		.cfi_offset 19, -40
 143 0084 13040103 		addi	s0,sp,48
 144              		.cfi_def_cfa 8, 0
 145 0088 93040500 		mv	s1,a0
 146 008c 13890500 		mv	s2,a1
GAS LISTING /tmp/ccmCh4nE.s 			page 4


 147 0090 93090600 		mv	s3,a2
  30:src/syscall_c.cpp ****     thread_t* part = parent;
 148              		.loc 1 30 5
 149              	.LVL8:
  31:src/syscall_c.cpp ****     __asm__ volatile("mv a7, %[paren]"::[paren]"r"(part));
 150              		.loc 1 31 5
 151              		.loc 1 31 58 is_stmt 0
 152              	#APP
 153              	# 31 "src/syscall_c.cpp" 1
  32              	
  33:src/syscall_c.cpp ****     uint64* stack = (uint64*) mem_alloc(DEFAULT_STACK_SIZE);//da ne bi bio sistemski poziv u sistem
 154              		mv a7, a3
 155              	# 0 "" 2
 156              		.loc 1 33 5 is_stmt 1
 157              		.loc 1 33 40 is_stmt 0
 158              	#NO_APP
 159 0098 37150000 		li	a0,4096
 160              	.LVL9:
 161 009c 97000000 		call	_Z9mem_allocm
 161      E7800000 
 162              	.LVL10:
  34:src/syscall_c.cpp ****     if(stack ==nullptr) return -1;
 163              		.loc 1 34 5 is_stmt 1
 164 00a4 63020504 		beqz	a0,.L7
  35:src/syscall_c.cpp ****     //pripremljeni svi podaci, salji
  36:src/syscall_c.cpp ****     __asm__ volatile("mv a6, %[stack]"::[stack]"r"(stack));
 165              		.loc 1 36 5
 166              		.loc 1 36 59 is_stmt 0
 167              	#APP
 168              	# 36 "src/syscall_c.cpp" 1
  37              	    void* arg1 = arg;
 169              		mv a6, a0
 170              	# 0 "" 2
 171              		.loc 1 37 5 is_stmt 1
 172              	.LVL11:
  38:src/syscall_c.cpp ****     __asm__ volatile("mv a3, %[arg]"::[arg]"r"(arg1));
 173              		.loc 1 38 5
 174              		.loc 1 38 54 is_stmt 0
 175              	# 38 "src/syscall_c.cpp" 1
  39              	    TCB::Body b = start_routine;
 176              		mv a3, s3
 177              	# 0 "" 2
 178              		.loc 1 39 5 is_stmt 1
 179              	.LVL12:
  40:src/syscall_c.cpp ****     __asm__ volatile("mv a2, %[body]"::[body]"r"(b));
 180              		.loc 1 40 5
 181              		.loc 1 40 53 is_stmt 0
 182              	# 40 "src/syscall_c.cpp" 1
  41              	    thread_t* thandle = handle;
 183              		mv a2, s2
 184              	# 0 "" 2
 185              		.loc 1 41 5 is_stmt 1
 186              	.LVL13:
  42:src/syscall_c.cpp ****     __asm__ volatile("mv a1, %[handle]"::[handle]"r"(thandle));
 187              		.loc 1 42 5
 188              		.loc 1 42 63 is_stmt 0
 189              	# 42 "src/syscall_c.cpp" 1
GAS LISTING /tmp/ccmCh4nE.s 			page 5


  43              	    size_t op_code=0x15;
 190              		mv a1, s1
 191              	# 0 "" 2
 192              		.loc 1 43 5 is_stmt 1
 193              	.LVL14:
  44:src/syscall_c.cpp ****     __asm__ volatile("mv a0, %[op]"::[op]"r"(op_code));
 194              		.loc 1 44 5
 195              		.loc 1 44 55 is_stmt 0
 196              	#NO_APP
 197 00b8 93075001 		li	a5,21
 198              	#APP
 199              	# 44 "src/syscall_c.cpp" 1
  45              	
  46:src/syscall_c.cpp **** 
  47:src/syscall_c.cpp ****     __asm__ volatile("ecall");
 200              		mv a0, a5
 201              	# 0 "" 2
 202              		.loc 1 47 5 is_stmt 1
 203              		.loc 1 47 30 is_stmt 0
 204              	# 47 "src/syscall_c.cpp" 1
  48              	    int thr;
 205              		ecall
 206              	# 0 "" 2
 207              		.loc 1 48 5 is_stmt 1
  49:src/syscall_c.cpp ****     __asm__ volatile("mv %[x], a0":[x]"=r"(thr));
 208              		.loc 1 49 5
 209              		.loc 1 49 49 is_stmt 0
 210              	# 49 "src/syscall_c.cpp" 1
  50              	    return thr;
 211              		mv a0, a0
 212              	# 0 "" 2
 213              	.LVL15:
 214              	#NO_APP
 215 00c8 1B050500 		sext.w	a0,a0
 216              	.LVL16:
 217              		.loc 1 50 5 is_stmt 1
 218              	.L6:
  51:src/syscall_c.cpp **** }
 219              		.loc 1 51 1 is_stmt 0
 220 00cc 83308102 		ld	ra,40(sp)
 221              		.cfi_remember_state
 222              		.cfi_restore 1
 223 00d0 03340102 		ld	s0,32(sp)
 224              		.cfi_restore 8
 225              		.cfi_def_cfa 2, 48
 226 00d4 83348101 		ld	s1,24(sp)
 227              		.cfi_restore 9
 228              	.LVL17:
 229 00d8 03390101 		ld	s2,16(sp)
 230              		.cfi_restore 18
 231              	.LVL18:
 232 00dc 83398100 		ld	s3,8(sp)
 233              		.cfi_restore 19
 234              	.LVL19:
 235 00e0 13010103 		addi	sp,sp,48
 236              		.cfi_def_cfa_offset 0
 237 00e4 67800000 		jr	ra
GAS LISTING /tmp/ccmCh4nE.s 			page 6


 238              	.LVL20:
 239              	.L7:
 240              		.cfi_restore_state
  34:src/syscall_c.cpp ****     //pripremljeni svi podaci, salji
 241              		.loc 1 34 33
 242 00e8 1305F0FF 		li	a0,-1
 243              	.LVL21:
 244 00ec 6FF01FFE 		j	.L6
 245              		.cfi_endproc
 246              	.LFE22:
 248              		.align	2
 249              		.globl	_Z13thread_createPP3TCBPFvPvES2_
 251              	_Z13thread_createPP3TCBPFvPvES2_:
 252              	.LFB23:
  52:src/syscall_c.cpp **** 
  53:src/syscall_c.cpp **** int thread_create(thread_t *handle, void(*start_routine)(void*), void* arg){
 253              		.loc 1 53 76 is_stmt 1
 254              		.cfi_startproc
 255              	.LVL22:
 256 00f0 130101FD 		addi	sp,sp,-48
 257              		.cfi_def_cfa_offset 48
 258 00f4 23341102 		sd	ra,40(sp)
 259 00f8 23308102 		sd	s0,32(sp)
 260 00fc 233C9100 		sd	s1,24(sp)
 261 0100 23382101 		sd	s2,16(sp)
 262 0104 23343101 		sd	s3,8(sp)
 263              		.cfi_offset 1, -8
 264              		.cfi_offset 8, -16
 265              		.cfi_offset 9, -24
 266              		.cfi_offset 18, -32
 267              		.cfi_offset 19, -40
 268 0108 13040103 		addi	s0,sp,48
 269              		.cfi_def_cfa 8, 0
 270 010c 93040500 		mv	s1,a0
 271 0110 13890500 		mv	s2,a1
 272 0114 93090600 		mv	s3,a2
  54:src/syscall_c.cpp ****     uint64* stack = (uint64*) mem_alloc(DEFAULT_STACK_SIZE);//da ne bi bio sistemski poziv u sistem
 273              		.loc 1 54 5
 274              		.loc 1 54 40 is_stmt 0
 275 0118 37150000 		li	a0,4096
 276              	.LVL23:
 277 011c 97000000 		call	_Z9mem_allocm
 277      E7800000 
 278              	.LVL24:
  55:src/syscall_c.cpp ****     if(stack ==nullptr) return -1;
 279              		.loc 1 55 5 is_stmt 1
 280 0124 63020504 		beqz	a0,.L11
  56:src/syscall_c.cpp ****     //pripremljeni svi podaci, salji
  57:src/syscall_c.cpp ****     __asm__ volatile("mv a6, %[stack]"::[stack]"r"(stack));
 281              		.loc 1 57 5
 282              		.loc 1 57 59 is_stmt 0
 283              	#APP
 284              	# 57 "src/syscall_c.cpp" 1
  58              	    void* arg1 = arg;
 285              		mv a6, a0
 286              	# 0 "" 2
 287              		.loc 1 58 5 is_stmt 1
GAS LISTING /tmp/ccmCh4nE.s 			page 7


 288              	.LVL25:
  59:src/syscall_c.cpp ****     __asm__ volatile("mv a3, %[arg]"::[arg]"r"(arg1));
 289              		.loc 1 59 5
 290              		.loc 1 59 54 is_stmt 0
 291              	# 59 "src/syscall_c.cpp" 1
  60              	    TCB::Body b = start_routine;
 292              		mv a3, s3
 293              	# 0 "" 2
 294              		.loc 1 60 5 is_stmt 1
 295              	.LVL26:
  61:src/syscall_c.cpp ****     __asm__ volatile("mv a2, %[body]"::[body]"r"(b));
 296              		.loc 1 61 5
 297              		.loc 1 61 53 is_stmt 0
 298              	# 61 "src/syscall_c.cpp" 1
  62              	    thread_t* thandle = handle;
 299              		mv a2, s2
 300              	# 0 "" 2
 301              		.loc 1 62 5 is_stmt 1
 302              	.LVL27:
  63:src/syscall_c.cpp ****     __asm__ volatile("mv a1, %[handle]"::[handle]"r"(thandle));
 303              		.loc 1 63 5
 304              		.loc 1 63 63 is_stmt 0
 305              	# 63 "src/syscall_c.cpp" 1
  64              	    size_t op_code=0x11;
 306              		mv a1, s1
 307              	# 0 "" 2
 308              		.loc 1 64 5 is_stmt 1
 309              	.LVL28:
  65:src/syscall_c.cpp ****     __asm__ volatile("mv a0, %[op]"::[op]"r"(op_code));
 310              		.loc 1 65 5
 311              		.loc 1 65 55 is_stmt 0
 312              	#NO_APP
 313 0138 93071001 		li	a5,17
 314              	#APP
 315              	# 65 "src/syscall_c.cpp" 1
  66              	
  67:src/syscall_c.cpp **** 
  68:src/syscall_c.cpp ****     __asm__ volatile("ecall");
 316              		mv a0, a5
 317              	# 0 "" 2
 318              		.loc 1 68 5 is_stmt 1
 319              		.loc 1 68 30 is_stmt 0
 320              	# 68 "src/syscall_c.cpp" 1
  69              	    int thr;
 321              		ecall
 322              	# 0 "" 2
 323              		.loc 1 69 5 is_stmt 1
  70:src/syscall_c.cpp ****     __asm__ volatile("mv %[x], a0":[x]"=r"(thr));
 324              		.loc 1 70 5
 325              		.loc 1 70 49 is_stmt 0
 326              	# 70 "src/syscall_c.cpp" 1
  71              	    return thr;
 327              		mv a0, a0
 328              	# 0 "" 2
 329              	.LVL29:
 330              	#NO_APP
 331 0148 1B050500 		sext.w	a0,a0
GAS LISTING /tmp/ccmCh4nE.s 			page 8


 332              	.LVL30:
 333              		.loc 1 71 5 is_stmt 1
 334              	.L10:
  72:src/syscall_c.cpp **** }
 335              		.loc 1 72 1 is_stmt 0
 336 014c 83308102 		ld	ra,40(sp)
 337              		.cfi_remember_state
 338              		.cfi_restore 1
 339 0150 03340102 		ld	s0,32(sp)
 340              		.cfi_restore 8
 341              		.cfi_def_cfa 2, 48
 342 0154 83348101 		ld	s1,24(sp)
 343              		.cfi_restore 9
 344              	.LVL31:
 345 0158 03390101 		ld	s2,16(sp)
 346              		.cfi_restore 18
 347              	.LVL32:
 348 015c 83398100 		ld	s3,8(sp)
 349              		.cfi_restore 19
 350              	.LVL33:
 351 0160 13010103 		addi	sp,sp,48
 352              		.cfi_def_cfa_offset 0
 353 0164 67800000 		jr	ra
 354              	.LVL34:
 355              	.L11:
 356              		.cfi_restore_state
  55:src/syscall_c.cpp ****     //pripremljeni svi podaci, salji
 357              		.loc 1 55 33
 358 0168 1305F0FF 		li	a0,-1
 359              	.LVL35:
 360 016c 6FF01FFE 		j	.L10
 361              		.cfi_endproc
 362              	.LFE23:
 364              		.align	2
 365              		.globl	_Z15thread_dispatchv
 367              	_Z15thread_dispatchv:
 368              	.LFB24:
  73:src/syscall_c.cpp **** 
  74:src/syscall_c.cpp **** 
  75:src/syscall_c.cpp **** void thread_dispatch (){
 369              		.loc 1 75 24 is_stmt 1
 370              		.cfi_startproc
 371 0170 130101FF 		addi	sp,sp,-16
 372              		.cfi_def_cfa_offset 16
 373 0174 23348100 		sd	s0,8(sp)
 374              		.cfi_offset 8, -8
 375 0178 13040101 		addi	s0,sp,16
 376              		.cfi_def_cfa 8, 0
  76:src/syscall_c.cpp ****     size_t op_code = 0x13;
 377              		.loc 1 76 5
 378              	.LVL36:
  77:src/syscall_c.cpp ****     __asm__ volatile("mv a0, %[op]"::[op]"r"(op_code));
 379              		.loc 1 77 5
 380              		.loc 1 77 55 is_stmt 0
 381 017c 93073001 		li	a5,19
 382              	#APP
 383              	# 77 "src/syscall_c.cpp" 1
GAS LISTING /tmp/ccmCh4nE.s 			page 9


  78              	    __asm__ volatile("ecall");
 384              		mv a0, a5
 385              	# 0 "" 2
 386              		.loc 1 78 5 is_stmt 1
 387              		.loc 1 78 30 is_stmt 0
 388              	# 78 "src/syscall_c.cpp" 1
  79              	}
 389              		ecall
 390              	# 0 "" 2
 391              		.loc 1 79 1
 392              	#NO_APP
 393 0188 03348100 		ld	s0,8(sp)
 394              		.cfi_restore 8
 395              		.cfi_def_cfa 2, 16
 396 018c 13010101 		addi	sp,sp,16
 397              		.cfi_def_cfa_offset 0
 398 0190 67800000 		jr	ra
 399              		.cfi_endproc
 400              	.LFE24:
 402              		.align	2
 403              		.globl	_Z11thread_exitv
 405              	_Z11thread_exitv:
 406              	.LFB25:
  80:src/syscall_c.cpp **** 
  81:src/syscall_c.cpp **** int thread_exit (){
 407              		.loc 1 81 19 is_stmt 1
 408              		.cfi_startproc
 409 0194 130101FF 		addi	sp,sp,-16
 410              		.cfi_def_cfa_offset 16
 411 0198 23348100 		sd	s0,8(sp)
 412              		.cfi_offset 8, -8
 413 019c 13040101 		addi	s0,sp,16
 414              		.cfi_def_cfa 8, 0
  82:src/syscall_c.cpp ****     size_t op_code = 0x12;
 415              		.loc 1 82 5
 416              	.LVL37:
  83:src/syscall_c.cpp ****     __asm__ volatile("mv a0, %[op]"::[op]"r"(op_code));
 417              		.loc 1 83 5
 418              		.loc 1 83 55 is_stmt 0
 419 01a0 93072001 		li	a5,18
 420              	#APP
 421              	# 83 "src/syscall_c.cpp" 1
  84              	    __asm__ volatile("ecall");
 422              		mv a0, a5
 423              	# 0 "" 2
 424              		.loc 1 84 5 is_stmt 1
 425              		.loc 1 84 30 is_stmt 0
 426              	# 84 "src/syscall_c.cpp" 1
  85              	    int x;
 427              		ecall
 428              	# 0 "" 2
 429              		.loc 1 85 5 is_stmt 1
  86:src/syscall_c.cpp ****     __asm__ volatile("mv %[x], a0":[x]"=r"(x));
 430              		.loc 1 86 5
 431              		.loc 1 86 47 is_stmt 0
 432              	# 86 "src/syscall_c.cpp" 1
  87              	    return x;
GAS LISTING /tmp/ccmCh4nE.s 			page 10


 433              		mv a0, a0
 434              	# 0 "" 2
 435              	.LVL38:
 436              		.loc 1 87 5 is_stmt 1
  88:src/syscall_c.cpp **** }
 437              		.loc 1 88 1 is_stmt 0
 438              	#NO_APP
 439 01b0 1B050500 		sext.w	a0,a0
 440 01b4 03348100 		ld	s0,8(sp)
 441              		.cfi_restore 8
 442              		.cfi_def_cfa 2, 16
 443 01b8 13010101 		addi	sp,sp,16
 444              		.cfi_def_cfa_offset 0
 445 01bc 67800000 		jr	ra
 446              		.cfi_endproc
 447              	.LFE25:
 449              		.align	2
 450              		.globl	_Z13SetMaxThreadsi
 452              	_Z13SetMaxThreadsi:
 453              	.LFB26:
  89:src/syscall_c.cpp **** 
  90:src/syscall_c.cpp **** void SetMaxThreads(int i){
 454              		.loc 1 90 26 is_stmt 1
 455              		.cfi_startproc
 456              	.LVL39:
 457 01c0 130101FF 		addi	sp,sp,-16
 458              		.cfi_def_cfa_offset 16
 459 01c4 23348100 		sd	s0,8(sp)
 460              		.cfi_offset 8, -8
 461 01c8 13040101 		addi	s0,sp,16
 462              		.cfi_def_cfa 8, 0
  91:src/syscall_c.cpp ****     size_t op_code = 0x18;
 463              		.loc 1 91 5
 464              	.LVL40:
  92:src/syscall_c.cpp ****     __asm__ volatile("mv a1, %[num]"::[num]"r"(i));
 465              		.loc 1 92 5
 466              		.loc 1 92 51 is_stmt 0
 467              	#APP
 468              	# 92 "src/syscall_c.cpp" 1
  93              	    __asm__ volatile("mv a0, %[op]"::[op]"r"(op_code));
 469              		mv a1, a0
 470              	# 0 "" 2
 471              		.loc 1 93 5 is_stmt 1
 472              		.loc 1 93 55 is_stmt 0
 473              	#NO_APP
 474 01d0 93078001 		li	a5,24
 475              	#APP
 476              	# 93 "src/syscall_c.cpp" 1
  94              	    __asm__ volatile("ecall");
 477              		mv a0, a5
 478              	# 0 "" 2
 479              		.loc 1 94 5 is_stmt 1
 480              		.loc 1 94 30 is_stmt 0
 481              	# 94 "src/syscall_c.cpp" 1
  95              	}
 482              		ecall
 483              	# 0 "" 2
GAS LISTING /tmp/ccmCh4nE.s 			page 11


 484              		.loc 1 95 1
 485              	#NO_APP
 486 01dc 03348100 		ld	s0,8(sp)
 487              		.cfi_restore 8
 488              		.cfi_def_cfa 2, 16
 489 01e0 13010101 		addi	sp,sp,16
 490              		.cfi_def_cfa_offset 0
 491 01e4 67800000 		jr	ra
 492              		.cfi_endproc
 493              	.LFE26:
 495              		.align	2
 496              		.globl	_Z7joinAllv
 498              	_Z7joinAllv:
 499              	.LFB27:
  96:src/syscall_c.cpp **** 
  97:src/syscall_c.cpp **** void joinAll(){
 500              		.loc 1 97 15 is_stmt 1
 501              		.cfi_startproc
 502 01e8 130101FF 		addi	sp,sp,-16
 503              		.cfi_def_cfa_offset 16
 504 01ec 23348100 		sd	s0,8(sp)
 505              		.cfi_offset 8, -8
 506 01f0 13040101 		addi	s0,sp,16
 507              		.cfi_def_cfa 8, 0
  98:src/syscall_c.cpp ****     size_t op_code = 0x16;
 508              		.loc 1 98 5
 509              	.LVL41:
  99:src/syscall_c.cpp ****     __asm__ volatile("mv a0, %[op]"::[op]"r"(op_code));
 510              		.loc 1 99 5
 511              		.loc 1 99 55 is_stmt 0
 512 01f4 93076001 		li	a5,22
 513              	#APP
 514              	# 99 "src/syscall_c.cpp" 1
 100              	    __asm__ volatile("ecall");
 515              		mv a0, a5
 516              	# 0 "" 2
 517              		.loc 1 100 5 is_stmt 1
 518              		.loc 1 100 30 is_stmt 0
 519              	# 100 "src/syscall_c.cpp" 1
 101              	}
 520              		ecall
 521              	# 0 "" 2
 522              		.loc 1 101 1
 523              	#NO_APP
 524 0200 03348100 		ld	s0,8(sp)
 525              		.cfi_restore 8
 526              		.cfi_def_cfa 2, 16
 527 0204 13010101 		addi	sp,sp,16
 528              		.cfi_def_cfa_offset 0
 529 0208 67800000 		jr	ra
 530              		.cfi_endproc
 531              	.LFE27:
 533              		.align	2
 534              		.globl	_Z8sem_openPP3Semj
 536              	_Z8sem_openPP3Semj:
 537              	.LFB28:
 102:src/syscall_c.cpp **** 
GAS LISTING /tmp/ccmCh4nE.s 			page 12


 103:src/syscall_c.cpp **** 
 104:src/syscall_c.cpp **** 
 105:src/syscall_c.cpp **** //void thread_join(thread_t handle){
 106:src/syscall_c.cpp **** //    size_t op_code=0x14;
 107:src/syscall_c.cpp **** //    __asm__ volatile("mv a1, %[handle]"::[handle]"r"(handle));
 108:src/syscall_c.cpp **** //    __asm__ volatile("mv a0, %[op]"::[op]"r"(op_code));
 109:src/syscall_c.cpp **** //    __asm__ volatile("ecall");
 110:src/syscall_c.cpp **** //
 111:src/syscall_c.cpp **** //}
 112:src/syscall_c.cpp **** 
 113:src/syscall_c.cpp **** int sem_open (sem_t* handle, unsigned init){
 538              		.loc 1 113 44 is_stmt 1
 539              		.cfi_startproc
 540              	.LVL42:
 541 020c 130101FF 		addi	sp,sp,-16
 542              		.cfi_def_cfa_offset 16
 543 0210 23348100 		sd	s0,8(sp)
 544              		.cfi_offset 8, -8
 545 0214 13040101 		addi	s0,sp,16
 546              		.cfi_def_cfa 8, 0
 114:src/syscall_c.cpp ****     size_t op_code = 0x21;
 547              		.loc 1 114 5
 548              	.LVL43:
 115:src/syscall_c.cpp ****     __asm__ volatile("mv a2, %[init]"::[init]"r"(init));
 549              		.loc 1 115 5
 550              		.loc 1 115 56 is_stmt 0
 551              	#APP
 552              	# 115 "src/syscall_c.cpp" 1
 116              	    __asm__ volatile("mv a1, %[handle]"::[handle]"r"(handle));
 553              		mv a2, a1
 554              	# 0 "" 2
 555              		.loc 1 116 5 is_stmt 1
 556              		.loc 1 116 62 is_stmt 0
 557              	# 116 "src/syscall_c.cpp" 1
 117              	    __asm__ volatile("mv a0, %[op]"::[op]"r"(op_code));
 558              		mv a1, a0
 559              	# 0 "" 2
 560              		.loc 1 117 5 is_stmt 1
 561              		.loc 1 117 55 is_stmt 0
 562              	#NO_APP
 563 0220 93071002 		li	a5,33
 564              	#APP
 565              	# 117 "src/syscall_c.cpp" 1
 118              	    __asm__ volatile("ecall");
 566              		mv a0, a5
 567              	# 0 "" 2
 568              		.loc 1 118 5 is_stmt 1
 569              		.loc 1 118 30 is_stmt 0
 570              	# 118 "src/syscall_c.cpp" 1
 119              	    int x;
 571              		ecall
 572              	# 0 "" 2
 573              		.loc 1 119 5 is_stmt 1
 120:src/syscall_c.cpp ****     __asm__ volatile("mv %[x], a0":[x]"=r"(x));
 574              		.loc 1 120 5
 575              		.loc 1 120 47 is_stmt 0
 576              	# 120 "src/syscall_c.cpp" 1
GAS LISTING /tmp/ccmCh4nE.s 			page 13


 121              	    return x;
 577              		mv a0, a0
 578              	# 0 "" 2
 579              	.LVL44:
 580              		.loc 1 121 5 is_stmt 1
 122:src/syscall_c.cpp **** }
 581              		.loc 1 122 1 is_stmt 0
 582              	#NO_APP
 583 0230 1B050500 		sext.w	a0,a0
 584 0234 03348100 		ld	s0,8(sp)
 585              		.cfi_restore 8
 586              		.cfi_def_cfa 2, 16
 587 0238 13010101 		addi	sp,sp,16
 588              		.cfi_def_cfa_offset 0
 589 023c 67800000 		jr	ra
 590              		.cfi_endproc
 591              	.LFE28:
 593              		.align	2
 594              		.globl	_Z9sem_closeP3Sem
 596              	_Z9sem_closeP3Sem:
 597              	.LFB29:
 123:src/syscall_c.cpp **** 
 124:src/syscall_c.cpp **** int sem_close (sem_t handle){
 598              		.loc 1 124 29 is_stmt 1
 599              		.cfi_startproc
 600              	.LVL45:
 601 0240 130101FF 		addi	sp,sp,-16
 602              		.cfi_def_cfa_offset 16
 603 0244 23348100 		sd	s0,8(sp)
 604              		.cfi_offset 8, -8
 605 0248 13040101 		addi	s0,sp,16
 606              		.cfi_def_cfa 8, 0
 125:src/syscall_c.cpp ****     size_t op_code = 0x22;
 607              		.loc 1 125 5
 608              	.LVL46:
 126:src/syscall_c.cpp ****     __asm__ volatile("mv a1, %[handle]"::[handle]"r"(handle));
 609              		.loc 1 126 5
 610              		.loc 1 126 62 is_stmt 0
 611              	#APP
 612              	# 126 "src/syscall_c.cpp" 1
 127              	    __asm__ volatile("mv a0, %[op]"::[op]"r"(op_code));
 613              		mv a1, a0
 614              	# 0 "" 2
 615              		.loc 1 127 5 is_stmt 1
 616              		.loc 1 127 55 is_stmt 0
 617              	#NO_APP
 618 0250 93072002 		li	a5,34
 619              	#APP
 620              	# 127 "src/syscall_c.cpp" 1
 128              	    __asm__ volatile("ecall");
 621              		mv a0, a5
 622              	# 0 "" 2
 623              		.loc 1 128 5 is_stmt 1
 624              		.loc 1 128 30 is_stmt 0
 625              	# 128 "src/syscall_c.cpp" 1
 129              	    int x;
 626              		ecall
GAS LISTING /tmp/ccmCh4nE.s 			page 14


 627              	# 0 "" 2
 628              		.loc 1 129 5 is_stmt 1
 130:src/syscall_c.cpp ****     __asm__ volatile("mv %[x], a0":[x]"=r"(x));
 629              		.loc 1 130 5
 630              		.loc 1 130 47 is_stmt 0
 631              	# 130 "src/syscall_c.cpp" 1
 131              	    return x;
 632              		mv a0, a0
 633              	# 0 "" 2
 634              	.LVL47:
 635              		.loc 1 131 5 is_stmt 1
 132:src/syscall_c.cpp **** }
 636              		.loc 1 132 1 is_stmt 0
 637              	#NO_APP
 638 0260 1B050500 		sext.w	a0,a0
 639 0264 03348100 		ld	s0,8(sp)
 640              		.cfi_restore 8
 641              		.cfi_def_cfa 2, 16
 642 0268 13010101 		addi	sp,sp,16
 643              		.cfi_def_cfa_offset 0
 644 026c 67800000 		jr	ra
 645              		.cfi_endproc
 646              	.LFE29:
 648              		.align	2
 649              		.globl	_Z8sem_waitP3Sem
 651              	_Z8sem_waitP3Sem:
 652              	.LFB30:
 133:src/syscall_c.cpp **** int sem_wait (sem_t id){
 653              		.loc 1 133 24 is_stmt 1
 654              		.cfi_startproc
 655              	.LVL48:
 656 0270 130101FF 		addi	sp,sp,-16
 657              		.cfi_def_cfa_offset 16
 658 0274 23348100 		sd	s0,8(sp)
 659              		.cfi_offset 8, -8
 660 0278 13040101 		addi	s0,sp,16
 661              		.cfi_def_cfa 8, 0
 134:src/syscall_c.cpp ****     size_t op_code = 0x23;
 662              		.loc 1 134 5
 663              	.LVL49:
 135:src/syscall_c.cpp ****     __asm__ volatile("mv a1, %[id]"::[id]"r"(id));
 664              		.loc 1 135 5
 665              		.loc 1 135 50 is_stmt 0
 666              	#APP
 667              	# 135 "src/syscall_c.cpp" 1
 136              	    __asm__ volatile("mv a0, %[op]"::[op]"r"(op_code));
 668              		mv a1, a0
 669              	# 0 "" 2
 670              		.loc 1 136 5 is_stmt 1
 671              		.loc 1 136 55 is_stmt 0
 672              	#NO_APP
 673 0280 93073002 		li	a5,35
 674              	#APP
 675              	# 136 "src/syscall_c.cpp" 1
 137              	    __asm__ volatile("ecall");
 676              		mv a0, a5
 677              	# 0 "" 2
GAS LISTING /tmp/ccmCh4nE.s 			page 15


 678              		.loc 1 137 5 is_stmt 1
 679              		.loc 1 137 30 is_stmt 0
 680              	# 137 "src/syscall_c.cpp" 1
 138              	    int x;
 681              		ecall
 682              	# 0 "" 2
 683              		.loc 1 138 5 is_stmt 1
 139:src/syscall_c.cpp ****     __asm__ volatile("mv %[x], a0":[x]"=r"(x));
 684              		.loc 1 139 5
 685              		.loc 1 139 47 is_stmt 0
 686              	# 139 "src/syscall_c.cpp" 1
 140              	    return x;
 687              		mv a0, a0
 688              	# 0 "" 2
 689              	.LVL50:
 690              		.loc 1 140 5 is_stmt 1
 141:src/syscall_c.cpp **** }
 691              		.loc 1 141 1 is_stmt 0
 692              	#NO_APP
 693 0290 1B050500 		sext.w	a0,a0
 694 0294 03348100 		ld	s0,8(sp)
 695              		.cfi_restore 8
 696              		.cfi_def_cfa 2, 16
 697 0298 13010101 		addi	sp,sp,16
 698              		.cfi_def_cfa_offset 0
 699 029c 67800000 		jr	ra
 700              		.cfi_endproc
 701              	.LFE30:
 703              		.align	2
 704              		.globl	_Z10sem_signalP3Sem
 706              	_Z10sem_signalP3Sem:
 707              	.LFB31:
 142:src/syscall_c.cpp **** int sem_signal(sem_t id){
 708              		.loc 1 142 25 is_stmt 1
 709              		.cfi_startproc
 710              	.LVL51:
 711 02a0 130101FF 		addi	sp,sp,-16
 712              		.cfi_def_cfa_offset 16
 713 02a4 23348100 		sd	s0,8(sp)
 714              		.cfi_offset 8, -8
 715 02a8 13040101 		addi	s0,sp,16
 716              		.cfi_def_cfa 8, 0
 143:src/syscall_c.cpp ****     size_t op_code = 0x24;
 717              		.loc 1 143 5
 718              	.LVL52:
 144:src/syscall_c.cpp ****     __asm__ volatile("mv a1, %[id]"::[id]"r"(id));
 719              		.loc 1 144 5
 720              		.loc 1 144 50 is_stmt 0
 721              	#APP
 722              	# 144 "src/syscall_c.cpp" 1
 145              	    __asm__ volatile("mv a0, %[op]"::[op]"r"(op_code));
 723              		mv a1, a0
 724              	# 0 "" 2
 725              		.loc 1 145 5 is_stmt 1
 726              		.loc 1 145 55 is_stmt 0
 727              	#NO_APP
 728 02b0 93074002 		li	a5,36
GAS LISTING /tmp/ccmCh4nE.s 			page 16


 729              	#APP
 730              	# 145 "src/syscall_c.cpp" 1
 146              	    __asm__ volatile("ecall");
 731              		mv a0, a5
 732              	# 0 "" 2
 733              		.loc 1 146 5 is_stmt 1
 734              		.loc 1 146 30 is_stmt 0
 735              	# 146 "src/syscall_c.cpp" 1
 147              	    int x;
 736              		ecall
 737              	# 0 "" 2
 738              		.loc 1 147 5 is_stmt 1
 148:src/syscall_c.cpp ****     __asm__ volatile("mv %[x], a0":[x]"=r"(x));
 739              		.loc 1 148 5
 740              		.loc 1 148 47 is_stmt 0
 741              	# 148 "src/syscall_c.cpp" 1
 149              	    return x;
 742              		mv a0, a0
 743              	# 0 "" 2
 744              	.LVL53:
 745              		.loc 1 149 5 is_stmt 1
 150:src/syscall_c.cpp **** }
 746              		.loc 1 150 1 is_stmt 0
 747              	#NO_APP
 748 02c0 1B050500 		sext.w	a0,a0
 749 02c4 03348100 		ld	s0,8(sp)
 750              		.cfi_restore 8
 751              		.cfi_def_cfa 2, 16
 752 02c8 13010101 		addi	sp,sp,16
 753              		.cfi_def_cfa_offset 0
 754 02cc 67800000 		jr	ra
 755              		.cfi_endproc
 756              	.LFE31:
 758              		.align	2
 759              		.globl	_Z11sem_trywaitP3Sem
 761              	_Z11sem_trywaitP3Sem:
 762              	.LFB32:
 151:src/syscall_c.cpp **** 
 152:src/syscall_c.cpp **** int sem_trywait(sem_t id){
 763              		.loc 1 152 26 is_stmt 1
 764              		.cfi_startproc
 765              	.LVL54:
 766 02d0 130101FF 		addi	sp,sp,-16
 767              		.cfi_def_cfa_offset 16
 768 02d4 23348100 		sd	s0,8(sp)
 769              		.cfi_offset 8, -8
 770 02d8 13040101 		addi	s0,sp,16
 771              		.cfi_def_cfa 8, 0
 153:src/syscall_c.cpp ****     size_t op_code = 0x25;
 772              		.loc 1 153 5
 773              	.LVL55:
 154:src/syscall_c.cpp ****     __asm__ volatile("mv a1, %[id]"::[id]"r"(id));
 774              		.loc 1 154 5
 775              		.loc 1 154 50 is_stmt 0
 776              	#APP
 777              	# 154 "src/syscall_c.cpp" 1
 155              	    __asm__ volatile("mv a0, %[op]"::[op]"r"(op_code));
GAS LISTING /tmp/ccmCh4nE.s 			page 17


 778              		mv a1, a0
 779              	# 0 "" 2
 780              		.loc 1 155 5 is_stmt 1
 781              		.loc 1 155 55 is_stmt 0
 782              	#NO_APP
 783 02e0 93075002 		li	a5,37
 784              	#APP
 785              	# 155 "src/syscall_c.cpp" 1
 156              	    __asm__ volatile("ecall");
 786              		mv a0, a5
 787              	# 0 "" 2
 788              		.loc 1 156 5 is_stmt 1
 789              		.loc 1 156 30 is_stmt 0
 790              	# 156 "src/syscall_c.cpp" 1
 157              	    int x;
 791              		ecall
 792              	# 0 "" 2
 793              		.loc 1 157 5 is_stmt 1
 158:src/syscall_c.cpp ****     __asm__ volatile("mv %[x], a0":[x]"=r"(x));
 794              		.loc 1 158 5
 795              		.loc 1 158 47 is_stmt 0
 796              	# 158 "src/syscall_c.cpp" 1
 159              	    return x;
 797              		mv a0, a0
 798              	# 0 "" 2
 799              	.LVL56:
 800              		.loc 1 159 5 is_stmt 1
 160:src/syscall_c.cpp **** }
 801              		.loc 1 160 1 is_stmt 0
 802              	#NO_APP
 803 02f0 1B050500 		sext.w	a0,a0
 804 02f4 03348100 		ld	s0,8(sp)
 805              		.cfi_restore 8
 806              		.cfi_def_cfa 2, 16
 807 02f8 13010101 		addi	sp,sp,16
 808              		.cfi_def_cfa_offset 0
 809 02fc 67800000 		jr	ra
 810              		.cfi_endproc
 811              	.LFE32:
 813              		.align	2
 814              		.globl	_Z14sem_wait_priorP3Semj
 816              	_Z14sem_wait_priorP3Semj:
 817              	.LFB33:
 161:src/syscall_c.cpp **** 
 162:src/syscall_c.cpp **** int sem_wait_prior (sem_t handle, unsigned id){
 818              		.loc 1 162 47 is_stmt 1
 819              		.cfi_startproc
 820              	.LVL57:
 821 0300 130101FF 		addi	sp,sp,-16
 822              		.cfi_def_cfa_offset 16
 823 0304 23348100 		sd	s0,8(sp)
 824              		.cfi_offset 8, -8
 825 0308 13040101 		addi	s0,sp,16
 826              		.cfi_def_cfa 8, 0
 163:src/syscall_c.cpp ****     size_t op_code = 0x26;
 827              		.loc 1 163 5
 828              	.LVL58:
GAS LISTING /tmp/ccmCh4nE.s 			page 18


 164:src/syscall_c.cpp ****     __asm__ volatile("mv a2, %[init]"::[init]"r"(id));
 829              		.loc 1 164 5
 830              		.loc 1 164 54 is_stmt 0
 831              	#APP
 832              	# 164 "src/syscall_c.cpp" 1
 165              	    __asm__ volatile("mv a1, %[handle]"::[handle]"r"(handle));
 833              		mv a2, a1
 834              	# 0 "" 2
 835              		.loc 1 165 5 is_stmt 1
 836              		.loc 1 165 62 is_stmt 0
 837              	# 165 "src/syscall_c.cpp" 1
 166              	    __asm__ volatile("mv a0, %[op]"::[op]"r"(op_code));
 838              		mv a1, a0
 839              	# 0 "" 2
 840              		.loc 1 166 5 is_stmt 1
 841              		.loc 1 166 55 is_stmt 0
 842              	#NO_APP
 843 0314 93076002 		li	a5,38
 844              	#APP
 845              	# 166 "src/syscall_c.cpp" 1
 167              	    __asm__ volatile("ecall");
 846              		mv a0, a5
 847              	# 0 "" 2
 848              		.loc 1 167 5 is_stmt 1
 849              		.loc 1 167 30 is_stmt 0
 850              	# 167 "src/syscall_c.cpp" 1
 168              	    int x;
 851              		ecall
 852              	# 0 "" 2
 853              		.loc 1 168 5 is_stmt 1
 169:src/syscall_c.cpp ****     __asm__ volatile("mv %[x], a0":[x]"=r"(x));
 854              		.loc 1 169 5
 855              		.loc 1 169 47 is_stmt 0
 856              	# 169 "src/syscall_c.cpp" 1
 170              	    return x;
 857              		mv a0, a0
 858              	# 0 "" 2
 859              	.LVL59:
 860              		.loc 1 170 5 is_stmt 1
 171:src/syscall_c.cpp **** }
 861              		.loc 1 171 1 is_stmt 0
 862              	#NO_APP
 863 0324 1B050500 		sext.w	a0,a0
 864 0328 03348100 		ld	s0,8(sp)
 865              		.cfi_restore 8
 866              		.cfi_def_cfa 2, 16
 867 032c 13010101 		addi	sp,sp,16
 868              		.cfi_def_cfa_offset 0
 869 0330 67800000 		jr	ra
 870              		.cfi_endproc
 871              	.LFE33:
 873              		.align	2
 874              		.globl	_Z4getcv
 876              	_Z4getcv:
 877              	.LFB34:
 172:src/syscall_c.cpp **** 
 173:src/syscall_c.cpp **** char getc (){
GAS LISTING /tmp/ccmCh4nE.s 			page 19


 878              		.loc 1 173 13 is_stmt 1
 879              		.cfi_startproc
 880 0334 130101FF 		addi	sp,sp,-16
 881              		.cfi_def_cfa_offset 16
 882 0338 23348100 		sd	s0,8(sp)
 883              		.cfi_offset 8, -8
 884 033c 13040101 		addi	s0,sp,16
 885              		.cfi_def_cfa 8, 0
 174:src/syscall_c.cpp ****     size_t op_code = 0x41;
 886              		.loc 1 174 5
 887              	.LVL60:
 175:src/syscall_c.cpp ****     __asm__ volatile("mv a0, %[op]"::[op]"r"(op_code));
 888              		.loc 1 175 5
 889              		.loc 1 175 55 is_stmt 0
 890 0340 93071004 		li	a5,65
 891              	#APP
 892              	# 175 "src/syscall_c.cpp" 1
 176              	    __asm__ volatile("ecall");
 893              		mv a0, a5
 894              	# 0 "" 2
 895              		.loc 1 176 5 is_stmt 1
 896              		.loc 1 176 30 is_stmt 0
 897              	# 176 "src/syscall_c.cpp" 1
 177              	    char x;
 898              		ecall
 899              	# 0 "" 2
 900              		.loc 1 177 5 is_stmt 1
 178:src/syscall_c.cpp ****     __asm__ volatile("mv %[x], a0":[x]"=r"(x));
 901              		.loc 1 178 5
 902              		.loc 1 178 47 is_stmt 0
 903              	# 178 "src/syscall_c.cpp" 1
 179              	    return x;
 904              		mv a0, a0
 905              	# 0 "" 2
 906              	.LVL61:
 907              		.loc 1 179 5 is_stmt 1
 180:src/syscall_c.cpp **** }
 908              		.loc 1 180 1 is_stmt 0
 909              	#NO_APP
 910 0350 1375F50F 		andi	a0,a0,0xff
 911 0354 03348100 		ld	s0,8(sp)
 912              		.cfi_restore 8
 913              		.cfi_def_cfa 2, 16
 914 0358 13010101 		addi	sp,sp,16
 915              		.cfi_def_cfa_offset 0
 916 035c 67800000 		jr	ra
 917              		.cfi_endproc
 918              	.LFE34:
 920              		.align	2
 921              		.globl	_Z4putcc
 923              	_Z4putcc:
 924              	.LFB35:
 181:src/syscall_c.cpp **** 
 182:src/syscall_c.cpp **** void putc (char character){
 925              		.loc 1 182 27 is_stmt 1
 926              		.cfi_startproc
 927              	.LVL62:
GAS LISTING /tmp/ccmCh4nE.s 			page 20


 928 0360 130101FF 		addi	sp,sp,-16
 929              		.cfi_def_cfa_offset 16
 930 0364 23348100 		sd	s0,8(sp)
 931              		.cfi_offset 8, -8
 932 0368 13040101 		addi	s0,sp,16
 933              		.cfi_def_cfa 8, 0
 183:src/syscall_c.cpp ****     size_t op_code = 0x42;
 934              		.loc 1 183 5
 935              	.LVL63:
 184:src/syscall_c.cpp ****     __asm__ volatile("mv a1, %[ch]"::[ch]"r"(character));
 936              		.loc 1 184 5
 937              		.loc 1 184 57 is_stmt 0
 938              	#APP
 939              	# 184 "src/syscall_c.cpp" 1
 185              	    __asm__ volatile("mv a0, %[op]"::[op]"r"(op_code));
 940              		mv a1, a0
 941              	# 0 "" 2
 942              		.loc 1 185 5 is_stmt 1
 943              		.loc 1 185 55 is_stmt 0
 944              	#NO_APP
 945 0370 93072004 		li	a5,66
 946              	#APP
 947              	# 185 "src/syscall_c.cpp" 1
 186              	    __asm__ volatile("ecall");
 948              		mv a0, a5
 949              	# 0 "" 2
 950              		.loc 1 186 5 is_stmt 1
 951              		.loc 1 186 30 is_stmt 0
 952              	# 186 "src/syscall_c.cpp" 1
 187              	    //__putc(c);
 188:src/syscall_c.cpp **** }
 953              		ecall
 954              	# 0 "" 2
 955              		.loc 1 188 1
 956              	#NO_APP
 957 037c 03348100 		ld	s0,8(sp)
 958              		.cfi_restore 8
 959              		.cfi_def_cfa 2, 16
 960 0380 13010101 		addi	sp,sp,16
 961              		.cfi_def_cfa_offset 0
 962 0384 67800000 		jr	ra
 963              		.cfi_endproc
 964              	.LFE35:
 966              		.align	2
 967              		.globl	_Z10time_sleepm
 969              	_Z10time_sleepm:
 970              	.LFB36:
 189:src/syscall_c.cpp **** int time_sleep (time_t){
 971              		.loc 1 189 24 is_stmt 1
 972              		.cfi_startproc
 973 0388 130101FF 		addi	sp,sp,-16
 974              		.cfi_def_cfa_offset 16
 975 038c 23348100 		sd	s0,8(sp)
 976              		.cfi_offset 8, -8
 977 0390 13040101 		addi	s0,sp,16
 978              		.cfi_def_cfa 8, 0
 190:src/syscall_c.cpp ****     return 0;
GAS LISTING /tmp/ccmCh4nE.s 			page 21


 979              		.loc 1 190 5
 191:src/syscall_c.cpp **** }
 980              		.loc 1 191 1 is_stmt 0
 981 0394 13050000 		li	a0,0
 982 0398 03348100 		ld	s0,8(sp)
 983              		.cfi_restore 8
 984              		.cfi_def_cfa 2, 16
 985 039c 13010101 		addi	sp,sp,16
 986              		.cfi_def_cfa_offset 0
 987 03a0 67800000 		jr	ra
 988              		.cfi_endproc
 989              	.LFE36:
 991              		.align	2
 992              		.globl	_Z11getThreadIdv
 994              	_Z11getThreadIdv:
 995              	.LFB37:
 192:src/syscall_c.cpp **** 
 193:src/syscall_c.cpp **** 
 194:src/syscall_c.cpp **** int getThreadId(){
 996              		.loc 1 194 18 is_stmt 1
 997              		.cfi_startproc
 998 03a4 130101FF 		addi	sp,sp,-16
 999              		.cfi_def_cfa_offset 16
 1000 03a8 23348100 		sd	s0,8(sp)
 1001              		.cfi_offset 8, -8
 1002 03ac 13040101 		addi	s0,sp,16
 1003              		.cfi_def_cfa 8, 0
 195:src/syscall_c.cpp ****     size_t op_code = 0x17;
 1004              		.loc 1 195 5
 1005              	.LVL64:
 196:src/syscall_c.cpp ****     __asm__ volatile("mv a0, %[op]"::[op]"r"(op_code));
 1006              		.loc 1 196 5
 1007              		.loc 1 196 55 is_stmt 0
 1008 03b0 93077001 		li	a5,23
 1009              	#APP
 1010              	# 196 "src/syscall_c.cpp" 1
 197              	    __asm__ volatile("ecall");
 1011              		mv a0, a5
 1012              	# 0 "" 2
 1013              		.loc 1 197 5 is_stmt 1
 1014              		.loc 1 197 30 is_stmt 0
 1015              	# 197 "src/syscall_c.cpp" 1
 198              	    char x;
 1016              		ecall
 1017              	# 0 "" 2
 1018              		.loc 1 198 5 is_stmt 1
 199:src/syscall_c.cpp ****     __asm__ volatile("mv %[x], a0":[x]"=r"(x));
 1019              		.loc 1 199 5
 1020              		.loc 1 199 47 is_stmt 0
 1021              	# 199 "src/syscall_c.cpp" 1
 200              	    return x;
 1022              		mv a0, a0
 1023              	# 0 "" 2
 1024              	.LVL65:
 1025              		.loc 1 200 5 is_stmt 1
 201:src/syscall_c.cpp **** }
 1026              		.loc 1 201 1 is_stmt 0
GAS LISTING /tmp/ccmCh4nE.s 			page 22


 1027              	#NO_APP
 1028 03c0 1375F50F 		andi	a0,a0,0xff
 1029 03c4 03348100 		ld	s0,8(sp)
 1030              		.cfi_restore 8
 1031              		.cfi_def_cfa 2, 16
 1032 03c8 13010101 		addi	sp,sp,16
 1033              		.cfi_def_cfa_offset 0
 1034 03cc 67800000 		jr	ra
 1035              		.cfi_endproc
 1036              	.LFE37:
 1038              		.align	2
 1039              		.globl	_Z4pingP3TCB
 1041              	_Z4pingP3TCB:
 1042              	.LFB38:
 202:src/syscall_c.cpp **** 
 203:src/syscall_c.cpp **** void ping(thread_t handle1){
 1043              		.loc 1 203 28 is_stmt 1
 1044              		.cfi_startproc
 1045              	.LVL66:
 1046 03d0 130101FF 		addi	sp,sp,-16
 1047              		.cfi_def_cfa_offset 16
 1048 03d4 23348100 		sd	s0,8(sp)
 1049              		.cfi_offset 8, -8
 1050 03d8 13040101 		addi	s0,sp,16
 1051              		.cfi_def_cfa 8, 0
 204:src/syscall_c.cpp ****     size_t op_code=0x19;
 1052              		.loc 1 204 5
 1053              	.LVL67:
 205:src/syscall_c.cpp ****     __asm__ volatile("mv a1, %[handle]"::[handle]"r"(handle1));
 1054              		.loc 1 205 5
 1055              		.loc 1 205 63 is_stmt 0
 1056              	#APP
 1057              	# 205 "src/syscall_c.cpp" 1
 206              	    __asm__ volatile("mv a0, %[op]"::[op]"r"(op_code));
 1058              		mv a1, a0
 1059              	# 0 "" 2
 1060              		.loc 1 206 5 is_stmt 1
 1061              		.loc 1 206 55 is_stmt 0
 1062              	#NO_APP
 1063 03e0 93079001 		li	a5,25
 1064              	#APP
 1065              	# 206 "src/syscall_c.cpp" 1
 207              	    __asm__ volatile("ecall");
 1066              		mv a0, a5
 1067              	# 0 "" 2
 1068              		.loc 1 207 5 is_stmt 1
 1069              		.loc 1 207 30 is_stmt 0
 1070              	# 207 "src/syscall_c.cpp" 1
 208              	
 209:src/syscall_c.cpp **** }...
 1071              		ecall
 1072              	# 0 "" 2
 1073              		.loc 1 209 1
 1074              	#NO_APP
 1075 03ec 03348100 		ld	s0,8(sp)
 1076              		.cfi_restore 8
 1077              		.cfi_def_cfa 2, 16
GAS LISTING /tmp/ccmCh4nE.s 			page 23


 1078 03f0 13010101 		addi	sp,sp,16
 1079              		.cfi_def_cfa_offset 0
 1080 03f4 67800000 		jr	ra
 1081              		.cfi_endproc
 1082              	.LFE38:
 1084              	.Letext0:
 1085              		.file 2 "src/../h/../lib/hw.h"
 1086              		.file 3 "src/../h/MemoryAllocator.hpp"
 1087              		.file 4 "src/../h/queue.hpp"
 1088              		.file 5 "src/../h/tcb.hpp"
 1089              		.file 6 "src/../h/syscall_cpp.hpp"
 1090              		.file 7 "src/../h/sem.hpp"
 1091              		.file 8 "src/../h/syscall_c.hpp"
GAS LISTING /tmp/ccmCh4nE.s 			page 24

