GAS LISTING /tmp/ccmCh4nE.s 			page 1


   1              		.file	"syscall_c.cpp"
   2              		.option pic
   3              		.option norelax
   4              		.text
   5              	.Ltext0:
   6              		.align	2
   7              		.globl	_Z9mem_allocm
   9              	_Z9mem_allocm:
  10              	.LFB20:
  11              		.file 1 "src/syscall_c.cpp"
   1:src/syscall_c.cpp **** #include "../h/syscall_c.hpp"
   2:src/syscall_c.cpp **** 
   3:src/syscall_c.cpp **** void* mem_alloc(size_t size){
  12              		.loc 1 3 29
  13              		.cfi_startproc
  14              	.LVL0:
  15 0000 130101FF 		addi	sp,sp,-16
  16              		.cfi_def_cfa_offset 16
  17 0004 23341100 		sd	ra,8(sp)
  18 0008 23308100 		sd	s0,0(sp)
  19              		.cfi_offset 1, -8
  20              		.cfi_offset 8, -16
  21 000c 13040101 		addi	s0,sp,16
  22              		.cfi_def_cfa 8, 0
   4:src/syscall_c.cpp **** 
   5:src/syscall_c.cpp ****     size_t op_code = 0x1;
  23              		.loc 1 5 5
  24              	.LVL1:
   6:src/syscall_c.cpp **** 
   7:src/syscall_c.cpp ****     __asm__ volatile("mv a1, %[size]"::[size]"r"(MemoryAllocator::transferToNumBlock(size)));
  25              		.loc 1 7 5
  26              		.loc 1 7 85 is_stmt 0
  27 0010 97000000 		call	_ZN15MemoryAllocator18transferToNumBlockEm@plt
  27      E7800000 
  28              	.LVL2:
  29              		.loc 1 7 93
  30              	#APP
  31              	# 7 "src/syscall_c.cpp" 1
   8              	    __asm__ volatile("mv a0, %[op]"::[op]"r"(op_code));
  32              		mv a1, a0
  33              	# 0 "" 2
  34              		.loc 1 8 5 is_stmt 1
  35              		.loc 1 8 55 is_stmt 0
  36              	#NO_APP
  37 001c 93071000 		li	a5,1
  38              	#APP
  39              	# 8 "src/syscall_c.cpp" 1
   9              	    //prenos argumenta size
  10:src/syscall_c.cpp ****     //i skok u prekidnu rutinu
  11:src/syscall_c.cpp ****     __asm__ volatile("ecall");
  40              		mv a0, a5
  41              	# 0 "" 2
  42              		.loc 1 11 5 is_stmt 1
  43              		.loc 1 11 30 is_stmt 0
  44              	# 11 "src/syscall_c.cpp" 1
  12              	
  13:src/syscall_c.cpp ****     void* x;
GAS LISTING /tmp/ccmCh4nE.s 			page 2


  45              		ecall
  46              	# 0 "" 2
  47              		.loc 1 13 5 is_stmt 1
  14:src/syscall_c.cpp ****     //treba vratim pokazivac koji mi vrati syscall od mem_alloc-a
  15:src/syscall_c.cpp ****     __asm__ volatile("mv %[x], a0":[x]"=r"(x));
  48              		.loc 1 15 5
  49              		.loc 1 15 47 is_stmt 0
  50              	# 15 "src/syscall_c.cpp" 1
  16              	    return x;
  51              		mv a0, a0
  52              	# 0 "" 2
  53              	.LVL3:
  54              		.loc 1 16 5 is_stmt 1
  17:src/syscall_c.cpp **** }
  55              		.loc 1 17 1 is_stmt 0
  56              	#NO_APP
  57 002c 83308100 		ld	ra,8(sp)
  58              		.cfi_restore 1
  59 0030 03340100 		ld	s0,0(sp)
  60              		.cfi_restore 8
  61              		.cfi_def_cfa 2, 16
  62 0034 13010101 		addi	sp,sp,16
  63              		.cfi_def_cfa_offset 0
  64 0038 67800000 		jr	ra
  65              		.cfi_endproc
  66              	.LFE20:
  68              		.align	2
  69              		.globl	_Z8mem_freePv
  71              	_Z8mem_freePv:
  72              	.LFB21:
  18:src/syscall_c.cpp **** 
  19:src/syscall_c.cpp **** int mem_free(void* ptr){
  73              		.loc 1 19 24 is_stmt 1
  74              		.cfi_startproc
  75              	.LVL4:
  76 003c 130101FF 		addi	sp,sp,-16
  77              		.cfi_def_cfa_offset 16
  78 0040 23348100 		sd	s0,8(sp)
  79              		.cfi_offset 8, -8
  80 0044 13040101 		addi	s0,sp,16
  81              		.cfi_def_cfa 8, 0
  20:src/syscall_c.cpp **** 
  21:src/syscall_c.cpp ****     size_t op_code=0x2;
  82              		.loc 1 21 5
  83              	.LVL5:
  22:src/syscall_c.cpp ****     __asm__ volatile("mv a1, %[addr]"::[addr]"r"(ptr));
  84              		.loc 1 22 5
  85              		.loc 1 22 55 is_stmt 0
  86              	#APP
  87              	# 22 "src/syscall_c.cpp" 1
  23              	    __asm__ volatile("mv a0, %[op]"::[op]"r"(op_code));
  88              		mv a1, a0
  89              	# 0 "" 2
  90              		.loc 1 23 5 is_stmt 1
  91              		.loc 1 23 55 is_stmt 0
  92              	#NO_APP
  93 004c 93072000 		li	a5,2
GAS LISTING /tmp/ccmCh4nE.s 			page 3


  94              	#APP
  95              	# 23 "src/syscall_c.cpp" 1
  24              	    __asm__ volatile("ecall");
  96              		mv a0, a5
  97              	# 0 "" 2
  98              		.loc 1 24 5 is_stmt 1
  99              		.loc 1 24 30 is_stmt 0
 100              	# 24 "src/syscall_c.cpp" 1
  25              	    int x;
 101              		ecall
 102              	# 0 "" 2
 103              		.loc 1 25 5 is_stmt 1
  26:src/syscall_c.cpp ****     __asm__ volatile("mv %[x], a0":[x]"=r"(x));
 104              		.loc 1 26 5
 105              		.loc 1 26 47 is_stmt 0
 106              	# 26 "src/syscall_c.cpp" 1
  27              	    return x;
 107              		mv a0, a0
 108              	# 0 "" 2
 109              	.LVL6:
 110              		.loc 1 27 5 is_stmt 1
  28:src/syscall_c.cpp **** }
 111              		.loc 1 28 1 is_stmt 0
 112              	#NO_APP
 113 005c 1B050500 		sext.w	a0,a0
 114 0060 03348100 		ld	s0,8(sp)
 115              		.cfi_restore 8
 116              		.cfi_def_cfa 2, 16
 117 0064 13010101 		addi	sp,sp,16
 118              		.cfi_def_cfa_offset 0
 119 0068 67800000 		jr	ra
 120              		.cfi_endproc
 121              	.LFE21:
 123              		.align	2
 124              		.globl	_Z13thread_createPP3TCBPFvPvES2_S1_
 126              	_Z13thread_createPP3TCBPFvPvES2_S1_:
 127              	.LFB22:
  29:src/syscall_c.cpp **** int thread_create(thread_t *handle, void(*start_routine)(void*), void* arg, thread_t* parent){
 128              		.loc 1 29 94 is_stmt 1
 129              		.cfi_startproc
 130              	.LVL7:
 131 006c 130101FD 		addi	sp,sp,-48
 132              		.cfi_def_cfa_offset 48
 133 0070 23341102 		sd	ra,40(sp)
 134 0074 23308102 		sd	s0,32(sp)
 135 0078 233C9100 		sd	s1,24(sp)
 136 007c 23382101 		sd	s2,16(sp)
 137 0080 23343101 		sd	s3,8(sp)
 138              		.cfi_offset 1, -8
 139              		.cfi_offset 8, -16
 140              		.cfi_offset 9, -24
 141              		.cfi_offset 18, -32
 142              		.cfi_offset 19, -40
 143 0084 13040103 		addi	s0,sp,48
 144              		.cfi_def_cfa 8, 0
 145 0088 93040500 		mv	s1,a0
 146 008c 13890500 		mv	s2,a1
GAS LISTING /tmp/ccmCh4nE.s 			page 4


 147 0090 93090600 		mv	s3,a2
  30:src/syscall_c.cpp ****     thread_t* part = parent;
 148              		.loc 1 30 5
 149              	.LVL8:
  31:src/syscall_c.cpp ****     __asm__ volatile("mv a7, %[paren]"::[paren]"r"(part));
 150              		.loc 1 31 5
 151              		.loc 1 31 58 is_stmt 0
 152              	#APP
 153              	# 31 "src/syscall_c.cpp" 1
  32              	
  33:src/syscall_c.cpp ****     uint64* stack = (uint64*) mem_alloc(DEFAULT_STACK_SIZE);//da ne bi bio sistemski poziv u sistem
 154              		mv a7, a3
 155              	# 0 "" 2
 156              		.loc 1 33 5 is_stmt 1
 157              		.loc 1 33 40 is_stmt 0
 158              	#NO_APP
 159 0098 37150000 		li	a0,4096
 160              	.LVL9:
 161 009c 97000000 		call	_Z9mem_allocm
 161      E7800000 
 162              	.LVL10:
  34:src/syscall_c.cpp ****     if(stack ==nullptr) return -1;
 163              		.loc 1 34 5 is_stmt 1
 164 00a4 63020504 		beqz	a0,.L7
  35:src/syscall_c.cpp ****     //pripremljeni svi podaci, salji
  36:src/syscall_c.cpp ****     __asm__ volatile("mv a6, %[stack]"::[stack]"r"(stack));
 165              		.loc 1 36 5
 166              		.loc 1 36 59 is_stmt 0
 167              	#APP
 168              	# 36 "src/syscall_c.cpp" 1
  37              	    void* arg1 = arg;
 169              		mv a6, a0
 170              	# 0 "" 2
 171              		.loc 1 37 5 is_stmt 1
 172              	.LVL11:
  38:src/syscall_c.cpp ****     __asm__ volatile("mv a3, %[arg]"::[arg]"r"(arg1));
 173              		.loc 1 38 5
 174              		.loc 1 38 54 is_stmt 0
 175              	# 38 "src/syscall_c.cpp" 1
  39              	    TCB::Body b = start_routine;
 176              		mv a3, s3
 177              	# 0 "" 2
 178              		.loc 1 39 5 is_stmt 1
 179              	.LVL12:
  40:src/syscall_c.cpp ****     __asm__ volatile("mv a2, %[body]"::[body]"r"(b));
 180              		.loc 1 40 5
 181              		.loc 1 40 53 is_stmt 0
 182              	# 40 "src/syscall_c.cpp" 1
  41              	    thread_t* thandle = handle;
 183              		mv a2, s2
 184              	# 0 "" 2
 185              		.loc 1 41 5 is_stmt 1
 186              	.LVL13:
  42:src/syscall_c.cpp ****     __asm__ volatile("mv a1, %[handle]"::[handle]"r"(thandle));
 187              		.loc 1 42 5
 188              		.loc 1 42 63 is_stmt 0
 189              	# 42 "src/syscall_c.cpp" 1
GAS LISTING /tmp/ccmCh4nE.s 			page 5


  43              	    size_t op_code=0x15;
 190              		mv a1, s1
 191              	# 0 "" 2
 192              		.loc 1 43 5 is_stmt 1
 193              	.LVL14:
  44:src/syscall_c.cpp ****     __asm__ volatile("mv a0, %[op]"::[op]"r"(op_code));
 194              		.loc 1 44 5
 195              		.loc 1 44 55 is_stmt 0
 196              	#NO_APP
 197 00b8 93075001 		li	a5,21
 198              	#APP
 199              	# 44 "src/syscall_c.cpp" 1
  45              	
  46:src/syscall_c.cpp **** 
  47:src/syscall_c.cpp ****     __asm__ volatile("ecall");
 200              		mv a0, a5
 201              	# 0 "" 2
 202              		.loc 1 47 5 is_stmt 1
 203              		.loc 1 47 30 is_stmt 0
 204              	# 47 "src/syscall_c.cpp" 1
  48              	    int thr;
 205              		ecall
 206              	# 0 "" 2
 207              		.loc 1 48 5 is_stmt 1
  49:src/syscall_c.cpp ****     __asm__ volatile("mv %[x], a0":[x]"=r"(thr));
 208              		.loc 1 49 5
 209              		.loc 1 49 49 is_stmt 0
 210              	# 49 "src/syscall_c.cpp" 1
  50              	    return thr;
 211              		mv a0, a0
 212              	# 0 "" 2
 213              	.LVL15:
 214              	#NO_APP
 215 00c8 1B050500 		sext.w	a0,a0
 216              	.LVL16:
 217              		.loc 1 50 5 is_stmt 1
 218              	.L6:
  51:src/syscall_c.cpp **** }
 219              		.loc 1 51 1 is_stmt 0
 220 00cc 83308102 		ld	ra,40(sp)
 221              		.cfi_remember_state
 222              		.cfi_restore 1
 223 00d0 03340102 		ld	s0,32(sp)
 224              		.cfi_restore 8
 225              		.cfi_def_cfa 2, 48
 226 00d4 83348101 		ld	s1,24(sp)
 227              		.cfi_restore 9
 228              	.LVL17:
 229 00d8 03390101 		ld	s2,16(sp)
 230              		.cfi_restore 18
 231              	.LVL18:
 232 00dc 83398100 		ld	s3,8(sp)
 233              		.cfi_restore 19
 234              	.LVL19:
 235 00e0 13010103 		addi	sp,sp,48
 236              		.cfi_def_cfa_offset 0
 237 00e4 67800000 		jr	ra
GAS LISTING /tmp/ccmCh4nE.s 			page 6


 238              	.LVL20:
 239              	.L7:
 240              		.cfi_restore_state
  34:src/syscall_c.cpp ****     //pripremljeni svi podaci, salji
 241              		.loc 1 34 33
 242 00e8 1305F0FF 		li	a0,-1
 243              	.LVL21:
 244 00ec 6FF01FFE 		j	.L6
 245              		.cfi_endproc
 246              	.LFE22:
 248              		.align	2
 249              		.globl	_Z13thread_createPP3TCBPFvPvES2_
 251              	_Z13thread_createPP3TCBPFvPvES2_:
 252              	.LFB23:
  52:src/syscall_c.cpp **** 
  53:src/syscall_c.cpp **** int thread_create(thread_t *handle, void(*start_routine)(void*), void* arg){
 253              		.loc 1 53 76 is_stmt 1
 254              		.cfi_startproc
 255              	.LVL22:
 256 00f0 130101FD 		addi	sp,sp,-48
 257              		.cfi_def_cfa_offset 48
 258 00f4 23341102 		sd	ra,40(sp)
 259 00f8 23308102 		sd	s0,32(sp)
 260 00fc 233C9100 		sd	s1,24(sp)
 261 0100 23382101 		sd	s2,16(sp)
 262 0104 23343101 		sd	s3,8(sp)
 263              		.cfi_offset 1, -8
 264              		.cfi_offset 8, -16
 265              		.cfi_offset 9, -24
 266              		.cfi_offset 18, -32
 267              		.cfi_offset 19, -40
 268 0108 13040103 		addi	s0,sp,48
 269              		.cfi_def_cfa 8, 0
 270 010c 93040500 		mv	s1,a0
 271 0110 13890500 		mv	s2,a1
 272 0114 93090600 		mv	s3,a2
  54:src/syscall_c.cpp ****     uint64* stack = (uint64*) mem_alloc(DEFAULT_STACK_SIZE);//da ne bi bio sistemski poziv u sistem
 273              		.loc 1 54 5
 274              		.loc 1 54 40 is_stmt 0
 275 0118 37150000 		li	a0,4096
 276              	.LVL23:
 277 011c 97000000 		call	_Z9mem_allocm
 277      E7800000 
 278              	.LVL24:
  55:src/syscall_c.cpp ****     if(stack ==nullptr) return -1;
 279              		.loc 1 55 5 is_stmt 1
 280 0124 63020504 		beqz	a0,.L11
  56:src/syscall_c.cpp ****     //pripremljeni svi podaci, salji
  57:src/syscall_c.cpp ****     __asm__ volatile("mv a6, %[stack]"::[stack]"r"(stack));
 281              		.loc 1 57 5
 282              		.loc 1 57 59 is_stmt 0
 283              	#APP
 284              	# 57 "src/syscall_c.cpp" 1
  58              	    void* arg1 = arg;
 285              		mv a6, a0
 286              	# 0 "" 2
 287              		.loc 1 58 5 is_stmt 1
GAS LISTING /tmp/ccmCh4nE.s 			page 7


 288              	.LVL25:
  59:src/syscall_c.cpp ****     __asm__ volatile("mv a3, %[arg]"::[arg]"r"(arg1));
 289              		.loc 1 59 5
 290              		.loc 1 59 54 is_stmt 0
 291              	# 59 "src/syscall_c.cpp" 1
  60              	    TCB::Body b = start_routine;
 292              		mv a3, s3
 293              	# 0 "" 2
 294              		.loc 1 60 5 is_stmt 1
 295              	.LVL26:
  61:src/syscall_c.cpp ****     __asm__ volatile("mv a2, %[body]"::[body]"r"(b));
 296              		.loc 1 61 5
 297              		.loc 1 61 53 is_stmt 0
 298              	# 61 "src/syscall_c.cpp" 1
  62              	    thread_t* thandle = handle;
 299              		mv a2, s2
 300              	# 0 "" 2
 301              		.loc 1 62 5 is_stmt 1
 302              	.LVL27:
  63:src/syscall_c.cpp ****     __asm__ volatile("mv a1, %[handle]"::[handle]"r"(thandle));
 303              		.loc 1 63 5
 304              		.loc 1 63 63 is_stmt 0
 305              	# 63 "src/syscall_c.cpp" 1
  64              	    size_t op_code=0x11;
 306              		mv a1, s1
 307              	# 0 "" 2
 308              		.loc 1 64 5 is_stmt 1
 309              	.LVL28:
  65:src/syscall_c.cpp ****     __asm__ volatile("mv a0, %[op]"::[op]"r"(op_code));
 310              		.loc 1 65 5
 311              		.loc 1 65 55 is_stmt 0
 312              	#NO_APP
 313 0138 93071001 		li	a5,17
 314              	#APP
 315              	# 65 "src/syscall_c.cpp" 1
  66              	
  67:src/syscall_c.cpp **** 
  68:src/syscall_c.cpp ****     __asm__ volatile("ecall");
 316              		mv a0, a5
 317              	# 0 "" 2
 318              		.loc 1 68 5 is_stmt 1
 319              		.loc 1 68 30 is_stmt 0
 320              	# 68 "src/syscall_c.cpp" 1
  69              	    int thr;
 321              		ecall
 322              	# 0 "" 2
 323              		.loc 1 69 5 is_stmt 1
  70:src/syscall_c.cpp ****     __asm__ volatile("mv %[x], a0":[x]"=r"(thr));
 324              		.loc 1 70 5
 325              		.loc 1 70 49 is_stmt 0
 326              	# 70 "src/syscall_c.cpp" 1
  71              	    return thr;
 327              		mv a0, a0
 328              	# 0 "" 2
 329              	.LVL29:
 330              	#NO_APP
 331 0148 1B050500 		sext.w	a0,a0
GAS LISTING /tmp/ccmCh4nE.s 			page 8


 332              	.LVL30:
 333              		.loc 1 71 5 is_stmt 1
 334              	.L10:
  72:src/syscall_c.cpp **** }
 335              		.loc 1 72 1 is_stmt 0
 336 014c 83308102 		ld	ra,40(sp)
 337              		.cfi_remember_state
 338              		.cfi_restore 1
 339 0150 03340102 		ld	s0,32(sp)
 340              		.cfi_restore 8
 341              		.cfi_def_cfa 2, 48
 342 0154 83348101 		ld	s1,24(sp)
 343              		.cfi_restore 9
 344              	.LVL31:
 345 0158 03390101 		ld	s2,16(sp)
 346              		.cfi_restore 18
 347              	.LVL32:
 348 015c 83398100 		ld	s3,8(sp)
 349              		.cfi_restore 19
 350              	.LVL33:
 351 0160 13010103 		addi	sp,sp,48
 352              		.cfi_def_cfa_offset 0
 353 0164 67800000 		jr	ra
 354              	.LVL34:
 355              	.L11:
 356              		.cfi_restore_state
  55:src/syscall_c.cpp ****     //pripremljeni svi podaci, salji
 357              		.loc 1 55 33
 358 0168 1305F0FF 		li	a0,-1
 359              	.LVL35:
 360 016c 6FF01FFE 		j	.L10
 361              		.cfi_endproc
 362              	.LFE23:
 364              		.align	2
 365              		.globl	_Z15thread_dispatchv
 367              	_Z15thread_dispatchv:
 368              	.LFB24:
  73:src/syscall_c.cpp **** 
  74:src/syscall_c.cpp **** 
  75:src/syscall_c.cpp **** void thread_dispatch (){
 369              		.loc 1 75 24 is_stmt 1
 370              		.cfi_startproc
 371 0170 130101FF 		addi	sp,sp,-16
 372              		.cfi_def_cfa_offset 16
 373 0174 23348100 		sd	s0,8(sp)
 374              		.cfi_offset 8, -8
 375 0178 13040101 		addi	s0,sp,16
 376              		.cfi_def_cfa 8, 0
  76:src/syscall_c.cpp ****     size_t op_code = 0x13;
 377              		.loc 1 76 5
 378              	.LVL36:
  77:src/syscall_c.cpp ****     __asm__ volatile("mv a0, %[op]"::[op]"r"(op_code));
 379              		.loc 1 77 5
 380              		.loc 1 77 55 is_stmt 0
 381 017c 93073001 		li	a5,19
 382              	#APP
 383              	# 77 "src/syscall_c.cpp" 1
GAS LISTING /tmp/ccmCh4nE.s 			page 9


  78              	    __asm__ volatile("ecall");
 384              		mv a0, a5
 385              	# 0 "" 2
 386              		.loc 1 78 5 is_stmt 1
 387              		.loc 1 78 30 is_stmt 0
 388              	# 78 "src/syscall_c.cpp" 1
  79              	}
 389              		ecall
 390              	# 0 "" 2
 391              		.loc 1 79 1
 392              	#NO_APP
 393 0188 03348100 		ld	s0,8(sp)
 394              		.cfi_restore 8
 395              		.cfi_def_cfa 2, 16
 396 018c 13010101 		addi	sp,sp,16
 397              		.cfi_def_cfa_offset 0
 398 0190 67800000 		jr	ra
 399              		.cfi_endproc
 400              	.LFE24:
 402              		.align	2
 403              		.globl	_Z11thread_exitv
 405              	_Z11thread_exitv:
 406              	.LFB25:
  80:src/syscall_c.cpp **** 
  81:src/syscall_c.cpp **** int thread_exit (){
 407              		.loc 1 81 19 is_stmt 1
 408              		.cfi_startproc
 409 0194 130101FF 		addi	sp,sp,-16
 410              		.cfi_def_cfa_offset 16
 411 0198 23348100 		sd	s0,8(sp)
 412              		.cfi_offset 8, -8
 413 019c 13040101 		addi	s0,sp,16
 414              		.cfi_def_cfa 8, 0
  82:src/syscall_c.cpp ****     size_t op_code = 0x12;
 415              		.loc 1 82 5
 416              	.LVL37:
  83:src/syscall_c.cpp ****     __asm__ volatile("mv a0, %[op]"::[op]"r"(op_code));
 417              		.loc 1 83 5
 418              		.loc 1 83 55 is_stmt 0
 419 01a0 93072001 		li	a5,18
 420              	#APP
 421              	# 83 "src/syscall_c.cpp" 1
  84              	    __asm__ volatile("ecall");
 422              		mv a0, a5
 423              	# 0 "" 2
 424              		.loc 1 84 5 is_stmt 1
 425              		.loc 1 84 30 is_stmt 0
 426              	# 84 "src/syscall_c.cpp" 1
  85              	    int x;
 427              		ecall
 428              	# 0 "" 2
 429              		.loc 1 85 5 is_stmt 1
  86:src/syscall_c.cpp ****     __asm__ volatile("mv %[x], a0":[x]"=r"(x));
 430              		.loc 1 86 5
 431              		.loc 1 86 47 is_stmt 0
 432              	# 86 "src/syscall_c.cpp" 1
  87              	    return x;
GAS LISTING /tmp/ccmCh4nE.s 			page 10


 433              		mv a0, a0
 434              	# 0 "" 2
 435              	.LVL38:
 436              		.loc 1 87 5 is_stmt 1
  88:src/syscall_c.cpp **** }
 437              		.loc 1 88 1 is_stmt 0
 438              	#NO_APP
 439 01b0 1B050500 		sext.w	a0,a0
 440 01b4 03348100 		ld	s0,8(sp)
 441              		.cfi_restore 8
 442              		.cfi_def_cfa 2, 16
 443 01b8 13010101 		addi	sp,sp,16
 444              		.cfi_def_cfa_offset 0
 445 01bc 67800000 		jr	ra
 446              		.cfi_endproc
 447              	.LFE25:
 449              		.align	2
 450              		.globl	_Z13SetMaxThreadsi
 452              	_Z13SetMaxThreadsi:
 453              	.LFB26:
  89:src/syscall_c.cpp **** 
  90:src/syscall_c.cpp **** void SetMaxThreads(int i){
 454              		.loc 1 90 26 is_stmt 1
 455              		.cfi_startproc
 456              	.LVL39:
 457 01c0 130101FF 		addi	sp,sp,-16
 458              		.cfi_def_cfa_offset 16
 459 01c4 23348100 		sd	s0,8(sp)
 460              		.cfi_offset 8, -8
 461 01c8 13040101 		addi	s0,sp,16
 462              		.cfi_def_cfa 8, 0
  91:src/syscall_c.cpp ****     size_t op_code = 0x18;
 463              		.loc 1 91 5
 464              	.LVL40:
  92:src/syscall_c.cpp ****     __asm__ volatile("mv a1, %[num]"::[num]"r"(i));
 465              		.loc 1 92 5
 466              		.loc 1 92 51 is_stmt 0
 467              	#APP
 468              	# 92 "src/syscall_c.cpp" 1
  93              	    __asm__ volatile("mv a0, %[op]"::[op]"r"(op_code));
 469              		mv a1, a0
 470              	# 0 "" 2
 471              		.loc 1 93 5 is_stmt 1
 472              		.loc 1 93 55 is_stmt 0
 473              	#NO_APP
 474 01d0 93078001 		li	a5,24
 475              	#APP
 476              	# 93 "src/syscall_c.cpp" 1
  94              	    __asm__ volatile("ecall");
 477              		mv a0, a5
 478              	# 0 "" 2
 479              		.loc 1 94 5 is_stmt 1
 480              		.loc 1 94 30 is_stmt 0
 481              	# 94 "src/syscall_c.cpp" 1
  95              	}
 482              		ecall
 483              	# 0 "" 2
GAS LISTING /tmp/ccmCh4nE.s 			page 11


 484              		.loc 1 95 1
 485              	#NO_APP
 486 01dc 03348100 		ld	s0,8(sp)
 487              		.cfi_restore 8
 488              		.cfi_def_cfa 2, 16
 489 01e0 13010101 		addi	sp,sp,16
 490              		.cfi_def_cfa_offset 0
 491 01e4 67800000 		jr	ra
 492              		.cfi_endproc
 493              	.LFE26:
 495              		.align	2
 496              		.globl	_Z7joinAllv
 498              	_Z7joinAllv:
 499              	.LFB27:
  96:src/syscall_c.cpp **** 
  97:src/syscall_c.cpp **** void joinAll(){
 500              		.loc 1 97 15 is_stmt 1
 501              		.cfi_startproc
 502 01e8 130101FF 		addi	sp,sp,-16
 503              		.cfi_def_cfa_offset 16
 504 01ec 23348100 		sd	s0,8(sp)
 505              		.cfi_offset 8, -8
 506 01f0 13040101 		addi	s0,sp,16
 507              		.cfi_def_cfa 8, 0
  98:src/syscall_c.cpp ****     size_t op_code = 0x16;
 508              		.loc 1 98 5
 509              	.LVL41:
  99:src/syscall_c.cpp ****     __asm__ volatile("mv a0, %[op]"::[op]"r"(op_code));
 510              		.loc 1 99 5
 511              		.loc 1 99 55 is_stmt 0
 512 01f4 93076001 		li	a5,22
 513              	#APP
 514              	# 99 "src/syscall_c.cpp" 1
 100              	    __asm__ volatile("ecall");
 515              		mv a0, a5
 516              	# 0 "" 2
 517              		.loc 1 100 5 is_stmt 1
 518              		.loc 1 100 30 is_stmt 0
 519              	# 100 "src/syscall_c.cpp" 1
 101              	}
 520              		ecall
 521              	# 0 "" 2
 522              		.loc 1 101 1
 523              	#NO_APP
 524 0200 03348100 		ld	s0,8(sp)
 525              		.cfi_restore 8
 526              		.cfi_def_cfa 2, 16
 527 0204 13010101 		addi	sp,sp,16
 528              		.cfi_def_cfa_offset 0
 529 0208 67800000 		jr	ra
 530              		.cfi_endproc
 531              	.LFE27:
 533              		.align	2
 534              		.globl	_Z8sem_openPP3Semj
 536              	_Z8sem_openPP3Semj:
 537              	.LFB28:
 102:src/syscall_c.cpp **** 
GAS LISTING /tmp/ccmCh4nE.s 			page 12


 103:src/syscall_c.cpp **** 
 104:src/syscall_c.cpp **** 
 105:src/syscall_c.cpp **** //void thread_join(thread_t handle){
 106:src/syscall_c.cpp **** //    size_t op_code=0x14;
 107:src/syscall_c.cpp **** //    __asm__ volatile("mv a1, %[handle]"::[handle]"r"(handle));
 108:src/syscall_c.cpp **** //    __asm__ volatile("mv a0, %[op]"::[op]"r"(op_code));
 109:src/syscall_c.cpp **** //    __asm__ volatile("ecall");
 110:src/syscall_c.cpp **** //
 111:src/syscall_c.cpp **** //}
 112:src/syscall_c.cpp **** 
 113:src/syscall_c.cpp **** int sem_open (sem_t* handle, unsigned init){
 538              		.loc 1 113 44 is_stmt 1
 539              		.cfi_startproc
 540              	.LVL42:
 541 020c 130101FF 		addi	sp,sp,-16
 542              		.cfi_def_cfa_offset 16
 543 0210 23348100 		sd	s0,8(sp)
 544              		.cfi_offset 8, -8
 545 0214 13040101 		addi	s0,sp,16
 546              		.cfi_def_cfa 8, 0
 114:src/syscall_c.cpp ****     size_t op_code = 0x21;
 547              		.loc 1 114 5
 548              	.LVL43:
 115:src/syscall_c.cpp ****     __asm__ volatile("mv a2, %[init]"::[init]"r"(init));
 549              		.loc 1 115 5
 550              		.loc 1 115 56 is_stmt 0
 551              	#APP
 552              	# 115 "src/syscall_c.cpp" 1
 116              	    __asm__ volatile("mv a1, %[handle]"::[handle]"r"(handle));
 553              		mv a2, a1
 554              	# 0 "" 2
 555              		.loc 1 116 5 is_stmt 1
 556              		.loc 1 116 62 is_stmt 0
 557              	# 116 "src/syscall_c.cpp" 1
 117              	    __asm__ volatile("mv a0, %[op]"::[op]"r"(op_code));
 558              		mv a1, a0
 559              	# 0 "" 2
 560              		.loc 1 117 5 is_stmt 1
 561              		.loc 1 117 55 is_stmt 0
 562              	#NO_APP
 563 0220 93071002 		li	a5,33
 564              	#APP
 565              	# 117 "src/syscall_c.cpp" 1
 118              	    __asm__ volatile("ecall");
 566              		mv a0, a5
 567              	# 0 "" 2
 568              		.loc 1 118 5 is_stmt 1
 569              		.loc 1 118 30 is_stmt 0
 570              	# 118 "src/syscall_c.cpp" 1
 119              	    int x;
 571              		ecall
 572              	# 0 "" 2
 573              		.loc 1 119 5 is_stmt 1
 120:src/syscall_c.cpp ****     __asm__ volatile("mv %[x], a0":[x]"=r"(x));
 574              		.loc 1 120 5
 575              		.loc 1 120 47 is_stmt 0
 576              	# 120 "src/syscall_c.cpp" 1
GAS LISTING /tmp/ccmCh4nE.s 			page 13


 121              	    return x;
 577              		mv a0, a0
 578              	# 0 "" 2
 579              	.LVL44:
 580              		.loc 1 121 5 is_stmt 1
 122:src/syscall_c.cpp **** }
 581              		.loc 1 122 1 is_stmt 0
 582              	#NO_APP
 583 0230 1B050500 		sext.w	a0,a0
 584 0234 03348100 		ld	s0,8(sp)
 585              		.cfi_restore 8
 586              		.cfi_def_cfa 2, 16
 587 0238 13010101 		addi	sp,sp,16
 588              		.cfi_def_cfa_offset 0
 589 023c 67800000 		jr	ra
 590              		.cfi_endproc
 591              	.LFE28:
 593              		.align	2
 594              		.globl	_Z9sem_closeP3Sem
 596              	_Z9sem_closeP3Sem:
 597              	.LFB29:
 123:src/syscall_c.cpp **** 
 124:src/syscall_c.cpp **** int sem_close (sem_t handle){
 598              		.loc 1 124 29 is_stmt 1
 599              		.cfi_startproc
 600              	.LVL45:
 601 0240 130101FF 		addi	sp,sp,-16
 602              		.cfi_def_cfa_offset 16
 603 0244 23348100 		sd	s0,8(sp)
 604              		.cfi_offset 8, -8
 605 0248 13040101 		addi	s0,sp,16
 606              		.cfi_def_cfa 8, 0
 125:src/syscall_c.cpp ****     size_t op_code = 0x22;
 607              		.loc 1 125 5
 608              	.LVL46:
 126:src/syscall_c.cpp ****     __asm__ volatile("mv a1, %[handle]"::[handle]"r"(handle));
 609              		.loc 1 126 5
 610              		.loc 1 126 62 is_stmt 0
 611              	#APP
 612              	# 126 "src/syscall_c.cpp" 1
 127              	    __asm__ volatile("mv a0, %[op]"::[op]"r"(op_code));
 613              		mv a1, a0
 614              	# 0 "" 2
 615              		.loc 1 127 5 is_stmt 1
 616              		.loc 1 127 55 is_stmt 0
 617              	#NO_APP
 618 0250 93072002 		li	a5,34
 619              	#APP
 620              	# 127 "src/syscall_c.cpp" 1
 128              	    __asm__ volatile("ecall");
 621              		mv a0, a5
 622              	# 0 "" 2
 623              		.loc 1 128 5 is_stmt 1
 624              		.loc 1 128 30 is_stmt 0
 625              	# 128 "src/syscall_c.cpp" 1
 129              	    int x;
 626              		ecall
GAS LISTING /tmp/ccmCh4nE.s 			page 14


 627              	# 0 "" 2
 628              		.loc 1 129 5 is_stmt 1
 130:src/syscall_c.cpp ****     __asm__ volatile("mv %[x], a0":[x]"=r"(x));
 629              		.loc 1 130 5
 630              		.loc 1 130 47 is_stmt 0
 631              	# 130 "src/syscall_c.cpp" 1
 131              	    return x;
 632              		mv a0, a0
 633              	# 0 "" 2
 634              	.LVL47:
 635              		.loc 1 131 5 is_stmt 1
 132:src/syscall_c.cpp **** }
 636              		.loc 1 132 1 is_stmt 0
 637              	#NO_APP
 638 0260 1B050500 		sext.w	a0,a0
 639 0264 03348100 		ld	s0,8(sp)
 640              		.cfi_restore 8
 641              		.cfi_def_cfa 2, 16
 642 0268 13010101 		addi	sp,sp,16
 643              		.cfi_def_cfa_offset 0
 644 026c 67800000 		jr	ra
 645              		.cfi_endproc
 646              	.LFE29:
 648              		.align	2
 649              		.globl	_Z8sem_waitP3Sem
 651              	_Z8sem_waitP3Sem:
 652              	.LFB30:
 133:src/syscall_c.cpp **** int sem_wait (sem_t id){
 653              		.loc 1 133 24 is_stmt 1
 654              		.cfi_startproc
 655              	.LVL48:
 656 0270 130101FF 		addi	sp,sp,-16
 657              		.cfi_def_cfa_offset 16
 658 0274 23348100 		sd	s0,8(sp)
 659              		.cfi_offset 8, -8
 660 0278 13040101 		addi	s0,sp,16
 661              		.cfi_def_cfa 8, 0
 134:src/syscall_c.cpp ****     size_t op_code = 0x23;
 662              		.loc 1 134 5
 663              	.LVL49:
 135:src/syscall_c.cpp ****     __asm__ volatile("mv a1, %[id]"::[id]"r"(id));
 664              		.loc 1 135 5
 665              		.loc 1 135 50 is_stmt 0
 666              	#APP
 667              	# 135 "src/syscall_c.cpp" 1
 136              	    __asm__ volatile("mv a0, %[op]"::[op]"r"(op_code));
 668              		mv a1, a0
 669              	# 0 "" 2
 670              		.loc 1 136 5 is_stmt 1
 671              		.loc 1 136 55 is_stmt 0
 672              	#NO_APP
 673 0280 93073002 		li	a5,35
 674              	#APP
 675              	# 136 "src/syscall_c.cpp" 1
 137              	    __asm__ volatile("ecall");
 676              		mv a0, a5
 677              	# 0 "" 2
GAS LISTING /tmp/ccmCh4nE.s 			page 15


 678              		.loc 1 137 5 is_stmt 1
 679              		.loc 1 137 30 is_stmt 0
 680              	# 137 "src/syscall_c.cpp" 1
 138              	    int x;
 681              		ecall
 682              	# 0 "" 2
 683              		.loc 1 138 5 is_stmt 1
 139:src/syscall_c.cpp ****     __asm__ volatile("mv %[x], a0":[x]"=r"(x));
 684              		.loc 1 139 5
 685              		.loc 1 139 47 is_stmt 0
 686              	# 139 "src/syscall_c.cpp" 1
 140              	    return x;
 687              		mv a0, a0
 688              	# 0 "" 2
 689              	.LVL50:
 690              		.loc 1 140 5 is_stmt 1
 141:src/syscall_c.cpp **** }
 691              		.loc 1 141 1 is_stmt 0
 692              	#NO_APP
 693 0290 1B050500 		sext.w	a0,a0
 694 0294 03348100 		ld	s0,8(sp)
 695              		.cfi_restore 8
 696              		.cfi_def_cfa 2, 16
 697 0298 13010101 		addi	sp,sp,16
 698              		.cfi_def_cfa_offset 0
 699 029c 67800000 		jr	ra
 700              		.cfi_endproc
 701              	.LFE30:
 703              		.align	2
 704              		.globl	_Z10sem_signalP3Sem
 706              	_Z10sem_signalP3Sem:
 707              	.LFB31:
 142:src/syscall_c.cpp **** int sem_signal(sem_t id){
 708              		.loc 1 142 25 is_stmt 1
 709              		.cfi_startproc
 710              	.LVL51:
 711 02a0 130101FF 		addi	sp,sp,-16
 712              		.cfi_def_cfa_offset 16
 713 02a4 23348100 		sd	s0,8(sp)
 714              		.cfi_offset 8, -8
 715 02a8 13040101 		addi	s0,sp,16
 716              		.cfi_def_cfa 8, 0
 143:src/syscall_c.cpp ****     size_t op_code = 0x24;
 717              		.loc 1 143 5
 718              	.LVL52:
 144:src/syscall_c.cpp ****     __asm__ volatile("mv a1, %[id]"::[id]"r"(id));
 719              		.loc 1 144 5
 720              		.loc 1 144 50 is_stmt 0
 721              	#APP
 722              	# 144 "src/syscall_c.cpp" 1
 145              	    __asm__ volatile("mv a0, %[op]"::[op]"r"(op_code));
 723              		mv a1, a0
 724              	# 0 "" 2
 725              		.loc 1 145 5 is_stmt 1
 726              		.loc 1 145 55 is_stmt 0
 727              	#NO_APP
 728 02b0 93074002 		li	a5,36
GAS LISTING /tmp/ccmCh4nE.s 			page 16


 729              	#APP
 730              	# 145 "src/syscall_c.cpp" 1
 146              	    __asm__ volatile("ecall");
 731              		mv a0, a5
 732              	# 0 "" 2
 733              		.loc 1 146 5 is_stmt 1
 734              		.loc 1 146 30 is_stmt 0
 735              	# 146 "src/syscall_c.cpp" 1
 147              	    int x;
 736              		ecall
 737              	# 0 "" 2
 738              		.loc 1 147 5 is_stmt 1
 148:src/syscall_c.cpp ****     __asm__ volatile("mv %[x], a0":[x]"=r"(x));
 739              		.loc 1 148 5
 740              		.loc 1 148 47 is_stmt 0
 741              	# 148 "src/syscall_c.cpp" 1
 149              	    return x;
 742              		mv a0, a0
 743              	# 0 "" 2
 744              	.LVL53:
 745              		.loc 1 149 5 is_stmt 1
 150:src/syscall_c.cpp **** }
 746              		.loc 1 150 1 is_stmt 0
 747              	#NO_APP
 748 02c0 1B050500 		sext.w	a0,a0
 749 02c4 03348100 		ld	s0,8(sp)
 750              		.cfi_restore 8
 751              		.cfi_def_cfa 2, 16
 752 02c8 13010101 		addi	sp,sp,16
 753              		.cfi_def_cfa_offset 0
 754 02cc 67800000 		jr	ra
 755              		.cfi_endproc
 756              	.LFE31:
 758              		.align	2
 759              		.globl	_Z11sem_trywaitP3Sem
 761              	_Z11sem_trywaitP3Sem:
 762              	.LFB32:
 151:src/syscall_c.cpp **** 
 152:src/syscall_c.cpp **** int sem_trywait(sem_t id){
 763              		.loc 1 152 26 is_stmt 1
 764              		.cfi_startproc
 765              	.LVL54:
 766 02d0 130101FF 		addi	sp,sp,-16
 767              		.cfi_def_cfa_offset 16
 768 02d4 23348100 		sd	s0,8(sp)
 769              		.cfi_offset 8, -8
 770 02d8 13040101 		addi	s0,sp,16
 771              		.cfi_def_cfa 8, 0
 153:src/syscall_c.cpp ****     size_t op_code = 0x25;
 772              		.loc 1 153 5
 773              	.LVL55:
 154:src/syscall_c.cpp ****     __asm__ volatile("mv a1, %[id]"::[id]"r"(id));
 774              		.loc 1 154 5
 775              		.loc 1 154 50 is_stmt 0
 776              	#APP
 777              	# 154 "src/syscall_c.cpp" 1
 155              	    __asm__ volatile("mv a0, %[op]"::[op]"r"(op_code));
GAS LISTING /tmp/ccmCh4nE.s 			page 17


 778              		mv a1, a0
 779              	# 0 "" 2
 780              		.loc 1 155 5 is_stmt 1
 781              		.loc 1 155 55 is_stmt 0
 782              	#NO_APP
 783 02e0 93075002 		li	a5,37
 784              	#APP
 785              	# 155 "src/syscall_c.cpp" 1
 156              	    __asm__ volatile("ecall");
 786              		mv a0, a5
 787              	# 0 "" 2
 788              		.loc 1 156 5 is_stmt 1
 789              		.loc 1 156 30 is_stmt 0
 790              	# 156 "src/syscall_c.cpp" 1
 157              	    int x;
 791              		ecall
 792              	# 0 "" 2
 793              		.loc 1 157 5 is_stmt 1
 158:src/syscall_c.cpp ****     __asm__ volatile("mv %[x], a0":[x]"=r"(x));
 794              		.loc 1 158 5
 795              		.loc 1 158 47 is_stmt 0
 796              	# 158 "src/syscall_c.cpp" 1
 159              	    return x;
 797              		mv a0, a0
 798              	# 0 "" 2
 799              	.LVL56:
 800              		.loc 1 159 5 is_stmt 1
 160:src/syscall_c.cpp **** }
 801              		.loc 1 160 1 is_stmt 0
 802              	#NO_APP
 803 02f0 1B050500 		sext.w	a0,a0
 804 02f4 03348100 		ld	s0,8(sp)
 805              		.cfi_restore 8
 806              		.cfi_def_cfa 2, 16
 807 02f8 13010101 		addi	sp,sp,16
 808              		.cfi_def_cfa_offset 0
 809 02fc 67800000 		jr	ra
 810              		.cfi_endproc
 811              	.LFE32:
 813              		.align	2
 814              		.globl	_Z14sem_wait_priorP3Semj
 816              	_Z14sem_wait_priorP3Semj:
 817              	.LFB33:
 161:src/syscall_c.cpp **** 
 162:src/syscall_c.cpp **** int sem_wait_prior (sem_t handle, unsigned id){
 818              		.loc 1 162 47 is_stmt 1
 819              		.cfi_startproc
 820              	.LVL57:
 821 0300 130101FF 		addi	sp,sp,-16
 822              		.cfi_def_cfa_offset 16
 823 0304 23348100 		sd	s0,8(sp)
 824              		.cfi_offset 8, -8
 825 0308 13040101 		addi	s0,sp,16
 826              		.cfi_def_cfa 8, 0
 163:src/syscall_c.cpp ****     size_t op_code = 0x26;
 827              		.loc 1 163 5
 828              	.LVL58:
GAS LISTING /tmp/ccmCh4nE.s 			page 18


 164:src/syscall_c.cpp ****     __asm__ volatile("mv a2, %[init]"::[init]"r"(id));
 829              		.loc 1 164 5
 830              		.loc 1 164 54 is_stmt 0
 831              	#APP
 832              	# 164 "src/syscall_c.cpp" 1
 165              	    __asm__ volatile("mv a1, %[handle]"::[handle]"r"(handle));
 833              		mv a2, a1
 834              	# 0 "" 2
 835              		.loc 1 165 5 is_stmt 1
 836              		.loc 1 165 62 is_stmt 0
 837              	# 165 "src/syscall_c.cpp" 1
 166              	    __asm__ volatile("mv a0, %[op]"::[op]"r"(op_code));
 838              		mv a1, a0
 839              	# 0 "" 2
 840              		.loc 1 166 5 is_stmt 1
 841              		.loc 1 166 55 is_stmt 0
 842              	#NO_APP
 843 0314 93076002 		li	a5,38
 844              	#APP
 845              	# 166 "src/syscall_c.cpp" 1
 167              	    __asm__ volatile("ecall");
 846              		mv a0, a5
 847              	# 0 "" 2
 848              		.loc 1 167 5 is_stmt 1
 849              		.loc 1 167 30 is_stmt 0
 850              	# 167 "src/syscall_c.cpp" 1
 168              	    int x;
 851              		ecall
 852              	# 0 "" 2
 853              		.loc 1 168 5 is_stmt 1
 169:src/syscall_c.cpp ****     __asm__ volatile("mv %[x], a0":[x]"=r"(x));
 854              		.loc 1 169 5
 855              		.loc 1 169 47 is_stmt 0
 856              	# 169 "src/syscall_c.cpp" 1
 170              	    return x;
 857              		mv a0, a0
 858              	# 0 "" 2
 859              	.LVL59:
 860              		.loc 1 170 5 is_stmt 1
 171:src/syscall_c.cpp **** }
 861              		.loc 1 171 1 is_stmt 0
 862              	#NO_APP
 863 0324 1B050500 		sext.w	a0,a0
 864 0328 03348100 		ld	s0,8(sp)
 865              		.cfi_restore 8
 866              		.cfi_def_cfa 2, 16
 867 032c 13010101 		addi	sp,sp,16
 868              		.cfi_def_cfa_offset 0
 869 0330 67800000 		jr	ra
 870              		.cfi_endproc
 871              	.LFE33:
 873              		.align	2
 874              		.globl	_Z4getcv
 876              	_Z4getcv:
 877              	.LFB34:
 172:src/syscall_c.cpp **** 
 173:src/syscall_c.cpp **** char getc (){
GAS LISTING /tmp/ccmCh4nE.s 			page 19


 878              		.loc 1 173 13 is_stmt 1
 879              		.cfi_startproc
 880 0334 130101FF 		addi	sp,sp,-16
 881              		.cfi_def_cfa_offset 16
 882 0338 23348100 		sd	s0,8(sp)
 883              		.cfi_offset 8, -8
 884 033c 13040101 		addi	s0,sp,16
 885              		.cfi_def_cfa 8, 0
 174:src/syscall_c.cpp ****     size_t op_code = 0x41;
 886              		.loc 1 174 5
 887              	.LVL60:
 175:src/syscall_c.cpp ****     __asm__ volatile("mv a0, %[op]"::[op]"r"(op_code));
 888              		.loc 1 175 5
 889              		.loc 1 175 55 is_stmt 0
 890 0340 93071004 		li	a5,65
 891              	#APP
 892              	# 175 "src/syscall_c.cpp" 1
 176              	    __asm__ volatile("ecall");
 893              		mv a0, a5
 894              	# 0 "" 2
 895              		.loc 1 176 5 is_stmt 1
 896              		.loc 1 176 30 is_stmt 0
 897              	# 176 "src/syscall_c.cpp" 1
 177              	    char x;
 898              		ecall
 899              	# 0 "" 2
 900              		.loc 1 177 5 is_stmt 1
 178:src/syscall_c.cpp ****     __asm__ volatile("mv %[x], a0":[x]"=r"(x));
 901              		.loc 1 178 5
 902              		.loc 1 178 47 is_stmt 0
 903              	# 178 "src/syscall_c.cpp" 1
 179              	    return x;
 904              		mv a0, a0
 905              	# 0 "" 2
 906              	.LVL61:
 907              		.loc 1 179 5 is_stmt 1
 180:src/syscall_c.cpp **** }
 908              		.loc 1 180 1 is_stmt 0
 909              	#NO_APP
 910 0350 1375F50F 		andi	a0,a0,0xff
 911 0354 03348100 		ld	s0,8(sp)
 912              		.cfi_restore 8
 913              		.cfi_def_cfa 2, 16
 914 0358 13010101 		addi	sp,sp,16
 915              		.cfi_def_cfa_offset 0
 916 035c 67800000 		jr	ra
 917              		.cfi_endproc
 918              	.LFE34:
 920              		.align	2
 921              		.globl	_Z4putcc
 923              	_Z4putcc:
 924              	.LFB35:
 181:src/syscall_c.cpp **** 
 182:src/syscall_c.cpp **** void putc (char character){
 925              		.loc 1 182 27 is_stmt 1
 926              		.cfi_startproc
 927              	.LVL62:
GAS LISTING /tmp/ccmCh4nE.s 			page 20


 928 0360 130101FF 		addi	sp,sp,-16
 929              		.cfi_def_cfa_offset 16
 930 0364 23348100 		sd	s0,8(sp)
 931              		.cfi_offset 8, -8
 932 0368 13040101 		addi	s0,sp,16
 933              		.cfi_def_cfa 8, 0
 183:src/syscall_c.cpp ****     size_t op_code = 0x42;
 934              		.loc 1 183 5
 935              	.LVL63:
 184:src/syscall_c.cpp ****     __asm__ volatile("mv a1, %[ch]"::[ch]"r"(character));
 936              		.loc 1 184 5
 937              		.loc 1 184 57 is_stmt 0
 938              	#APP
 939              	# 184 "src/syscall_c.cpp" 1
 185              	    __asm__ volatile("mv a0, %[op]"::[op]"r"(op_code));
 940              		mv a1, a0
 941              	# 0 "" 2
 942              		.loc 1 185 5 is_stmt 1
 943              		.loc 1 185 55 is_stmt 0
 944              	#NO_APP
 945 0370 93072004 		li	a5,66
 946              	#APP
 947              	# 185 "src/syscall_c.cpp" 1
 186              	    __asm__ volatile("ecall");
 948              		mv a0, a5
 949              	# 0 "" 2
 950              		.loc 1 186 5 is_stmt 1
 951              		.loc 1 186 30 is_stmt 0
 952              	# 186 "src/syscall_c.cpp" 1
 187              	    //__putc(c);
 188:src/syscall_c.cpp **** }
 953              		ecall
 954              	# 0 "" 2
 955              		.loc 1 188 1
 956              	#NO_APP
 957 037c 03348100 		ld	s0,8(sp)
 958              		.cfi_restore 8
 959              		.cfi_def_cfa 2, 16
 960 0380 13010101 		addi	sp,sp,16
 961              		.cfi_def_cfa_offset 0
 962 0384 67800000 		jr	ra
 963              		.cfi_endproc
 964              	.LFE35:
 966              		.align	2
 967              		.globl	_Z10time_sleepm
 969              	_Z10time_sleepm:
 970              	.LFB36:
 189:src/syscall_c.cpp **** int time_sleep (time_t){
 971              		.loc 1 189 24 is_stmt 1
 972              		.cfi_startproc
 973 0388 130101FF 		addi	sp,sp,-16
 974              		.cfi_def_cfa_offset 16
 975 038c 23348100 		sd	s0,8(sp)
 976              		.cfi_offset 8, -8
 977 0390 13040101 		addi	s0,sp,16
 978              		.cfi_def_cfa 8, 0
 190:src/syscall_c.cpp ****     return 0;
GAS LISTING /tmp/ccmCh4nE.s 			page 21


 979              		.loc 1 190 5
 191:src/syscall_c.cpp **** }
 980              		.loc 1 191 1 is_stmt 0
 981 0394 13050000 		li	a0,0
 982 0398 03348100 		ld	s0,8(sp)
 983              		.cfi_restore 8
 984              		.cfi_def_cfa 2, 16
 985 039c 13010101 		addi	sp,sp,16
 986              		.cfi_def_cfa_offset 0
 987 03a0 67800000 		jr	ra
 988              		.cfi_endproc
 989              	.LFE36:
 991              		.align	2
 992              		.globl	_Z11getThreadIdv
 994              	_Z11getThreadIdv:
 995              	.LFB37:
 192:src/syscall_c.cpp **** 
 193:src/syscall_c.cpp **** 
 194:src/syscall_c.cpp **** int getThreadId(){
 996              		.loc 1 194 18 is_stmt 1
 997              		.cfi_startproc
 998 03a4 130101FF 		addi	sp,sp,-16
 999              		.cfi_def_cfa_offset 16
 1000 03a8 23348100 		sd	s0,8(sp)
 1001              		.cfi_offset 8, -8
 1002 03ac 13040101 		addi	s0,sp,16
 1003              		.cfi_def_cfa 8, 0
 195:src/syscall_c.cpp ****     size_t op_code = 0x17;
 1004              		.loc 1 195 5
 1005              	.LVL64:
 196:src/syscall_c.cpp ****     __asm__ volatile("mv a0, %[op]"::[op]"r"(op_code));
 1006              		.loc 1 196 5
 1007              		.loc 1 196 55 is_stmt 0
 1008 03b0 93077001 		li	a5,23
 1009              	#APP
 1010              	# 196 "src/syscall_c.cpp" 1
 197              	    __asm__ volatile("ecall");
 1011              		mv a0, a5
 1012              	# 0 "" 2
 1013              		.loc 1 197 5 is_stmt 1
 1014              		.loc 1 197 30 is_stmt 0
 1015              	# 197 "src/syscall_c.cpp" 1
 198              	    char x;
 1016              		ecall
 1017              	# 0 "" 2
 1018              		.loc 1 198 5 is_stmt 1
 199:src/syscall_c.cpp ****     __asm__ volatile("mv %[x], a0":[x]"=r"(x));
 1019              		.loc 1 199 5
 1020              		.loc 1 199 47 is_stmt 0
 1021              	# 199 "src/syscall_c.cpp" 1
 200              	    return x;
 1022              		mv a0, a0
 1023              	# 0 "" 2
 1024              	.LVL65:
 1025              		.loc 1 200 5 is_stmt 1
 201:src/syscall_c.cpp **** }
 1026              		.loc 1 201 1 is_stmt 0
GAS LISTING /tmp/ccmCh4nE.s 			page 22


 1027              	#NO_APP
 1028 03c0 1375F50F 		andi	a0,a0,0xff
 1029 03c4 03348100 		ld	s0,8(sp)
 1030              		.cfi_restore 8
 1031              		.cfi_def_cfa 2, 16
 1032 03c8 13010101 		addi	sp,sp,16
 1033              		.cfi_def_cfa_offset 0
 1034 03cc 67800000 		jr	ra
 1035              		.cfi_endproc
 1036              	.LFE37:
 1038              		.align	2
 1039              		.globl	_Z4pingP3TCB
 1041              	_Z4pingP3TCB:
 1042              	.LFB38:
 202:src/syscall_c.cpp **** 
 203:src/syscall_c.cpp **** void ping(thread_t handle1){
 1043              		.loc 1 203 28 is_stmt 1
 1044              		.cfi_startproc
 1045              	.LVL66:
 1046 03d0 130101FF 		addi	sp,sp,-16
 1047              		.cfi_def_cfa_offset 16
 1048 03d4 23348100 		sd	s0,8(sp)
 1049              		.cfi_offset 8, -8
 1050 03d8 13040101 		addi	s0,sp,16
 1051              		.cfi_def_cfa 8, 0
 204:src/syscall_c.cpp ****     size_t op_code=0x19;
 1052              		.loc 1 204 5
 1053              	.LVL67:
 205:src/syscall_c.cpp ****     __asm__ volatile("mv a1, %[handle]"::[handle]"r"(handle1));
 1054              		.loc 1 205 5
 1055              		.loc 1 205 63 is_stmt 0
 1056              	#APP
 1057              	# 205 "src/syscall_c.cpp" 1
 206              	    __asm__ volatile("mv a0, %[op]"::[op]"r"(op_code));
 1058              		mv a1, a0
 1059              	# 0 "" 2
 1060              		.loc 1 206 5 is_stmt 1
 1061              		.loc 1 206 55 is_stmt 0
 1062              	#NO_APP
 1063 03e0 93079001 		li	a5,25
 1064              	#APP
 1065              	# 206 "src/syscall_c.cpp" 1
 207              	    __asm__ volatile("ecall");
 1066              		mv a0, a5
 1067              	# 0 "" 2
 1068              		.loc 1 207 5 is_stmt 1
 1069              		.loc 1 207 30 is_stmt 0
 1070              	# 207 "src/syscall_c.cpp" 1
 208              	
 209:src/syscall_c.cpp **** }...
 1071              		ecall
 1072              	# 0 "" 2
 1073              		.loc 1 209 1
 1074              	#NO_APP
 1075 03ec 03348100 		ld	s0,8(sp)
 1076              		.cfi_restore 8
 1077              		.cfi_def_cfa 2, 16
GAS LISTING /tmp/ccmCh4nE.s 			page 23


 1078 03f0 13010101 		addi	sp,sp,16
 1079              		.cfi_def_cfa_offset 0
 1080 03f4 67800000 		jr	ra
 1081              		.cfi_endproc
 1082              	.LFE38:
 1084              	.Letext0:
 1085              		.file 2 "src/../h/../lib/hw.h"
 1086              		.file 3 "src/../h/MemoryAllocator.hpp"
 1087              		.file 4 "src/../h/queue.hpp"
 1088              		.file 5 "src/../h/tcb.hpp"
 1089              		.file 6 "src/../h/syscall_cpp.hpp"
 1090              		.file 7 "src/../h/sem.hpp"
 1091              		.file 8 "src/../h/syscall_c.hpp"
GAS LISTING /tmp/ccmCh4nE.s 			page 24


DEFINED SYMBOLS
                            *ABS*:0000000000000000 syscall_c.cpp
     /tmp/ccmCh4nE.s:9      .text:0000000000000000 _Z9mem_allocm
     /tmp/ccmCh4nE.s:13     .text:0000000000000000 .L0 
     /tmp/ccmCh4nE.s:15     .text:0000000000000000 .L0 
     /tmp/ccmCh4nE.s:16     .text:0000000000000004 .L0 
     /tmp/ccmCh4nE.s:19     .text:000000000000000c .L0 
     /tmp/ccmCh4nE.s:20     .text:000000000000000c .L0 
     /tmp/ccmCh4nE.s:22     .text:0000000000000010 .L0 
     /tmp/ccmCh4nE.s:25     .text:0000000000000010 .L0 
     /tmp/ccmCh4nE.s:26     .text:0000000000000010 .L0 
     /tmp/ccmCh4nE.s:27     .text:0000000000000010 .L0 
   src/syscall_c.cpp:7      .text:0000000000000018 .L0 
     /tmp/ccmCh4nE.s:35     .text:000000000000001c .L0 
     /tmp/ccmCh4nE.s:37     .text:000000000000001c .L0 
     /tmp/ccmCh4nE.s:43     .text:0000000000000024 .L0 
   src/syscall_c.cpp:11     .text:0000000000000024 .L0 
     /tmp/ccmCh4nE.s:48     .text:0000000000000028 .L0 
     /tmp/ccmCh4nE.s:49     .text:0000000000000028 .L0 
   src/syscall_c.cpp:15     .text:0000000000000028 .L0 
     /tmp/ccmCh4nE.s:55     .text:000000000000002c .L0 
     /tmp/ccmCh4nE.s:57     .text:000000000000002c .L0 
     /tmp/ccmCh4nE.s:58     .text:0000000000000030 .L0 
     /tmp/ccmCh4nE.s:60     .text:0000000000000034 .L0 
     /tmp/ccmCh4nE.s:61     .text:0000000000000034 .L0 
     /tmp/ccmCh4nE.s:63     .text:0000000000000038 .L0 
     /tmp/ccmCh4nE.s:65     .text:000000000000003c .L0 
     /tmp/ccmCh4nE.s:71     .text:000000000000003c _Z8mem_freePv
     /tmp/ccmCh4nE.s:74     .text:000000000000003c .L0 
     /tmp/ccmCh4nE.s:76     .text:000000000000003c .L0 
     /tmp/ccmCh4nE.s:77     .text:0000000000000040 .L0 
     /tmp/ccmCh4nE.s:79     .text:0000000000000044 .L0 
     /tmp/ccmCh4nE.s:81     .text:0000000000000048 .L0 
     /tmp/ccmCh4nE.s:84     .text:0000000000000048 .L0 
     /tmp/ccmCh4nE.s:85     .text:0000000000000048 .L0 
   src/syscall_c.cpp:22     .text:0000000000000048 .L0 
     /tmp/ccmCh4nE.s:91     .text:000000000000004c .L0 
     /tmp/ccmCh4nE.s:93     .text:000000000000004c .L0 
     /tmp/ccmCh4nE.s:99     .text:0000000000000054 .L0 
   src/syscall_c.cpp:24     .text:0000000000000054 .L0 
     /tmp/ccmCh4nE.s:104    .text:0000000000000058 .L0 
     /tmp/ccmCh4nE.s:105    .text:0000000000000058 .L0 
   src/syscall_c.cpp:26     .text:0000000000000058 .L0 
     /tmp/ccmCh4nE.s:111    .text:000000000000005c .L0 
     /tmp/ccmCh4nE.s:113    .text:000000000000005c .L0 
     /tmp/ccmCh4nE.s:115    .text:0000000000000064 .L0 
     /tmp/ccmCh4nE.s:116    .text:0000000000000064 .L0 
     /tmp/ccmCh4nE.s:118    .text:0000000000000068 .L0 
     /tmp/ccmCh4nE.s:120    .text:000000000000006c .L0 
     /tmp/ccmCh4nE.s:126    .text:000000000000006c _Z13thread_createPP3TCBPFvPvES2_S1_
     /tmp/ccmCh4nE.s:129    .text:000000000000006c .L0 
     /tmp/ccmCh4nE.s:131    .text:000000000000006c .L0 
     /tmp/ccmCh4nE.s:132    .text:0000000000000070 .L0 
     /tmp/ccmCh4nE.s:138    .text:0000000000000084 .L0 
     /tmp/ccmCh4nE.s:139    .text:0000000000000084 .L0 
     /tmp/ccmCh4nE.s:140    .text:0000000000000084 .L0 
     /tmp/ccmCh4nE.s:141    .text:0000000000000084 .L0 
GAS LISTING /tmp/ccmCh4nE.s 			page 25


     /tmp/ccmCh4nE.s:142    .text:0000000000000084 .L0 
     /tmp/ccmCh4nE.s:144    .text:0000000000000088 .L0 
     /tmp/ccmCh4nE.s:150    .text:0000000000000094 .L0 
     /tmp/ccmCh4nE.s:151    .text:0000000000000094 .L0 
   src/syscall_c.cpp:31     .text:0000000000000094 .L0 
     /tmp/ccmCh4nE.s:157    .text:0000000000000098 .L0 
     /tmp/ccmCh4nE.s:159    .text:0000000000000098 .L0 
     /tmp/ccmCh4nE.s:164    .text:00000000000000a4 .L0 
     /tmp/ccmCh4nE.s:166    .text:00000000000000a8 .L0 
   src/syscall_c.cpp:36     .text:00000000000000a8 .L0 
     /tmp/ccmCh4nE.s:173    .text:00000000000000ac .L0 
     /tmp/ccmCh4nE.s:174    .text:00000000000000ac .L0 
   src/syscall_c.cpp:38     .text:00000000000000ac .L0 
     /tmp/ccmCh4nE.s:180    .text:00000000000000b0 .L0 
     /tmp/ccmCh4nE.s:181    .text:00000000000000b0 .L0 
   src/syscall_c.cpp:40     .text:00000000000000b0 .L0 
     /tmp/ccmCh4nE.s:187    .text:00000000000000b4 .L0 
     /tmp/ccmCh4nE.s:188    .text:00000000000000b4 .L0 
   src/syscall_c.cpp:42     .text:00000000000000b4 .L0 
     /tmp/ccmCh4nE.s:194    .text:00000000000000b8 .L0 
     /tmp/ccmCh4nE.s:195    .text:00000000000000b8 .L0 
     /tmp/ccmCh4nE.s:197    .text:00000000000000b8 .L0 
     /tmp/ccmCh4nE.s:203    .text:00000000000000c0 .L0 
   src/syscall_c.cpp:47     .text:00000000000000c0 .L0 
     /tmp/ccmCh4nE.s:208    .text:00000000000000c4 .L0 
     /tmp/ccmCh4nE.s:209    .text:00000000000000c4 .L0 
   src/syscall_c.cpp:49     .text:00000000000000c4 .L0 
     /tmp/ccmCh4nE.s:219    .text:00000000000000cc .L0 
     /tmp/ccmCh4nE.s:220    .text:00000000000000cc .L0 
     /tmp/ccmCh4nE.s:221    .text:00000000000000d0 .L0 
     /tmp/ccmCh4nE.s:222    .text:00000000000000d0 .L0 
     /tmp/ccmCh4nE.s:224    .text:00000000000000d4 .L0 
     /tmp/ccmCh4nE.s:225    .text:00000000000000d4 .L0 
     /tmp/ccmCh4nE.s:227    .text:00000000000000d8 .L0 
     /tmp/ccmCh4nE.s:230    .text:00000000000000dc .L0 
     /tmp/ccmCh4nE.s:233    .text:00000000000000e0 .L0 
     /tmp/ccmCh4nE.s:236    .text:00000000000000e4 .L0 
     /tmp/ccmCh4nE.s:240    .text:00000000000000e8 .L0 
     /tmp/ccmCh4nE.s:242    .text:00000000000000e8 .L0 
     /tmp/ccmCh4nE.s:245    .text:00000000000000f0 .L0 
     /tmp/ccmCh4nE.s:251    .text:00000000000000f0 _Z13thread_createPP3TCBPFvPvES2_
     /tmp/ccmCh4nE.s:254    .text:00000000000000f0 .L0 
     /tmp/ccmCh4nE.s:256    .text:00000000000000f0 .L0 
     /tmp/ccmCh4nE.s:257    .text:00000000000000f4 .L0 
     /tmp/ccmCh4nE.s:263    .text:0000000000000108 .L0 
     /tmp/ccmCh4nE.s:264    .text:0000000000000108 .L0 
     /tmp/ccmCh4nE.s:265    .text:0000000000000108 .L0 
     /tmp/ccmCh4nE.s:266    .text:0000000000000108 .L0 
     /tmp/ccmCh4nE.s:267    .text:0000000000000108 .L0 
     /tmp/ccmCh4nE.s:269    .text:000000000000010c .L0 
     /tmp/ccmCh4nE.s:274    .text:0000000000000118 .L0 
     /tmp/ccmCh4nE.s:275    .text:0000000000000118 .L0 
     /tmp/ccmCh4nE.s:280    .text:0000000000000124 .L0 
     /tmp/ccmCh4nE.s:282    .text:0000000000000128 .L0 
   src/syscall_c.cpp:57     .text:0000000000000128 .L0 
     /tmp/ccmCh4nE.s:289    .text:000000000000012c .L0 
     /tmp/ccmCh4nE.s:290    .text:000000000000012c .L0 
GAS LISTING /tmp/ccmCh4nE.s 			page 26


   src/syscall_c.cpp:59     .text:000000000000012c .L0 
     /tmp/ccmCh4nE.s:296    .text:0000000000000130 .L0 
     /tmp/ccmCh4nE.s:297    .text:0000000000000130 .L0 
   src/syscall_c.cpp:61     .text:0000000000000130 .L0 
     /tmp/ccmCh4nE.s:303    .text:0000000000000134 .L0 
     /tmp/ccmCh4nE.s:304    .text:0000000000000134 .L0 
   src/syscall_c.cpp:63     .text:0000000000000134 .L0 
     /tmp/ccmCh4nE.s:310    .text:0000000000000138 .L0 
     /tmp/ccmCh4nE.s:311    .text:0000000000000138 .L0 
     /tmp/ccmCh4nE.s:313    .text:0000000000000138 .L0 
     /tmp/ccmCh4nE.s:319    .text:0000000000000140 .L0 
   src/syscall_c.cpp:68     .text:0000000000000140 .L0 
     /tmp/ccmCh4nE.s:324    .text:0000000000000144 .L0 
     /tmp/ccmCh4nE.s:325    .text:0000000000000144 .L0 
   src/syscall_c.cpp:70     .text:0000000000000144 .L0 
     /tmp/ccmCh4nE.s:335    .text:000000000000014c .L0 
     /tmp/ccmCh4nE.s:336    .text:000000000000014c .L0 
     /tmp/ccmCh4nE.s:337    .text:0000000000000150 .L0 
     /tmp/ccmCh4nE.s:338    .text:0000000000000150 .L0 
     /tmp/ccmCh4nE.s:340    .text:0000000000000154 .L0 
     /tmp/ccmCh4nE.s:341    .text:0000000000000154 .L0 
     /tmp/ccmCh4nE.s:343    .text:0000000000000158 .L0 
     /tmp/ccmCh4nE.s:346    .text:000000000000015c .L0 
     /tmp/ccmCh4nE.s:349    .text:0000000000000160 .L0 
     /tmp/ccmCh4nE.s:352    .text:0000000000000164 .L0 
     /tmp/ccmCh4nE.s:356    .text:0000000000000168 .L0 
     /tmp/ccmCh4nE.s:358    .text:0000000000000168 .L0 
     /tmp/ccmCh4nE.s:361    .text:0000000000000170 .L0 
     /tmp/ccmCh4nE.s:367    .text:0000000000000170 _Z15thread_dispatchv
     /tmp/ccmCh4nE.s:370    .text:0000000000000170 .L0 
     /tmp/ccmCh4nE.s:371    .text:0000000000000170 .L0 
     /tmp/ccmCh4nE.s:372    .text:0000000000000174 .L0 
     /tmp/ccmCh4nE.s:374    .text:0000000000000178 .L0 
     /tmp/ccmCh4nE.s:376    .text:000000000000017c .L0 
     /tmp/ccmCh4nE.s:379    .text:000000000000017c .L0 
     /tmp/ccmCh4nE.s:380    .text:000000000000017c .L0 
     /tmp/ccmCh4nE.s:381    .text:000000000000017c .L0 
     /tmp/ccmCh4nE.s:387    .text:0000000000000184 .L0 
   src/syscall_c.cpp:78     .text:0000000000000184 .L0 
     /tmp/ccmCh4nE.s:393    .text:0000000000000188 .L0 
     /tmp/ccmCh4nE.s:394    .text:000000000000018c .L0 
     /tmp/ccmCh4nE.s:395    .text:000000000000018c .L0 
     /tmp/ccmCh4nE.s:397    .text:0000000000000190 .L0 
     /tmp/ccmCh4nE.s:399    .text:0000000000000194 .L0 
     /tmp/ccmCh4nE.s:405    .text:0000000000000194 _Z11thread_exitv
     /tmp/ccmCh4nE.s:408    .text:0000000000000194 .L0 
     /tmp/ccmCh4nE.s:409    .text:0000000000000194 .L0 
     /tmp/ccmCh4nE.s:410    .text:0000000000000198 .L0 
     /tmp/ccmCh4nE.s:412    .text:000000000000019c .L0 
     /tmp/ccmCh4nE.s:414    .text:00000000000001a0 .L0 
     /tmp/ccmCh4nE.s:417    .text:00000000000001a0 .L0 
     /tmp/ccmCh4nE.s:418    .text:00000000000001a0 .L0 
     /tmp/ccmCh4nE.s:419    .text:00000000000001a0 .L0 
     /tmp/ccmCh4nE.s:425    .text:00000000000001a8 .L0 
   src/syscall_c.cpp:84     .text:00000000000001a8 .L0 
     /tmp/ccmCh4nE.s:430    .text:00000000000001ac .L0 
     /tmp/ccmCh4nE.s:431    .text:00000000000001ac .L0 
GAS LISTING /tmp/ccmCh4nE.s 			page 27


   src/syscall_c.cpp:86     .text:00000000000001ac .L0 
     /tmp/ccmCh4nE.s:437    .text:00000000000001b0 .L0 
     /tmp/ccmCh4nE.s:439    .text:00000000000001b0 .L0 
     /tmp/ccmCh4nE.s:441    .text:00000000000001b8 .L0 
     /tmp/ccmCh4nE.s:442    .text:00000000000001b8 .L0 
     /tmp/ccmCh4nE.s:444    .text:00000000000001bc .L0 
     /tmp/ccmCh4nE.s:446    .text:00000000000001c0 .L0 
     /tmp/ccmCh4nE.s:452    .text:00000000000001c0 _Z13SetMaxThreadsi
     /tmp/ccmCh4nE.s:455    .text:00000000000001c0 .L0 
     /tmp/ccmCh4nE.s:457    .text:00000000000001c0 .L0 
     /tmp/ccmCh4nE.s:458    .text:00000000000001c4 .L0 
     /tmp/ccmCh4nE.s:460    .text:00000000000001c8 .L0 
     /tmp/ccmCh4nE.s:462    .text:00000000000001cc .L0 
     /tmp/ccmCh4nE.s:465    .text:00000000000001cc .L0 
     /tmp/ccmCh4nE.s:466    .text:00000000000001cc .L0 
   src/syscall_c.cpp:92     .text:00000000000001cc .L0 
     /tmp/ccmCh4nE.s:472    .text:00000000000001d0 .L0 
     /tmp/ccmCh4nE.s:474    .text:00000000000001d0 .L0 
     /tmp/ccmCh4nE.s:480    .text:00000000000001d8 .L0 
   src/syscall_c.cpp:94     .text:00000000000001d8 .L0 
     /tmp/ccmCh4nE.s:486    .text:00000000000001dc .L0 
     /tmp/ccmCh4nE.s:487    .text:00000000000001e0 .L0 
     /tmp/ccmCh4nE.s:488    .text:00000000000001e0 .L0 
     /tmp/ccmCh4nE.s:490    .text:00000000000001e4 .L0 
     /tmp/ccmCh4nE.s:492    .text:00000000000001e8 .L0 
     /tmp/ccmCh4nE.s:498    .text:00000000000001e8 _Z7joinAllv
     /tmp/ccmCh4nE.s:501    .text:00000000000001e8 .L0 
     /tmp/ccmCh4nE.s:502    .text:00000000000001e8 .L0 
     /tmp/ccmCh4nE.s:503    .text:00000000000001ec .L0 
     /tmp/ccmCh4nE.s:505    .text:00000000000001f0 .L0 
     /tmp/ccmCh4nE.s:507    .text:00000000000001f4 .L0 
     /tmp/ccmCh4nE.s:510    .text:00000000000001f4 .L0 
     /tmp/ccmCh4nE.s:511    .text:00000000000001f4 .L0 
     /tmp/ccmCh4nE.s:512    .text:00000000000001f4 .L0 
     /tmp/ccmCh4nE.s:518    .text:00000000000001fc .L0 
   src/syscall_c.cpp:100    .text:00000000000001fc .L0 
     /tmp/ccmCh4nE.s:524    .text:0000000000000200 .L0 
     /tmp/ccmCh4nE.s:525    .text:0000000000000204 .L0 
     /tmp/ccmCh4nE.s:526    .text:0000000000000204 .L0 
     /tmp/ccmCh4nE.s:528    .text:0000000000000208 .L0 
     /tmp/ccmCh4nE.s:530    .text:000000000000020c .L0 
     /tmp/ccmCh4nE.s:536    .text:000000000000020c _Z8sem_openPP3Semj
     /tmp/ccmCh4nE.s:539    .text:000000000000020c .L0 
     /tmp/ccmCh4nE.s:541    .text:000000000000020c .L0 
     /tmp/ccmCh4nE.s:542    .text:0000000000000210 .L0 
     /tmp/ccmCh4nE.s:544    .text:0000000000000214 .L0 
     /tmp/ccmCh4nE.s:546    .text:0000000000000218 .L0 
     /tmp/ccmCh4nE.s:549    .text:0000000000000218 .L0 
     /tmp/ccmCh4nE.s:550    .text:0000000000000218 .L0 
   src/syscall_c.cpp:115    .text:0000000000000218 .L0 
     /tmp/ccmCh4nE.s:556    .text:000000000000021c .L0 
   src/syscall_c.cpp:116    .text:000000000000021c .L0 
     /tmp/ccmCh4nE.s:561    .text:0000000000000220 .L0 
     /tmp/ccmCh4nE.s:563    .text:0000000000000220 .L0 
     /tmp/ccmCh4nE.s:569    .text:0000000000000228 .L0 
   src/syscall_c.cpp:118    .text:0000000000000228 .L0 
     /tmp/ccmCh4nE.s:574    .text:000000000000022c .L0 
GAS LISTING /tmp/ccmCh4nE.s 			page 28


     /tmp/ccmCh4nE.s:575    .text:000000000000022c .L0 
   src/syscall_c.cpp:120    .text:000000000000022c .L0 
     /tmp/ccmCh4nE.s:581    .text:0000000000000230 .L0 
     /tmp/ccmCh4nE.s:583    .text:0000000000000230 .L0 
     /tmp/ccmCh4nE.s:585    .text:0000000000000238 .L0 
     /tmp/ccmCh4nE.s:586    .text:0000000000000238 .L0 
     /tmp/ccmCh4nE.s:588    .text:000000000000023c .L0 
     /tmp/ccmCh4nE.s:590    .text:0000000000000240 .L0 
     /tmp/ccmCh4nE.s:596    .text:0000000000000240 _Z9sem_closeP3Sem
     /tmp/ccmCh4nE.s:599    .text:0000000000000240 .L0 
     /tmp/ccmCh4nE.s:601    .text:0000000000000240 .L0 
     /tmp/ccmCh4nE.s:602    .text:0000000000000244 .L0 
     /tmp/ccmCh4nE.s:604    .text:0000000000000248 .L0 
     /tmp/ccmCh4nE.s:606    .text:000000000000024c .L0 
     /tmp/ccmCh4nE.s:609    .text:000000000000024c .L0 
     /tmp/ccmCh4nE.s:610    .text:000000000000024c .L0 
   src/syscall_c.cpp:126    .text:000000000000024c .L0 
     /tmp/ccmCh4nE.s:616    .text:0000000000000250 .L0 
     /tmp/ccmCh4nE.s:618    .text:0000000000000250 .L0 
     /tmp/ccmCh4nE.s:624    .text:0000000000000258 .L0 
   src/syscall_c.cpp:128    .text:0000000000000258 .L0 
     /tmp/ccmCh4nE.s:629    .text:000000000000025c .L0 
     /tmp/ccmCh4nE.s:630    .text:000000000000025c .L0 
   src/syscall_c.cpp:130    .text:000000000000025c .L0 
     /tmp/ccmCh4nE.s:636    .text:0000000000000260 .L0 
     /tmp/ccmCh4nE.s:638    .text:0000000000000260 .L0 
     /tmp/ccmCh4nE.s:640    .text:0000000000000268 .L0 
     /tmp/ccmCh4nE.s:641    .text:0000000000000268 .L0 
     /tmp/ccmCh4nE.s:643    .text:000000000000026c .L0 
     /tmp/ccmCh4nE.s:645    .text:0000000000000270 .L0 
     /tmp/ccmCh4nE.s:651    .text:0000000000000270 _Z8sem_waitP3Sem
     /tmp/ccmCh4nE.s:654    .text:0000000000000270 .L0 
     /tmp/ccmCh4nE.s:656    .text:0000000000000270 .L0 
     /tmp/ccmCh4nE.s:657    .text:0000000000000274 .L0 
     /tmp/ccmCh4nE.s:659    .text:0000000000000278 .L0 
     /tmp/ccmCh4nE.s:661    .text:000000000000027c .L0 
     /tmp/ccmCh4nE.s:664    .text:000000000000027c .L0 
     /tmp/ccmCh4nE.s:665    .text:000000000000027c .L0 
   src/syscall_c.cpp:135    .text:000000000000027c .L0 
     /tmp/ccmCh4nE.s:671    .text:0000000000000280 .L0 
     /tmp/ccmCh4nE.s:673    .text:0000000000000280 .L0 
     /tmp/ccmCh4nE.s:679    .text:0000000000000288 .L0 
   src/syscall_c.cpp:137    .text:0000000000000288 .L0 
     /tmp/ccmCh4nE.s:684    .text:000000000000028c .L0 
     /tmp/ccmCh4nE.s:685    .text:000000000000028c .L0 
   src/syscall_c.cpp:139    .text:000000000000028c .L0 
     /tmp/ccmCh4nE.s:691    .text:0000000000000290 .L0 
     /tmp/ccmCh4nE.s:693    .text:0000000000000290 .L0 
     /tmp/ccmCh4nE.s:695    .text:0000000000000298 .L0 
     /tmp/ccmCh4nE.s:696    .text:0000000000000298 .L0 
     /tmp/ccmCh4nE.s:698    .text:000000000000029c .L0 
     /tmp/ccmCh4nE.s:700    .text:00000000000002a0 .L0 
     /tmp/ccmCh4nE.s:706    .text:00000000000002a0 _Z10sem_signalP3Sem
     /tmp/ccmCh4nE.s:709    .text:00000000000002a0 .L0 
     /tmp/ccmCh4nE.s:711    .text:00000000000002a0 .L0 
     /tmp/ccmCh4nE.s:712    .text:00000000000002a4 .L0 
     /tmp/ccmCh4nE.s:714    .text:00000000000002a8 .L0 
GAS LISTING /tmp/ccmCh4nE.s 			page 29


     /tmp/ccmCh4nE.s:716    .text:00000000000002ac .L0 
     /tmp/ccmCh4nE.s:719    .text:00000000000002ac .L0 
     /tmp/ccmCh4nE.s:720    .text:00000000000002ac .L0 
   src/syscall_c.cpp:144    .text:00000000000002ac .L0 
     /tmp/ccmCh4nE.s:726    .text:00000000000002b0 .L0 
     /tmp/ccmCh4nE.s:728    .text:00000000000002b0 .L0 
     /tmp/ccmCh4nE.s:734    .text:00000000000002b8 .L0 
   src/syscall_c.cpp:146    .text:00000000000002b8 .L0 
     /tmp/ccmCh4nE.s:739    .text:00000000000002bc .L0 
     /tmp/ccmCh4nE.s:740    .text:00000000000002bc .L0 
   src/syscall_c.cpp:148    .text:00000000000002bc .L0 
     /tmp/ccmCh4nE.s:746    .text:00000000000002c0 .L0 
     /tmp/ccmCh4nE.s:748    .text:00000000000002c0 .L0 
     /tmp/ccmCh4nE.s:750    .text:00000000000002c8 .L0 
     /tmp/ccmCh4nE.s:751    .text:00000000000002c8 .L0 
     /tmp/ccmCh4nE.s:753    .text:00000000000002cc .L0 
     /tmp/ccmCh4nE.s:755    .text:00000000000002d0 .L0 
     /tmp/ccmCh4nE.s:761    .text:00000000000002d0 _Z11sem_trywaitP3Sem
     /tmp/ccmCh4nE.s:764    .text:00000000000002d0 .L0 
     /tmp/ccmCh4nE.s:766    .text:00000000000002d0 .L0 
     /tmp/ccmCh4nE.s:767    .text:00000000000002d4 .L0 
     /tmp/ccmCh4nE.s:769    .text:00000000000002d8 .L0 
     /tmp/ccmCh4nE.s:771    .text:00000000000002dc .L0 
     /tmp/ccmCh4nE.s:774    .text:00000000000002dc .L0 
     /tmp/ccmCh4nE.s:775    .text:00000000000002dc .L0 
   src/syscall_c.cpp:154    .text:00000000000002dc .L0 
     /tmp/ccmCh4nE.s:781    .text:00000000000002e0 .L0 
     /tmp/ccmCh4nE.s:783    .text:00000000000002e0 .L0 
     /tmp/ccmCh4nE.s:789    .text:00000000000002e8 .L0 
   src/syscall_c.cpp:156    .text:00000000000002e8 .L0 
     /tmp/ccmCh4nE.s:794    .text:00000000000002ec .L0 
     /tmp/ccmCh4nE.s:795    .text:00000000000002ec .L0 
   src/syscall_c.cpp:158    .text:00000000000002ec .L0 
     /tmp/ccmCh4nE.s:801    .text:00000000000002f0 .L0 
     /tmp/ccmCh4nE.s:803    .text:00000000000002f0 .L0 
     /tmp/ccmCh4nE.s:805    .text:00000000000002f8 .L0 
     /tmp/ccmCh4nE.s:806    .text:00000000000002f8 .L0 
     /tmp/ccmCh4nE.s:808    .text:00000000000002fc .L0 
     /tmp/ccmCh4nE.s:810    .text:0000000000000300 .L0 
     /tmp/ccmCh4nE.s:816    .text:0000000000000300 _Z14sem_wait_priorP3Semj
     /tmp/ccmCh4nE.s:819    .text:0000000000000300 .L0 
     /tmp/ccmCh4nE.s:821    .text:0000000000000300 .L0 
     /tmp/ccmCh4nE.s:822    .text:0000000000000304 .L0 
     /tmp/ccmCh4nE.s:824    .text:0000000000000308 .L0 
     /tmp/ccmCh4nE.s:826    .text:000000000000030c .L0 
     /tmp/ccmCh4nE.s:829    .text:000000000000030c .L0 
     /tmp/ccmCh4nE.s:830    .text:000000000000030c .L0 
   src/syscall_c.cpp:164    .text:000000000000030c .L0 
     /tmp/ccmCh4nE.s:836    .text:0000000000000310 .L0 
   src/syscall_c.cpp:165    .text:0000000000000310 .L0 
     /tmp/ccmCh4nE.s:841    .text:0000000000000314 .L0 
     /tmp/ccmCh4nE.s:843    .text:0000000000000314 .L0 
     /tmp/ccmCh4nE.s:849    .text:000000000000031c .L0 
   src/syscall_c.cpp:167    .text:000000000000031c .L0 
     /tmp/ccmCh4nE.s:854    .text:0000000000000320 .L0 
     /tmp/ccmCh4nE.s:855    .text:0000000000000320 .L0 
   src/syscall_c.cpp:169    .text:0000000000000320 .L0 
GAS LISTING /tmp/ccmCh4nE.s 			page 30


     /tmp/ccmCh4nE.s:861    .text:0000000000000324 .L0 
     /tmp/ccmCh4nE.s:863    .text:0000000000000324 .L0 
     /tmp/ccmCh4nE.s:865    .text:000000000000032c .L0 
     /tmp/ccmCh4nE.s:866    .text:000000000000032c .L0 
     /tmp/ccmCh4nE.s:868    .text:0000000000000330 .L0 
     /tmp/ccmCh4nE.s:870    .text:0000000000000334 .L0 
     /tmp/ccmCh4nE.s:876    .text:0000000000000334 _Z4getcv
     /tmp/ccmCh4nE.s:879    .text:0000000000000334 .L0 
     /tmp/ccmCh4nE.s:880    .text:0000000000000334 .L0 
     /tmp/ccmCh4nE.s:881    .text:0000000000000338 .L0 
     /tmp/ccmCh4nE.s:883    .text:000000000000033c .L0 
     /tmp/ccmCh4nE.s:885    .text:0000000000000340 .L0 
     /tmp/ccmCh4nE.s:888    .text:0000000000000340 .L0 
     /tmp/ccmCh4nE.s:889    .text:0000000000000340 .L0 
     /tmp/ccmCh4nE.s:890    .text:0000000000000340 .L0 
     /tmp/ccmCh4nE.s:896    .text:0000000000000348 .L0 
   src/syscall_c.cpp:176    .text:0000000000000348 .L0 
     /tmp/ccmCh4nE.s:901    .text:000000000000034c .L0 
     /tmp/ccmCh4nE.s:902    .text:000000000000034c .L0 
   src/syscall_c.cpp:178    .text:000000000000034c .L0 
     /tmp/ccmCh4nE.s:908    .text:0000000000000350 .L0 
     /tmp/ccmCh4nE.s:910    .text:0000000000000350 .L0 
     /tmp/ccmCh4nE.s:912    .text:0000000000000358 .L0 
     /tmp/ccmCh4nE.s:913    .text:0000000000000358 .L0 
     /tmp/ccmCh4nE.s:915    .text:000000000000035c .L0 
     /tmp/ccmCh4nE.s:917    .text:0000000000000360 .L0 
     /tmp/ccmCh4nE.s:923    .text:0000000000000360 _Z4putcc
     /tmp/ccmCh4nE.s:926    .text:0000000000000360 .L0 
     /tmp/ccmCh4nE.s:928    .text:0000000000000360 .L0 
     /tmp/ccmCh4nE.s:929    .text:0000000000000364 .L0 
     /tmp/ccmCh4nE.s:931    .text:0000000000000368 .L0 
     /tmp/ccmCh4nE.s:933    .text:000000000000036c .L0 
     /tmp/ccmCh4nE.s:936    .text:000000000000036c .L0 
     /tmp/ccmCh4nE.s:937    .text:000000000000036c .L0 
   src/syscall_c.cpp:184    .text:000000000000036c .L0 
     /tmp/ccmCh4nE.s:943    .text:0000000000000370 .L0 
     /tmp/ccmCh4nE.s:945    .text:0000000000000370 .L0 
     /tmp/ccmCh4nE.s:951    .text:0000000000000378 .L0 
   src/syscall_c.cpp:186    .text:0000000000000378 .L0 
     /tmp/ccmCh4nE.s:957    .text:000000000000037c .L0 
     /tmp/ccmCh4nE.s:958    .text:0000000000000380 .L0 
     /tmp/ccmCh4nE.s:959    .text:0000000000000380 .L0 
     /tmp/ccmCh4nE.s:961    .text:0000000000000384 .L0 
     /tmp/ccmCh4nE.s:963    .text:0000000000000388 .L0 
     /tmp/ccmCh4nE.s:969    .text:0000000000000388 _Z10time_sleepm
     /tmp/ccmCh4nE.s:972    .text:0000000000000388 .L0 
     /tmp/ccmCh4nE.s:973    .text:0000000000000388 .L0 
     /tmp/ccmCh4nE.s:974    .text:000000000000038c .L0 
     /tmp/ccmCh4nE.s:976    .text:0000000000000390 .L0 
     /tmp/ccmCh4nE.s:978    .text:0000000000000394 .L0 
     /tmp/ccmCh4nE.s:980    .text:0000000000000394 .L0 
     /tmp/ccmCh4nE.s:981    .text:0000000000000394 .L0 
     /tmp/ccmCh4nE.s:983    .text:000000000000039c .L0 
     /tmp/ccmCh4nE.s:984    .text:000000000000039c .L0 
     /tmp/ccmCh4nE.s:986    .text:00000000000003a0 .L0 
     /tmp/ccmCh4nE.s:988    .text:00000000000003a4 .L0 
     /tmp/ccmCh4nE.s:994    .text:00000000000003a4 _Z11getThreadIdv
GAS LISTING /tmp/ccmCh4nE.s 			page 31


     /tmp/ccmCh4nE.s:997    .text:00000000000003a4 .L0 
     /tmp/ccmCh4nE.s:998    .text:00000000000003a4 .L0 
     /tmp/ccmCh4nE.s:999    .text:00000000000003a8 .L0 
     /tmp/ccmCh4nE.s:1001   .text:00000000000003ac .L0 
     /tmp/ccmCh4nE.s:1003   .text:00000000000003b0 .L0 
     /tmp/ccmCh4nE.s:1006   .text:00000000000003b0 .L0 
     /tmp/ccmCh4nE.s:1007   .text:00000000000003b0 .L0 
     /tmp/ccmCh4nE.s:1008   .text:00000000000003b0 .L0 
     /tmp/ccmCh4nE.s:1014   .text:00000000000003b8 .L0 
   src/syscall_c.cpp:197    .text:00000000000003b8 .L0 
     /tmp/ccmCh4nE.s:1019   .text:00000000000003bc .L0 
     /tmp/ccmCh4nE.s:1020   .text:00000000000003bc .L0 
   src/syscall_c.cpp:199    .text:00000000000003bc .L0 
     /tmp/ccmCh4nE.s:1026   .text:00000000000003c0 .L0 
     /tmp/ccmCh4nE.s:1028   .text:00000000000003c0 .L0 
     /tmp/ccmCh4nE.s:1030   .text:00000000000003c8 .L0 
     /tmp/ccmCh4nE.s:1031   .text:00000000000003c8 .L0 
     /tmp/ccmCh4nE.s:1033   .text:00000000000003cc .L0 
     /tmp/ccmCh4nE.s:1035   .text:00000000000003d0 .L0 
     /tmp/ccmCh4nE.s:1041   .text:00000000000003d0 _Z4pingP3TCB
     /tmp/ccmCh4nE.s:1044   .text:00000000000003d0 .L0 
     /tmp/ccmCh4nE.s:1046   .text:00000000000003d0 .L0 
     /tmp/ccmCh4nE.s:1047   .text:00000000000003d4 .L0 
     /tmp/ccmCh4nE.s:1049   .text:00000000000003d8 .L0 
     /tmp/ccmCh4nE.s:1051   .text:00000000000003dc .L0 
     /tmp/ccmCh4nE.s:1054   .text:00000000000003dc .L0 
     /tmp/ccmCh4nE.s:1055   .text:00000000000003dc .L0 
   src/syscall_c.cpp:205    .text:00000000000003dc .L0 
     /tmp/ccmCh4nE.s:1061   .text:00000000000003e0 .L0 
     /tmp/ccmCh4nE.s:1063   .text:00000000000003e0 .L0 
     /tmp/ccmCh4nE.s:1069   .text:00000000000003e8 .L0 
   src/syscall_c.cpp:207    .text:00000000000003e8 .L0 
     /tmp/ccmCh4nE.s:1075   .text:00000000000003ec .L0 
     /tmp/ccmCh4nE.s:1076   .text:00000000000003f0 .L0 
     /tmp/ccmCh4nE.s:1077   .text:00000000000003f0 .L0 
     /tmp/ccmCh4nE.s:1079   .text:00000000000003f4 .L0 
     /tmp/ccmCh4nE.s:1081   .text:00000000000003f8 .L0 
     /tmp/ccmCh4nE.s:1092   .text:00000000000003f8 .L0 
     /tmp/ccmCh4nE.s:239    .text:00000000000000e8 .L7
     /tmp/ccmCh4nE.s:218    .text:00000000000000cc .L6
     /tmp/ccmCh4nE.s:355    .text:0000000000000168 .L11
     /tmp/ccmCh4nE.s:334    .text:000000000000014c .L10
     /tmp/ccmCh4nE.s:2758   .debug_abbrev:0000000000000000 .Ldebug_abbrev0
     /tmp/ccmCh4nE.s:4279   .debug_str:000000000000075f .LASF157
     /tmp/ccmCh4nE.s:4155   .debug_str:00000000000003fe .LASF158
     /tmp/ccmCh4nE.s:4211   .debug_str:0000000000000598 .LASF159
     /tmp/ccmCh4nE.s:5      .text:0000000000000000 .Ltext0
     /tmp/ccmCh4nE.s:1084   .text:00000000000003f8 .Letext0
     /tmp/ccmCh4nE.s:4009   .debug_line:0000000000000000 .Ldebug_line0
     /tmp/ccmCh4nE.s:4115   .debug_str:00000000000002eb .LASF0
     /tmp/ccmCh4nE.s:4135   .debug_str:0000000000000362 .LASF1
     /tmp/ccmCh4nE.s:4225   .debug_str:0000000000000605 .LASF2
     /tmp/ccmCh4nE.s:4235   .debug_str:000000000000063a .LASF4
     /tmp/ccmCh4nE.s:4121   .debug_str:0000000000000305 .LASF3
     /tmp/ccmCh4nE.s:4019   .debug_str:0000000000000041 .LASF5
     /tmp/ccmCh4nE.s:4201   .debug_str:0000000000000570 .LASF6
     /tmp/ccmCh4nE.s:4187   .debug_str:00000000000004f6 .LASF7
GAS LISTING /tmp/ccmCh4nE.s 			page 32


     /tmp/ccmCh4nE.s:4125   .debug_str:0000000000000320 .LASF8
     /tmp/ccmCh4nE.s:4091   .debug_str:0000000000000251 .LASF9
     /tmp/ccmCh4nE.s:4103   .debug_str:00000000000002aa .LASF10
     /tmp/ccmCh4nE.s:4049   .debug_str:000000000000012e .LASF11
     /tmp/ccmCh4nE.s:4089   .debug_str:0000000000000242 .LASF12
     /tmp/ccmCh4nE.s:4059   .debug_str:0000000000000166 .LASF13
     /tmp/ccmCh4nE.s:4047   .debug_str:000000000000011e .LASF14
     /tmp/ccmCh4nE.s:4259   .debug_str:00000000000006f3 .LASF15
     /tmp/ccmCh4nE.s:4077   .debug_str:00000000000001cc .LASF16
     /tmp/ccmCh4nE.s:4249   .debug_str:0000000000000683 .LASF17
     /tmp/ccmCh4nE.s:4101   .debug_str:00000000000002a5 .LASF27
     /tmp/ccmCh4nE.s:4133   .debug_str:000000000000035d .LASF18
     /tmp/ccmCh4nE.s:4051   .debug_str:000000000000013d .LASF19
     /tmp/ccmCh4nE.s:4029   .debug_str:00000000000000a1 .LASF20
     /tmp/ccmCh4nE.s:4181   .debug_str:00000000000004c5 .LASF30
     /tmp/ccmCh4nE.s:4217   .debug_str:00000000000005cb .LASF81
     /tmp/ccmCh4nE.s:4157   .debug_str:0000000000000410 .LASF21
     /tmp/ccmCh4nE.s:4021   .debug_str:0000000000000048 .LASF23
     /tmp/ccmCh4nE.s:4265   .debug_str:000000000000070f .LASF22
     /tmp/ccmCh4nE.s:4159   .debug_str:000000000000041a .LASF24
     /tmp/ccmCh4nE.s:4033   .debug_str:00000000000000b2 .LASF25
     /tmp/ccmCh4nE.s:4335   .debug_str:00000000000009a0 .LASF26
     /tmp/ccmCh4nE.s:4245   .debug_str:000000000000066f .LASF50
     /tmp/ccmCh4nE.s:4253   .debug_str:00000000000006aa .LASF52
     /tmp/ccmCh4nE.s:4231   .debug_str:000000000000062a .LASF28
     /tmp/ccmCh4nE.s:4129   .debug_str:000000000000034a .LASF29
     /tmp/ccmCh4nE.s:4053   .debug_str:0000000000000142 .LASF31
     /tmp/ccmCh4nE.s:4237   .debug_str:0000000000000641 .LASF32
     /tmp/ccmCh4nE.s:4017   .debug_str:0000000000000035 .LASF33
     /tmp/ccmCh4nE.s:4267   .debug_str:0000000000000718 .LASF36
     /tmp/ccmCh4nE.s:4167   .debug_str:000000000000046b .LASF38
     /tmp/ccmCh4nE.s:4035   .debug_str:00000000000000c5 .LASF34
     /tmp/ccmCh4nE.s:4293   .debug_str:0000000000000895 .LASF35
     /tmp/ccmCh4nE.s:4099   .debug_str:0000000000000299 .LASF37
     /tmp/ccmCh4nE.s:4331   .debug_str:0000000000000982 .LASF39
     /tmp/ccmCh4nE.s:4209   .debug_str:000000000000058b .LASF40
     /tmp/ccmCh4nE.s:4223   .debug_str:00000000000005ed .LASF41
     /tmp/ccmCh4nE.s:4337   .debug_str:00000000000009cb .LASF42
     /tmp/ccmCh4nE.s:4285   .debug_str:0000000000000843 .LASF43
     /tmp/ccmCh4nE.s:4227   .debug_str:0000000000000613 .LASF44
     /tmp/ccmCh4nE.s:4041   .debug_str:00000000000000eb .LASF45
     /tmp/ccmCh4nE.s:4271   .debug_str:0000000000000734 .LASF46
     /tmp/ccmCh4nE.s:4085   .debug_str:0000000000000215 .LASF47
     /tmp/ccmCh4nE.s:4139   .debug_str:000000000000037d .LASF48
     /tmp/ccmCh4nE.s:4305   .debug_str:00000000000008d2 .LASF49
     /tmp/ccmCh4nE.s:4069   .debug_str:00000000000001a6 .LASF51
     /tmp/ccmCh4nE.s:4055   .debug_str:000000000000014a .LASF53
     /tmp/ccmCh4nE.s:4151   .debug_str:00000000000003ed .LASF56
     /tmp/ccmCh4nE.s:4087   .debug_str:000000000000022b .LASF58
     /tmp/ccmCh4nE.s:4171   .debug_str:000000000000048c .LASF62
     /tmp/ccmCh4nE.s:4255   .debug_str:00000000000006cd .LASF64
     /tmp/ccmCh4nE.s:4257   .debug_str:00000000000006e6 .LASF54
     /tmp/ccmCh4nE.s:4289   .debug_str:0000000000000867 .LASF55
     /tmp/ccmCh4nE.s:4179   .debug_str:00000000000004c0 .LASF160
     /tmp/ccmCh4nE.s:4327   .debug_str:0000000000000971 .LASF57
     /tmp/ccmCh4nE.s:4325   .debug_str:000000000000095a .LASF59
     /tmp/ccmCh4nE.s:4297   .debug_str:00000000000008b5 .LASF60
GAS LISTING /tmp/ccmCh4nE.s 			page 33


     /tmp/ccmCh4nE.s:4183   .debug_str:00000000000004d5 .LASF61
     /tmp/ccmCh4nE.s:4097   .debug_str:0000000000000287 .LASF63
     /tmp/ccmCh4nE.s:4079   .debug_str:00000000000001e2 .LASF65
     /tmp/ccmCh4nE.s:4277   .debug_str:0000000000000757 .LASF66
     /tmp/ccmCh4nE.s:4215   .debug_str:00000000000005bd .LASF67
     /tmp/ccmCh4nE.s:4189   .debug_str:0000000000000509 .LASF89
     /tmp/ccmCh4nE.s:4011   .debug_str:0000000000000000 .LASF68
     /tmp/ccmCh4nE.s:4333   .debug_str:000000000000099a .LASF69
     /tmp/ccmCh4nE.s:4291   .debug_str:000000000000088d .LASF70
     /tmp/ccmCh4nE.s:4287   .debug_str:000000000000085d .LASF71
     /tmp/ccmCh4nE.s:4247   .debug_str:000000000000067a .LASF72
     /tmp/ccmCh4nE.s:4045   .debug_str:0000000000000113 .LASF73
     /tmp/ccmCh4nE.s:4175   .debug_str:00000000000004a4 .LASF74
     /tmp/ccmCh4nE.s:4057   .debug_str:000000000000015d .LASF75
     /tmp/ccmCh4nE.s:4073   .debug_str:00000000000001b4 .LASF76
     /tmp/ccmCh4nE.s:4165   .debug_str:0000000000000458 .LASF77
     /tmp/ccmCh4nE.s:4185   .debug_str:00000000000004e7 .LASF78
     /tmp/ccmCh4nE.s:4147   .debug_str:00000000000003d0 .LASF79
     /tmp/ccmCh4nE.s:4145   .debug_str:00000000000003c7 .LASF80
     /tmp/ccmCh4nE.s:4037   .debug_str:00000000000000d1 .LASF161
     /tmp/ccmCh4nE.s:4141   .debug_str:000000000000038a .LASF162
     /tmp/ccmCh4nE.s:4063   .debug_str:0000000000000188 .LASF163
     /tmp/ccmCh4nE.s:4015   .debug_str:000000000000000d .LASF164
     /tmp/ccmCh4nE.s:4239   .debug_str:0000000000000646 .LASF82
     /tmp/ccmCh4nE.s:4321   .debug_str:0000000000000949 .LASF83
     /tmp/ccmCh4nE.s:4233   .debug_str:000000000000062f .LASF84
     /tmp/ccmCh4nE.s:4083   .debug_str:000000000000020f .LASF85
     /tmp/ccmCh4nE.s:4301   .debug_str:00000000000008c2 .LASF86
     /tmp/ccmCh4nE.s:4329   .debug_str:000000000000097d .LASF87
     /tmp/ccmCh4nE.s:4323   .debug_str:0000000000000954 .LASF88
     /tmp/ccmCh4nE.s:4039   .debug_str:00000000000000df .LASF90
     /tmp/ccmCh4nE.s:4071   .debug_str:00000000000001af .LASF91
     /tmp/ccmCh4nE.s:4241   .debug_str:0000000000000657 .LASF92
     /tmp/ccmCh4nE.s:4263   .debug_str:0000000000000708 .LASF93
     /tmp/ccmCh4nE.s:4269   .debug_str:0000000000000723 .LASF94
     /tmp/ccmCh4nE.s:4027   .debug_str:0000000000000098 .LASF95
     /tmp/ccmCh4nE.s:4313   .debug_str:000000000000090d .LASF96
     /tmp/ccmCh4nE.s:4221   .debug_str:00000000000005e2 .LASF97
     /tmp/ccmCh4nE.s:4025   .debug_str:0000000000000082 .LASF98
     /tmp/ccmCh4nE.s:4067   .debug_str:000000000000019e .LASF99
     /tmp/ccmCh4nE.s:4061   .debug_str:0000000000000176 .LASF100
     /tmp/ccmCh4nE.s:4123   .debug_str:0000000000000317 .LASF101
     /tmp/ccmCh4nE.s:4043   .debug_str:0000000000000100 .LASF102
     /tmp/ccmCh4nE.s:4111   .debug_str:00000000000002df .LASF103
     /tmp/ccmCh4nE.s:4075   .debug_str:00000000000001bb .LASF104
     /tmp/ccmCh4nE.s:4113   .debug_str:00000000000002e5 .LASF105
     /tmp/ccmCh4nE.s:4081   .debug_str:00000000000001ff .LASF106
     /tmp/ccmCh4nE.s:4173   .debug_str:0000000000000498 .LASF107
     /tmp/ccmCh4nE.s:4127   .debug_str:0000000000000333 .LASF108
     /tmp/ccmCh4nE.s:4013   .debug_str:0000000000000005 .LASF109
     /tmp/ccmCh4nE.s:4281   .debug_str:0000000000000823 .LASF110
     /tmp/ccmCh4nE.s:4315   .debug_str:0000000000000920 .LASF111
     /tmp/ccmCh4nE.s:4273   .debug_str:000000000000073f .LASF112
     /tmp/ccmCh4nE.s:4213   .debug_str:00000000000005b8 .LASF113
     /tmp/ccmCh4nE.s:4303   .debug_str:00000000000008c8 .LASF165
     /tmp/ccmCh4nE.s:4311   .debug_str:0000000000000904 .LASF114
     /tmp/ccmCh4nE.s:4299   .debug_str:00000000000008bd .LASF115
GAS LISTING /tmp/ccmCh4nE.s 			page 34


     /tmp/ccmCh4nE.s:4229   .debug_str:000000000000061d .LASF116
     /tmp/ccmCh4nE.s:1042   .text:00000000000003d0 .LFB38
     /tmp/ccmCh4nE.s:1082   .text:00000000000003f8 .LFE38
     /tmp/ccmCh4nE.s:4119   .debug_str:00000000000002fd .LASF123
     /tmp/ccmCh4nE.s:4137   .debug_str:0000000000000375 .LASF117
     /tmp/ccmCh4nE.s:4191   .debug_str:0000000000000523 .LASF119
     /tmp/ccmCh4nE.s:995    .text:00000000000003a4 .LFB37
     /tmp/ccmCh4nE.s:1036   .text:00000000000003d0 .LFE37
     /tmp/ccmCh4nE.s:4219   .debug_str:00000000000005d7 .LASF118
     /tmp/ccmCh4nE.s:4199   .debug_str:0000000000000560 .LASF120
     /tmp/ccmCh4nE.s:970    .text:0000000000000388 .LFB36
     /tmp/ccmCh4nE.s:989    .text:00000000000003a4 .LFE36
     /tmp/ccmCh4nE.s:4153   .debug_str:00000000000003f9 .LASF121
     /tmp/ccmCh4nE.s:4261   .debug_str:00000000000006ff .LASF122
     /tmp/ccmCh4nE.s:924    .text:0000000000000360 .LFB35
     /tmp/ccmCh4nE.s:964    .text:0000000000000388 .LFE35
     /tmp/ccmCh4nE.s:4169   .debug_str:0000000000000482 .LASF124
     /tmp/ccmCh4nE.s:4117   .debug_str:00000000000002f8 .LASF125
     /tmp/ccmCh4nE.s:4309   .debug_str:00000000000008fb .LASF126
     /tmp/ccmCh4nE.s:877    .text:0000000000000334 .LFB34
     /tmp/ccmCh4nE.s:918    .text:0000000000000360 .LFE34
     /tmp/ccmCh4nE.s:4319   .debug_str:000000000000093a .LASF127
     /tmp/ccmCh4nE.s:4023   .debug_str:0000000000000069 .LASF128
     /tmp/ccmCh4nE.s:817    .text:0000000000000300 .LFB33
     /tmp/ccmCh4nE.s:871    .text:0000000000000334 .LFE33
     /tmp/ccmCh4nE.s:4341   .debug_str:00000000000009ef .LASF129
     /tmp/ccmCh4nE.s:3644   .debug_loc:0000000000000000 .LLST25
     /tmp/ccmCh4nE.s:4197   .debug_str:0000000000000554 .LASF130
     /tmp/ccmCh4nE.s:4339   .debug_str:00000000000009da .LASF131
     /tmp/ccmCh4nE.s:762    .text:00000000000002d0 .LFB32
     /tmp/ccmCh4nE.s:811    .text:0000000000000300 .LFE32
     /tmp/ccmCh4nE.s:3658   .debug_loc:0000000000000039 .LLST24
     /tmp/ccmCh4nE.s:4109   .debug_str:00000000000002d4 .LASF132
     /tmp/ccmCh4nE.s:4177   .debug_str:00000000000004ac .LASF133
     /tmp/ccmCh4nE.s:707    .text:00000000000002a0 .LFB31
     /tmp/ccmCh4nE.s:756    .text:00000000000002d0 .LFE31
     /tmp/ccmCh4nE.s:3672   .debug_loc:0000000000000072 .LLST23
     /tmp/ccmCh4nE.s:4243   .debug_str:0000000000000666 .LASF134
     /tmp/ccmCh4nE.s:4149   .debug_str:00000000000003dc .LASF135
     /tmp/ccmCh4nE.s:652    .text:0000000000000270 .LFB30
     /tmp/ccmCh4nE.s:701    .text:00000000000002a0 .LFE30
     /tmp/ccmCh4nE.s:3686   .debug_loc:00000000000000ab .LLST22
     /tmp/ccmCh4nE.s:4207   .debug_str:0000000000000581 .LASF136
     /tmp/ccmCh4nE.s:4195   .debug_str:0000000000000542 .LASF137
     /tmp/ccmCh4nE.s:597    .text:0000000000000240 .LFB29
     /tmp/ccmCh4nE.s:646    .text:0000000000000270 .LFE29
     /tmp/ccmCh4nE.s:3700   .debug_loc:00000000000000e4 .LLST21
     /tmp/ccmCh4nE.s:4295   .debug_str:00000000000008ac .LASF138
     /tmp/ccmCh4nE.s:4275   .debug_str:0000000000000744 .LASF139
     /tmp/ccmCh4nE.s:537    .text:000000000000020c .LFB28
     /tmp/ccmCh4nE.s:591    .text:0000000000000240 .LFE28
     /tmp/ccmCh4nE.s:3714   .debug_loc:000000000000011d .LLST20
     /tmp/ccmCh4nE.s:4205   .debug_str:000000000000057c .LASF140
     /tmp/ccmCh4nE.s:4065   .debug_str:0000000000000196 .LASF141
     /tmp/ccmCh4nE.s:4031   .debug_str:00000000000000a6 .LASF142
     /tmp/ccmCh4nE.s:499    .text:00000000000001e8 .LFB27
     /tmp/ccmCh4nE.s:531    .text:000000000000020c .LFE27
GAS LISTING /tmp/ccmCh4nE.s 			page 35


     /tmp/ccmCh4nE.s:4193   .debug_str:0000000000000534 .LASF143
     /tmp/ccmCh4nE.s:4317   .debug_str:0000000000000927 .LASF144
     /tmp/ccmCh4nE.s:453    .text:00000000000001c0 .LFB26
     /tmp/ccmCh4nE.s:493    .text:00000000000001e8 .LFE26
     /tmp/ccmCh4nE.s:4251   .debug_str:0000000000000699 .LASF145
     /tmp/ccmCh4nE.s:406    .text:0000000000000194 .LFB25
     /tmp/ccmCh4nE.s:447    .text:00000000000001c0 .LFE25
     /tmp/ccmCh4nE.s:4307   .debug_str:00000000000008eb .LASF146
     /tmp/ccmCh4nE.s:4161   .debug_str:000000000000043b .LASF147
     /tmp/ccmCh4nE.s:368    .text:0000000000000170 .LFB24
     /tmp/ccmCh4nE.s:400    .text:0000000000000194 .LFE24
     /tmp/ccmCh4nE.s:4283   .debug_str:0000000000000835 .LASF148
     /tmp/ccmCh4nE.s:4093   .debug_str:0000000000000261 .LASF149
     /tmp/ccmCh4nE.s:252    .text:00000000000000f0 .LFB23
     /tmp/ccmCh4nE.s:362    .text:0000000000000170 .LFE23
     /tmp/ccmCh4nE.s:3728   .debug_loc:0000000000000156 .LLST12
     /tmp/ccmCh4nE.s:4131   .debug_str:000000000000034f .LASF150
     /tmp/ccmCh4nE.s:3750   .debug_loc:00000000000001b5 .LLST13
     /tmp/ccmCh4nE.s:3772   .debug_loc:0000000000000214 .LLST14
     /tmp/ccmCh4nE.s:3794   .debug_loc:0000000000000273 .LLST15
     /tmp/ccmCh4nE.s:4203   .debug_str:0000000000000577 .LASF151
     /tmp/ccmCh4nE.s:3805   .debug_loc:00000000000002a9 .LLST16
     /tmp/ccmCh4nE.s:3812   .debug_loc:00000000000002cc .LLST17
     /tmp/ccmCh4nE.s:4163   .debug_str:0000000000000450 .LASF152
     /tmp/ccmCh4nE.s:3819   .debug_loc:00000000000002ef .LLST18
     /tmp/ccmCh4nE.s:3826   .debug_loc:0000000000000312 .LLST19
     /tmp/ccmCh4nE.s:278    .text:0000000000000124 .LVL24
     /tmp/ccmCh4nE.s:4143   .debug_str:00000000000003a3 .LASF153
     /tmp/ccmCh4nE.s:127    .text:000000000000006c .LFB22
     /tmp/ccmCh4nE.s:246    .text:00000000000000f0 .LFE22
     /tmp/ccmCh4nE.s:3834   .debug_loc:0000000000000336 .LLST2
     /tmp/ccmCh4nE.s:3856   .debug_loc:0000000000000395 .LLST3
     /tmp/ccmCh4nE.s:3878   .debug_loc:00000000000003f4 .LLST4
     /tmp/ccmCh4nE.s:3900   .debug_loc:0000000000000453 .LLST5
     /tmp/ccmCh4nE.s:4095   .debug_str:0000000000000282 .LASF154
     /tmp/ccmCh4nE.s:3914   .debug_loc:000000000000048c .LLST6
     /tmp/ccmCh4nE.s:3928   .debug_loc:00000000000004c5 .LLST7
     /tmp/ccmCh4nE.s:3939   .debug_loc:00000000000004fb .LLST8
     /tmp/ccmCh4nE.s:3946   .debug_loc:000000000000051e .LLST9
     /tmp/ccmCh4nE.s:3953   .debug_loc:0000000000000541 .LLST10
     /tmp/ccmCh4nE.s:3960   .debug_loc:0000000000000564 .LLST11
     /tmp/ccmCh4nE.s:162    .text:00000000000000a4 .LVL10
     /tmp/ccmCh4nE.s:4105   .debug_str:00000000000002b8 .LASF155
     /tmp/ccmCh4nE.s:72     .text:000000000000003c .LFB21
     /tmp/ccmCh4nE.s:121    .text:000000000000006c .LFE21
     /tmp/ccmCh4nE.s:3968   .debug_loc:0000000000000588 .LLST1
     /tmp/ccmCh4nE.s:4107   .debug_str:00000000000002c6 .LASF156
     /tmp/ccmCh4nE.s:10     .text:0000000000000000 .LFB20
     /tmp/ccmCh4nE.s:66     .text:000000000000003c .LFE20
     /tmp/ccmCh4nE.s:3982   .debug_loc:00000000000005c1 .LLST0
     /tmp/ccmCh4nE.s:28     .text:0000000000000018 .LVL2
     /tmp/ccmCh4nE.s:820    .text:0000000000000300 .LVL57
     /tmp/ccmCh4nE.s:859    .text:0000000000000324 .LVL59
     /tmp/ccmCh4nE.s:765    .text:00000000000002d0 .LVL54
     /tmp/ccmCh4nE.s:799    .text:00000000000002f0 .LVL56
     /tmp/ccmCh4nE.s:710    .text:00000000000002a0 .LVL51
     /tmp/ccmCh4nE.s:744    .text:00000000000002c0 .LVL53
GAS LISTING /tmp/ccmCh4nE.s 			page 36


     /tmp/ccmCh4nE.s:655    .text:0000000000000270 .LVL48
     /tmp/ccmCh4nE.s:689    .text:0000000000000290 .LVL50
     /tmp/ccmCh4nE.s:600    .text:0000000000000240 .LVL45
     /tmp/ccmCh4nE.s:634    .text:0000000000000260 .LVL47
     /tmp/ccmCh4nE.s:540    .text:000000000000020c .LVL42
     /tmp/ccmCh4nE.s:579    .text:0000000000000230 .LVL44
     /tmp/ccmCh4nE.s:255    .text:00000000000000f0 .LVL22
     /tmp/ccmCh4nE.s:276    .text:000000000000011c .LVL23
     /tmp/ccmCh4nE.s:344    .text:0000000000000158 .LVL31
     /tmp/ccmCh4nE.s:354    .text:0000000000000168 .LVL34
     /tmp/ccmCh4nE.s:347    .text:000000000000015c .LVL32
     /tmp/ccmCh4nE.s:350    .text:0000000000000160 .LVL33
     /tmp/ccmCh4nE.s:329    .text:0000000000000148 .LVL29
     /tmp/ccmCh4nE.s:359    .text:000000000000016c .LVL35
     /tmp/ccmCh4nE.s:288    .text:000000000000012c .LVL25
     /tmp/ccmCh4nE.s:332    .text:000000000000014c .LVL30
     /tmp/ccmCh4nE.s:295    .text:0000000000000130 .LVL26
     /tmp/ccmCh4nE.s:302    .text:0000000000000134 .LVL27
     /tmp/ccmCh4nE.s:309    .text:0000000000000138 .LVL28
     /tmp/ccmCh4nE.s:130    .text:000000000000006c .LVL7
     /tmp/ccmCh4nE.s:160    .text:000000000000009c .LVL9
     /tmp/ccmCh4nE.s:228    .text:00000000000000d8 .LVL17
     /tmp/ccmCh4nE.s:238    .text:00000000000000e8 .LVL20
     /tmp/ccmCh4nE.s:231    .text:00000000000000dc .LVL18
     /tmp/ccmCh4nE.s:234    .text:00000000000000e0 .LVL19
     /tmp/ccmCh4nE.s:149    .text:0000000000000094 .LVL8
     /tmp/ccmCh4nE.s:213    .text:00000000000000c8 .LVL15
     /tmp/ccmCh4nE.s:243    .text:00000000000000ec .LVL21
     /tmp/ccmCh4nE.s:172    .text:00000000000000ac .LVL11
     /tmp/ccmCh4nE.s:216    .text:00000000000000cc .LVL16
     /tmp/ccmCh4nE.s:179    .text:00000000000000b0 .LVL12
     /tmp/ccmCh4nE.s:186    .text:00000000000000b4 .LVL13
     /tmp/ccmCh4nE.s:193    .text:00000000000000b8 .LVL14
     /tmp/ccmCh4nE.s:75     .text:000000000000003c .LVL4
     /tmp/ccmCh4nE.s:109    .text:000000000000005c .LVL6
     /tmp/ccmCh4nE.s:14     .text:0000000000000000 .LVL0
     /tmp/ccmCh4nE.s:1093   .debug_info:0000000000000000 .Ldebug_info0

UNDEFINED SYMBOLS
_ZN15MemoryAllocator18transferToNumBlockEm
