GAS LISTING /tmp/cc5DduZP.s 			page 1


   1              		.file	"tcb.cpp"
   2              		.option pic
   3              		.option norelax
   4              		.text
   5              	.Ltext0:
   6              		.align	2
   7              		.globl	_ZN3TCB13threadWrapperEv
   9              	_ZN3TCB13threadWrapperEv:
  10              	.LFB40:
  11              		.file 1 "src/tcb.cpp"
   1:src/tcb.cpp   **** 
   2:src/tcb.cpp   **** #include "../h/tcb.hpp"
   3:src/tcb.cpp   **** #include "../h/riscv.hpp"
   4:src/tcb.cpp   **** #include "../test/printing.hpp"
   5:src/tcb.cpp   **** TCB *TCB::running = nullptr;
   6:src/tcb.cpp   **** uint64 TCB::timeSliceCounter = 0;
   7:src/tcb.cpp   **** int TCB::ID=0;
   8:src/tcb.cpp   **** Semaphore* TCB::semMaxThreads=nullptr;
   9:src/tcb.cpp   **** 
  10:src/tcb.cpp   **** TCB *TCB::createThread(Body body1 , void* arg, void* stack_space, TCB* parnt)
  11:src/tcb.cpp   **** {
  12:src/tcb.cpp   ****     return (TCB*) new TCB(body1, arg, (uint64*) stack_space, DEFAULT_TIME_SLICE,parnt);
  13:src/tcb.cpp   **** }
  14:src/tcb.cpp   **** 
  15:src/tcb.cpp   **** 
  16:src/tcb.cpp   **** int TCB::thread_exit(){
  17:src/tcb.cpp   ****     TCB::running->setFinished(true);
  18:src/tcb.cpp   ****     if(semMaxThreads!=nullptr){
  19:src/tcb.cpp   ****         TCB::semMaxThreads->signal();
  20:src/tcb.cpp   ****     }
  21:src/tcb.cpp   ****     TCB::dispatch();
  22:src/tcb.cpp   ****     return 0;
  23:src/tcb.cpp   **** }
  24:src/tcb.cpp   **** 
  25:src/tcb.cpp   **** int TCB::getThreadId(){
  26:src/tcb.cpp   ****     int id = TCB::running->idThread;
  27:src/tcb.cpp   ****     return id;
  28:src/tcb.cpp   **** }
  29:src/tcb.cpp   **** 
  30:src/tcb.cpp   **** void TCB::dispatch()
  31:src/tcb.cpp   **** {
  32:src/tcb.cpp   **** 
  33:src/tcb.cpp   ****     TCB *old = running;
  34:src/tcb.cpp   ****     if(old->pingFlag==true){
  35:src/tcb.cpp   ****         printString("Nit ");
  36:src/tcb.cpp   ****         printInt(old->idThread);
  37:src/tcb.cpp   ****         printString("je pingovana!; Broj alociranih blokova je: ");
  38:src/tcb.cpp   ****         printInt(old->numOfBlocks);
  39:src/tcb.cpp   ****         printString("\n");
  40:src/tcb.cpp   ****     }
  41:src/tcb.cpp   ****     old->numOfBlocks=0;
  42:src/tcb.cpp   ****     if(!old->isBlocked()) {
  43:src/tcb.cpp   ****         if (!old->isFinished()) {
  44:src/tcb.cpp   ****             Scheduler::put(old);
  45:src/tcb.cpp   ****         }
  46:src/tcb.cpp   ****         else{
  47:src/tcb.cpp   ****             delete old;
GAS LISTING /tmp/cc5DduZP.s 			page 2


  48:src/tcb.cpp   ****         }
  49:src/tcb.cpp   ****     }
  50:src/tcb.cpp   ****     running = Scheduler::get();
  51:src/tcb.cpp   ****     TCB::contextSwitch(&old->context, &running->context);
  52:src/tcb.cpp   **** 
  53:src/tcb.cpp   **** }
  54:src/tcb.cpp   **** 
  55:src/tcb.cpp   **** void TCB::threadWrapper()
  56:src/tcb.cpp   **** {
  12              		.loc 1 56 1
  13              		.cfi_startproc
  14 0000 130101FE 		addi	sp,sp,-32
  15              		.cfi_def_cfa_offset 32
  16 0004 233C1100 		sd	ra,24(sp)
  17 0008 23388100 		sd	s0,16(sp)
  18 000c 23349100 		sd	s1,8(sp)
  19              		.cfi_offset 1, -8
  20              		.cfi_offset 8, -16
  21              		.cfi_offset 9, -24
  22 0010 13040102 		addi	s0,sp,32
  23              		.cfi_def_cfa 8, 0
  57:src/tcb.cpp   ****     Riscv::popSppSpie();    //izlazak iz prekidne rutine, ali preko masinske instrukcije
  24              		.loc 1 57 5
  25              		.loc 1 57 22 is_stmt 0
  26 0014 97000000 		call	_ZN5Riscv10popSppSpieEv@plt
  26      E7800000 
  27              	.LVL0:
  58:src/tcb.cpp   ****     if(TCB::semMaxThreads!=nullptr){
  28              		.loc 1 58 5 is_stmt 1
  29              		.loc 1 58 26 is_stmt 0
  30 001c 17050000 		ld	a0,.LANCHOR0
  30      03350500 
  31              		.loc 1 58 5
  32 0024 63060500 		beqz	a0,.L2
  59:src/tcb.cpp   ****        TCB::semMaxThreads->wait();
  33              		.loc 1 59 8 is_stmt 1
  34              		.loc 1 59 32 is_stmt 0
  35 0028 97000000 		call	_ZN9Semaphore4waitEv@plt
  35      E7800000 
  36              	.LVL1:
  37              	.L2:
  60:src/tcb.cpp   ****     }
  61:src/tcb.cpp   **** 
  62:src/tcb.cpp   ****     running->body(running->arg);
  38              		.loc 1 62 5 is_stmt 1
  39              		.loc 1 62 14 is_stmt 0
  40 0030 97040000 		lla	s1,.LANCHOR0
  40      93840400 
  41 0038 83B78400 		ld	a5,8(s1)
  42 003c 03B70700 		ld	a4,0(a5)
  43              		.loc 1 62 18
  44 0040 03B58700 		ld	a0,8(a5)
  45 0044 E7000700 		jalr	a4
  46              	.LVL2:
  63:src/tcb.cpp   ****     if(running->parent!=nullptr){
  47              		.loc 1 63 5 is_stmt 1
  48              		.loc 1 63 17 is_stmt 0
GAS LISTING /tmp/cc5DduZP.s 			page 3


  49 0048 83B68400 		ld	a3,8(s1)
  50 004c 03B78603 		ld	a4,56(a3)
  51              		.loc 1 63 5
  52 0050 630C0700 		beqz	a4,.L3
  64:src/tcb.cpp   ****         if(--running->parent->waitingForChildred==0){
  53              		.loc 1 64 9 is_stmt 1
  54              		.loc 1 64 31 is_stmt 0
  55 0054 83270704 		lw	a5,64(a4)
  56              		.loc 1 64 12
  57 0058 9B87F7FF 		addiw	a5,a5,-1
  58 005c 1B860700 		sext.w	a2,a5
  59              		.loc 1 64 49
  60 0060 2320F704 		sw	a5,64(a4)
  61              		.loc 1 64 9
  62 0064 63080602 		beqz	a2,.L5
  63              	.L3:
  65:src/tcb.cpp   ****             Scheduler::put(running->parent);
  66:src/tcb.cpp   ****         }
  67:src/tcb.cpp   ****     }
  68:src/tcb.cpp   **** 
  69:src/tcb.cpp   ****     running->setFinished(true);//gasimo nit
  64              		.loc 1 69 5 is_stmt 1
  65              	.LVL3:
  66              	.LBB15:
  67              	.LBB16:
  68              		.file 2 "src/../h/tcb.hpp"
   1:src/../h/tcb.hpp **** #ifndef tcb_hpp
   2:src/../h/tcb.hpp **** #define tcb_hpp
   3:src/../h/tcb.hpp **** 
   4:src/../h/tcb.hpp **** #include "scheduler.hpp"
   5:src/../h/tcb.hpp **** #include "../lib/hw.h"
   6:src/../h/tcb.hpp **** #include "syscall_cpp.hpp"
   7:src/../h/tcb.hpp **** class Semaphore;
   8:src/../h/tcb.hpp **** class TCB
   9:src/../h/tcb.hpp **** {
  10:src/../h/tcb.hpp **** public:
  11:src/../h/tcb.hpp ****     ~TCB() { delete[] stack; }
  12:src/../h/tcb.hpp **** 
  13:src/../h/tcb.hpp ****     bool isFinished() const { return finished; }
  14:src/../h/tcb.hpp **** 
  15:src/../h/tcb.hpp ****     void setFinished(bool value) { finished = value; }
  69              		.loc 2 15 36
  70              		.loc 2 15 45 is_stmt 0
  71 0068 97070000 		ld	a5,.LANCHOR0+8
  71      83B70700 
  72 0070 13071000 		li	a4,1
  73 0074 2388E702 		sb	a4,48(a5)
  74              	.LVL4:
  75              	.LBE16:
  76              	.LBE15:
  70:src/tcb.cpp   ****     ::thread_exit();
  77              		.loc 1 70 5 is_stmt 1
  78              		.loc 1 70 18 is_stmt 0
  79 0078 97000000 		call	_Z11thread_exitv@plt
  79      E7800000 
  80              	.LVL5:
  71:src/tcb.cpp   **** }
GAS LISTING /tmp/cc5DduZP.s 			page 4


  81              		.loc 1 71 1
  82 0080 83308101 		ld	ra,24(sp)
  83              		.cfi_remember_state
  84              		.cfi_restore 1
  85 0084 03340101 		ld	s0,16(sp)
  86              		.cfi_restore 8
  87              		.cfi_def_cfa 2, 32
  88 0088 83348100 		ld	s1,8(sp)
  89              		.cfi_restore 9
  90 008c 13010102 		addi	sp,sp,32
  91              		.cfi_def_cfa_offset 0
  92 0090 67800000 		jr	ra
  93              	.L5:
  94              		.cfi_restore_state
  65:src/tcb.cpp   ****         }
  95              		.loc 1 65 13 is_stmt 1
  65:src/tcb.cpp   ****         }
  96              		.loc 1 65 27 is_stmt 0
  97 0094 03B58603 		ld	a0,56(a3)
  98 0098 97000000 		call	_ZN9Scheduler3putEP3TCB@plt
  98      E7800000 
  99              	.LVL6:
 100 00a0 6FF09FFC 		j	.L3
 101              		.cfi_endproc
 102              	.LFE40:
 104              		.align	2
 105              		.globl	_ZN3TCB12createThreadEPFvPvES0_S0_PS_
 107              	_ZN3TCB12createThreadEPFvPvES0_S0_PS_:
 108              	.LFB36:
  11:src/tcb.cpp   ****     return (TCB*) new TCB(body1, arg, (uint64*) stack_space, DEFAULT_TIME_SLICE,parnt);
 109              		.loc 1 11 1 is_stmt 1
 110              		.cfi_startproc
 111              		.cfi_personality 0x9b,DW.ref.__gxx_personality_v0
 112              		.cfi_lsda 0x1b,.LLSDA36
 113              	.LVL7:
 114 00a4 130101FC 		addi	sp,sp,-64
 115              		.cfi_def_cfa_offset 64
 116 00a8 233C1102 		sd	ra,56(sp)
 117 00ac 23388102 		sd	s0,48(sp)
 118 00b0 23349102 		sd	s1,40(sp)
 119 00b4 23302103 		sd	s2,32(sp)
 120 00b8 233C3101 		sd	s3,24(sp)
 121 00bc 23384101 		sd	s4,16(sp)
 122 00c0 23345101 		sd	s5,8(sp)
 123              		.cfi_offset 1, -8
 124              		.cfi_offset 8, -16
 125              		.cfi_offset 9, -24
 126              		.cfi_offset 18, -32
 127              		.cfi_offset 19, -40
 128              		.cfi_offset 20, -48
 129              		.cfi_offset 21, -56
 130 00c4 13040104 		addi	s0,sp,64
 131              		.cfi_def_cfa 8, 0
 132 00c8 93090500 		mv	s3,a0
 133 00cc 938A0500 		mv	s5,a1
 134 00d0 13090600 		mv	s2,a2
 135 00d4 138A0600 		mv	s4,a3
GAS LISTING /tmp/cc5DduZP.s 			page 5


  12:src/tcb.cpp   **** }
 136              		.loc 1 12 5
  12:src/tcb.cpp   **** }
 137              		.loc 1 12 86 is_stmt 0
 138 00d8 13050007 		li	a0,112
 139              	.LVL8:
 140              	.LEHB0:
 141 00dc 97000000 		call	_Znwm@plt
 141      E7800000 
 142              	.LVL9:
 143              	.LEHE0:
 144 00e4 93040500 		mv	s1,a0
 145              	.LVL10:
 146              	.LBB20:
 147              	.LBB21:
  16:src/../h/tcb.hpp **** 
  17:src/../h/tcb.hpp ****     bool isSemClosed() const { return sem_closed; }
  18:src/../h/tcb.hpp **** 
  19:src/../h/tcb.hpp ****     void setSemClosed(bool semClosed) { sem_closed = semClosed;}
  20:src/../h/tcb.hpp **** 
  21:src/../h/tcb.hpp ****     uint64 getMemBlockCnt() {return numOfBlocks;}
  22:src/../h/tcb.hpp **** 
  23:src/../h/tcb.hpp ****     bool isBlocked() const { return blocked; }
  24:src/../h/tcb.hpp **** 
  25:src/../h/tcb.hpp ****     void setBlocked(bool blocked) {TCB::blocked = blocked;}
  26:src/../h/tcb.hpp **** 
  27:src/../h/tcb.hpp **** 
  28:src/../h/tcb.hpp ****     using Body = void (*)(void*);
  29:src/../h/tcb.hpp **** 
  30:src/../h/tcb.hpp ****     const uint64 &getTimeSlice() const  { return timeSlice;}
  31:src/../h/tcb.hpp **** 
  32:src/../h/tcb.hpp ****     //static void blockTCB();    //predaja korutine procesoru, cuvamo kontekst procesora
  33:src/../h/tcb.hpp ****     static void dispatch();     //vrsi promenu kontektsta
  34:src/../h/tcb.hpp ****     static int thread_exit();   //brise nit
  35:src/../h/tcb.hpp ****     static void thread_join(TCB* handle);   //join niti
  36:src/../h/tcb.hpp ****     static TCB* createThread(Body body, void* arg, void* stack_space, TCB* parnet);
  37:src/../h/tcb.hpp ****     static int getThreadId();
  38:src/../h/tcb.hpp ****     static void setJoin();
  39:src/../h/tcb.hpp ****     static void setMaximumThreads(int i);
  40:src/../h/tcb.hpp ****     static char* getMessage();
  41:src/../h/tcb.hpp ****     void putMessage(char* message);
  42:src/../h/tcb.hpp ****     static TCB *running;
  43:src/../h/tcb.hpp ****     static int ID;
  44:src/../h/tcb.hpp ****     static Semaphore* semMaxThreads;
  45:src/../h/tcb.hpp **** private:
  46:src/../h/tcb.hpp ****     explicit TCB(Body body, void* arg1, uint64* stack_space, uint64 timeSlice, TCB* parnt) :
  47:src/../h/tcb.hpp ****             body(body),
  48:src/../h/tcb.hpp ****             arg(arg1),
  49:src/../h/tcb.hpp ****             stack(stack_space),     //inicijalizacija stack-a
  50:src/../h/tcb.hpp ****             context({ (uint64) &threadWrapper,                  //nit koja moze odma da krene da iz
  51:src/../h/tcb.hpp ****                      stack != nullptr ? (uint64) &stack_space[STACK_SIZE] : 0     //stack moze da b
  52:src/../h/tcb.hpp ****                     }),                                                     //na kojoj je kreiran, 
  53:src/../h/tcb.hpp ****             timeSlice(timeSlice),
  54:src/../h/tcb.hpp ****             finished(false),
  55:src/../h/tcb.hpp ****             sem_closed(false),
  56:src/../h/tcb.hpp ****             blocked(false),
  57:src/../h/tcb.hpp ****             idThread(++ID),
GAS LISTING /tmp/cc5DduZP.s 			page 6


  58:src/../h/tcb.hpp ****             parent(parnt!=nullptr?parnt: nullptr),
  59:src/../h/tcb.hpp ****             waitingForChildred(0),
  60:src/../h/tcb.hpp ****             flagMaxThreads(false),
  61:src/../h/tcb.hpp ****             numOfBlocks(0),
  62:src/../h/tcb.hpp ****             pingFlag(false),
  63:src/../h/tcb.hpp ****             message(nullptr)
 148              		.loc 2 63 28
 149 00e8 23303501 		sd	s3,0(a0)
 150 00ec 23345501 		sd	s5,8(a0)
 151 00f0 23382501 		sd	s2,16(a0)
 152 00f4 97070000 		lla	a5,_ZN3TCB13threadWrapperEv
 152      93870700 
 153 00fc 233CF500 		sd	a5,24(a0)
  51:src/../h/tcb.hpp ****                     }),                                                     //na kojoj je kreiran, 
 154              		.loc 2 51 39
 155 0100 63080906 		beqz	s2,.L14
  51:src/../h/tcb.hpp ****                     }),                                                     //na kojoj je kreiran, 
 156              		.loc 2 51 50
 157 0104 37860000 		li	a2,32768
 158 0108 3309C900 		add	s2,s2,a2
 159              	.LVL11:
 160              	.L7:
 161              		.loc 2 63 28
 162 010c 23B02403 		sd	s2,32(s1)
 163 0110 93072000 		li	a5,2
 164 0114 23B4F402 		sd	a5,40(s1)
 165 0118 23880402 		sb	zero,48(s1)
 166 011c A3880402 		sb	zero,49(s1)
 167 0120 23890402 		sb	zero,50(s1)
  57:src/../h/tcb.hpp ****             parent(parnt!=nullptr?parnt: nullptr),
 168              		.loc 2 57 22
 169 0124 17070000 		lla	a4,.LANCHOR0
 169      13070700 
 170 012c 83270701 		lw	a5,16(a4)
 171 0130 9B871700 		addiw	a5,a5,1
 172              		.loc 2 63 28
 173 0134 2328F700 		sw	a5,16(a4)
 174 0138 23AAF402 		sw	a5,52(s1)
 175 013c 23BC4403 		sd	s4,56(s1)
 176 0140 23A00404 		sw	zero,64(s1)
 177 0144 23820404 		sb	zero,68(s1)
 178 0148 23B40404 		sd	zero,72(s1)
 179 014c 23880404 		sb	zero,80(s1)
 180 0150 23BC0404 		sd	zero,88(s1)
  64:src/../h/tcb.hpp ****     {
  65:src/../h/tcb.hpp ****         if(running==nullptr){
 181              		.loc 2 65 9 is_stmt 1
 182              		.loc 2 65 19 is_stmt 0
 183 0154 83378700 		ld	a5,8(a4)
 184              		.loc 2 65 9
 185 0158 63800702 		beqz	a5,.L19
 186              	.L8:
  66:src/../h/tcb.hpp ****             running=this;
  67:src/../h/tcb.hpp ****         }
  68:src/../h/tcb.hpp ****         if (body != nullptr) { Scheduler::put(this); }
 187              		.loc 2 68 9 is_stmt 1
 188 015c 63840902 		beqz	s3,.L9
GAS LISTING /tmp/cc5DduZP.s 			page 7


 189              		.loc 2 68 32
 190              		.loc 2 68 46 is_stmt 0
 191 0160 13850400 		mv	a0,s1
 192              	.LEHB1:
 193 0164 97000000 		call	_ZN9Scheduler3putEP3TCB@plt
 193      E7800000 
 194              	.LVL12:
 195 016c 6F008001 		j	.L9
 196              	.LVL13:
 197              	.L14:
  51:src/../h/tcb.hpp ****                     }),                                                     //na kojoj je kreiran, 
 198              		.loc 2 51 39
 199 0170 13090000 		li	s2,0
 200              	.LVL14:
 201 0174 6FF09FF9 		j	.L7
 202              	.L19:
  66:src/../h/tcb.hpp ****             running=this;
 203              		.loc 2 66 13 is_stmt 1
  66:src/../h/tcb.hpp ****             running=this;
 204              		.loc 2 66 20 is_stmt 0
 205 0178 97070000 		sd	s1,.LANCHOR0+8,a5
 205      23B09700 
 206 0180 6FF0DFFD 		j	.L8
 207              	.LVL15:
 208              	.L9:
  69:src/../h/tcb.hpp ****         if(parent!= nullptr){
 209              		.loc 2 69 9 is_stmt 1
 210              		.loc 2 69 12 is_stmt 0
 211 0184 83B78403 		ld	a5,56(s1)
 212              		.loc 2 69 9
 213 0188 63880704 		beqz	a5,.L6
  70:src/../h/tcb.hpp ****             parent->waitingForChildred++;
 214              		.loc 2 70 13 is_stmt 1
 215              		.loc 2 70 21 is_stmt 0
 216 018c 03A70704 		lw	a4,64(a5)
 217              		.loc 2 70 39
 218 0190 1B071700 		addiw	a4,a4,1
 219 0194 23A0E704 		sw	a4,64(a5)
  71:src/../h/tcb.hpp ****             spaceAvail = new Semaphore(1);
 220              		.loc 2 71 13 is_stmt 1
 221              		.loc 2 71 41 is_stmt 0
 222 0198 13050002 		li	a0,32
 223 019c 97000000 		call	_Znwm@plt
 223      E7800000 
 224              	.LVL16:
 225              	.LEHE1:
 226 01a4 13090500 		mv	s2,a0
 227 01a8 93051000 		li	a1,1
 228              	.LEHB2:
 229 01ac 97000000 		call	_ZN9SemaphoreC1Ej@plt
 229      E7800000 
 230              	.LVL17:
 231              	.LEHE2:
 232              		.loc 2 71 24
 233 01b4 23B02407 		sd	s2,96(s1)
  72:src/../h/tcb.hpp ****             itemAvail = new Semaphore(0);
 234              		.loc 2 72 13 is_stmt 1
GAS LISTING /tmp/cc5DduZP.s 			page 8


 235              		.loc 2 72 40 is_stmt 0
 236 01b8 13050002 		li	a0,32
 237              	.LEHB3:
 238 01bc 97000000 		call	_Znwm@plt
 238      E7800000 
 239              	.LVL18:
 240              	.LEHE3:
 241 01c4 13090500 		mv	s2,a0
 242 01c8 93050000 		li	a1,0
 243              	.LEHB4:
 244 01cc 97000000 		call	_ZN9SemaphoreC1Ej@plt
 244      E7800000 
 245              	.LVL19:
 246              	.LEHE4:
 247              		.loc 2 72 23
 248 01d4 23B42407 		sd	s2,104(s1)
 249              	.LVL20:
 250              	.L6:
 251              	.LBE21:
 252              	.LBE20:
  13:src/tcb.cpp   **** 
 253              		.loc 1 13 1
 254 01d8 13850400 		mv	a0,s1
 255 01dc 83308103 		ld	ra,56(sp)
 256              		.cfi_remember_state
 257              		.cfi_restore 1
 258 01e0 03340103 		ld	s0,48(sp)
 259              		.cfi_restore 8
 260              		.cfi_def_cfa 2, 64
 261 01e4 83348102 		ld	s1,40(sp)
 262              		.cfi_restore 9
 263 01e8 03390102 		ld	s2,32(sp)
 264              		.cfi_restore 18
 265 01ec 83398101 		ld	s3,24(sp)
 266              		.cfi_restore 19
 267              	.LVL21:
 268 01f0 033A0101 		ld	s4,16(sp)
 269              		.cfi_restore 20
 270              	.LVL22:
 271 01f4 833A8100 		ld	s5,8(sp)
 272              		.cfi_restore 21
 273              	.LVL23:
 274 01f8 13010104 		addi	sp,sp,64
 275              		.cfi_def_cfa_offset 0
 276 01fc 67800000 		jr	ra
 277              	.LVL24:
 278              	.L17:
 279              		.cfi_restore_state
 280 0200 93090500 		mv	s3,a0
 281              	.LVL25:
 282              	.LBB24:
 283              	.LBB22:
  71:src/../h/tcb.hpp ****             spaceAvail = new Semaphore(1);
 284              		.loc 2 71 41
 285 0204 13050900 		mv	a0,s2
 286 0208 97000000 		call	_ZdlPv@plt
 286      E7800000 
GAS LISTING /tmp/cc5DduZP.s 			page 9


 287              	.LVL26:
 288              	.L12:
 289              	.LBE22:
 290              	.LBE24:
  12:src/tcb.cpp   **** }
 291              		.loc 1 12 86 discriminator 1
 292 0210 13850400 		mv	a0,s1
 293 0214 97000000 		call	_ZdlPv@plt
 293      E7800000 
 294              	.LVL27:
 295 021c 13850900 		mv	a0,s3
 296              	.LEHB5:
 297 0220 97000000 		call	_Unwind_Resume@plt
 297      E7800000 
 298              	.LVL28:
 299              	.LEHE5:
 300              	.L16:
 301 0228 93090500 		mv	s3,a0
 302              	.LVL29:
 303              	.LBB25:
 304              	.LBB23:
 305              		.loc 2 72 40
 306 022c 13050900 		mv	a0,s2
 307 0230 97000000 		call	_ZdlPv@plt
 307      E7800000 
 308              	.LVL30:
 309 0238 6FF09FFD 		j	.L12
 310              	.LVL31:
 311              	.L15:
 312 023c 93090500 		mv	s3,a0
 313              	.LVL32:
 314 0240 6FF01FFD 		j	.L12
 315              	.LBE23:
 316              	.LBE25:
 317              		.cfi_endproc
 318              	.LFE36:
 319              		.globl	__gxx_personality_v0
 320              		.section	.gcc_except_table,"a",@progbits
 321              	.LLSDA36:
 322 0000 FF       		.byte	0xff
 323 0001 FF       		.byte	0xff
 324 0002 03       		.byte	0x3
 325 0003 4E       		.byte	0x4e
 326 0004 00000000 		.4byte	.LEHB0-.LFB36
 327 0008 00000000 		.4byte	.LEHE0-.LEHB0
 328 000c 00000000 		.4byte	0
 329 0010 00       		.byte	0
 330 0011 00000000 		.4byte	.LEHB1-.LFB36
 331 0015 00000000 		.4byte	.LEHE1-.LEHB1
 332 0019 00000000 		.4byte	.L15-.LFB36
 333 001d 00       		.byte	0
 334 001e 00000000 		.4byte	.LEHB2-.LFB36
 335 0022 00000000 		.4byte	.LEHE2-.LEHB2
 336 0026 00000000 		.4byte	.L17-.LFB36
 337 002a 00       		.byte	0
 338 002b 00000000 		.4byte	.LEHB3-.LFB36
 339 002f 00000000 		.4byte	.LEHE3-.LEHB3
GAS LISTING /tmp/cc5DduZP.s 			page 10


 340 0033 00000000 		.4byte	.L15-.LFB36
 341 0037 00       		.byte	0
 342 0038 00000000 		.4byte	.LEHB4-.LFB36
 343 003c 00000000 		.4byte	.LEHE4-.LEHB4
 344 0040 00000000 		.4byte	.L16-.LFB36
 345 0044 00       		.byte	0
 346 0045 00000000 		.4byte	.LEHB5-.LFB36
 347 0049 00000000 		.4byte	.LEHE5-.LEHB5
 348 004d 00000000 		.4byte	0
 349 0051 00       		.byte	0
 350              		.text
 352              		.align	2
 353              		.globl	_ZN3TCB11getThreadIdEv
 355              	_ZN3TCB11getThreadIdEv:
 356              	.LFB38:
  25:src/tcb.cpp   ****     int id = TCB::running->idThread;
 357              		.loc 1 25 23 is_stmt 1
 358              		.cfi_startproc
 359 0244 130101FF 		addi	sp,sp,-16
 360              		.cfi_def_cfa_offset 16
 361 0248 23348100 		sd	s0,8(sp)
 362              		.cfi_offset 8, -8
 363 024c 13040101 		addi	s0,sp,16
 364              		.cfi_def_cfa 8, 0
  26:src/tcb.cpp   ****     return id;
 365              		.loc 1 26 5
 366              	.LVL33:
  27:src/tcb.cpp   **** }
 367              		.loc 1 27 5
  28:src/tcb.cpp   **** 
 368              		.loc 1 28 1 is_stmt 0
 369 0250 97070000 		ld	a5,.LANCHOR0+8
 369      83B70700 
 370 0258 03A54703 		lw	a0,52(a5)
 371 025c 03348100 		ld	s0,8(sp)
 372              		.cfi_restore 8
 373              		.cfi_def_cfa 2, 16
 374 0260 13010101 		addi	sp,sp,16
 375              		.cfi_def_cfa_offset 0
 376 0264 67800000 		jr	ra
 377              		.cfi_endproc
 378              	.LFE38:
 380              		.section	.rodata.str1.8,"aMS",@progbits,1
 381              		.align	3
 382              	.LC0:
 383 0000 4E697420 		.string	"Nit "
 383      00
 384 0005 000000   		.align	3
 385              	.LC1:
 386 0008 6A652070 		.string	"je pingovana!; Broj alociranih blokova je: "
 386      696E676F 
 386      76616E61 
 386      213B2042 
 386      726F6A20 
 387 0034 00000000 		.align	3
 388              	.LC2:
 389 0038 0A00     		.string	"\n"
GAS LISTING /tmp/cc5DduZP.s 			page 11


 390              		.text
 391              		.align	2
 392              		.globl	_ZN3TCB8dispatchEv
 394              	_ZN3TCB8dispatchEv:
 395              	.LFB39:
  31:src/tcb.cpp   **** 
 396              		.loc 1 31 1 is_stmt 1
 397              		.cfi_startproc
 398 0268 130101FE 		addi	sp,sp,-32
 399              		.cfi_def_cfa_offset 32
 400 026c 233C1100 		sd	ra,24(sp)
 401 0270 23388100 		sd	s0,16(sp)
 402 0274 23349100 		sd	s1,8(sp)
 403              		.cfi_offset 1, -8
 404              		.cfi_offset 8, -16
 405              		.cfi_offset 9, -24
 406 0278 13040102 		addi	s0,sp,32
 407              		.cfi_def_cfa 8, 0
  33:src/tcb.cpp   ****     if(old->pingFlag==true){
 408              		.loc 1 33 5
  33:src/tcb.cpp   ****     if(old->pingFlag==true){
 409              		.loc 1 33 10 is_stmt 0
 410 027c 97040000 		ld	s1,.LANCHOR0+8
 410      83B40400 
 411              	.LVL34:
  34:src/tcb.cpp   ****         printString("Nit ");
 412              		.loc 1 34 5 is_stmt 1
  34:src/tcb.cpp   ****         printString("Nit ");
 413              		.loc 1 34 13 is_stmt 0
 414 0284 83C70405 		lbu	a5,80(s1)
  34:src/tcb.cpp   ****         printString("Nit ");
 415              		.loc 1 34 5
 416 0288 63960706 		bnez	a5,.L28
 417              	.L23:
  41:src/tcb.cpp   ****     if(!old->isBlocked()) {
 418              		.loc 1 41 5 is_stmt 1
  41:src/tcb.cpp   ****     if(!old->isBlocked()) {
 419              		.loc 1 41 21 is_stmt 0
 420 028c 23B40404 		sd	zero,72(s1)
  42:src/tcb.cpp   ****         if (!old->isFinished()) {
 421              		.loc 1 42 5 is_stmt 1
 422              	.LVL35:
 423              	.LBB26:
 424              	.LBB27:
  23:src/../h/tcb.hpp **** 
 425              		.loc 2 23 30
  23:src/../h/tcb.hpp **** 
 426              		.loc 2 23 37 is_stmt 0
 427 0290 83C72403 		lbu	a5,50(s1)
 428              	.LVL36:
 429              	.LBE27:
 430              	.LBE26:
  42:src/tcb.cpp   ****         if (!old->isFinished()) {
 431              		.loc 1 42 5
 432 0294 63960702 		bnez	a5,.L24
  43:src/tcb.cpp   ****             Scheduler::put(old);
 433              		.loc 1 43 9 is_stmt 1
GAS LISTING /tmp/cc5DduZP.s 			page 12


 434              	.LVL37:
 435              	.LBB28:
 436              	.LBB29:
  13:src/../h/tcb.hpp **** 
 437              		.loc 2 13 31
  13:src/../h/tcb.hpp **** 
 438              		.loc 2 13 38 is_stmt 0
 439 0298 83C70403 		lbu	a5,48(s1)
 440              	.LVL38:
 441              	.LBE29:
 442              	.LBE28:
  43:src/tcb.cpp   ****             Scheduler::put(old);
 443              		.loc 1 43 9
 444 029c 638A070A 		beqz	a5,.L29
  47:src/tcb.cpp   ****         }
 445              		.loc 1 47 13 is_stmt 1
  47:src/tcb.cpp   ****         }
 446              		.loc 1 47 23 is_stmt 0
 447 02a0 63800402 		beqz	s1,.L24
 448              	.LVL39:
 449              	.LBB30:
 450              	.LBB31:
  11:src/../h/tcb.hpp **** 
 451              		.loc 2 11 14 is_stmt 1
  11:src/../h/tcb.hpp **** 
 452              		.loc 2 11 23 is_stmt 0
 453 02a4 03B50401 		ld	a0,16(s1)
  11:src/../h/tcb.hpp **** 
 454              		.loc 2 11 28
 455 02a8 63060500 		beqz	a0,.L26
  11:src/../h/tcb.hpp **** 
 456              		.loc 2 11 23
 457 02ac 97000000 		call	_ZdaPv@plt
 457      E7800000 
 458              	.LVL40:
 459              	.L26:
 460              	.LBE31:
 461              	.LBE30:
  47:src/tcb.cpp   ****         }
 462              		.loc 1 47 20
 463 02b4 13850400 		mv	a0,s1
 464 02b8 97000000 		call	_ZdlPv@plt
 464      E7800000 
 465              	.LVL41:
 466              	.L24:
  50:src/tcb.cpp   ****     TCB::contextSwitch(&old->context, &running->context);
 467              		.loc 1 50 5 is_stmt 1
  50:src/tcb.cpp   ****     TCB::contextSwitch(&old->context, &running->context);
 468              		.loc 1 50 29 is_stmt 0
 469 02c0 97000000 		call	_ZN9Scheduler3getEv@plt
 469      E7800000 
 470              	.LVL42:
  50:src/tcb.cpp   ****     TCB::contextSwitch(&old->context, &running->context);
 471              		.loc 1 50 13
 472 02c8 97070000 		sd	a0,.LANCHOR0+8,a5
 472      23B0A700 
  51:src/tcb.cpp   **** 
GAS LISTING /tmp/cc5DduZP.s 			page 13


 473              		.loc 1 51 5 is_stmt 1
  51:src/tcb.cpp   **** 
 474              		.loc 1 51 23 is_stmt 0
 475 02d0 93058501 		addi	a1,a0,24
 476 02d4 13858401 		addi	a0,s1,24
 477 02d8 97000000 		call	_ZN3TCB13contextSwitchEPNS_7ContextES1_@plt
 477      E7800000 
 478              	.LVL43:
  53:src/tcb.cpp   **** 
 479              		.loc 1 53 1
 480 02e0 83308101 		ld	ra,24(sp)
 481              		.cfi_remember_state
 482              		.cfi_restore 1
 483 02e4 03340101 		ld	s0,16(sp)
 484              		.cfi_restore 8
 485              		.cfi_def_cfa 2, 32
 486 02e8 83348100 		ld	s1,8(sp)
 487              		.cfi_restore 9
 488              	.LVL44:
 489 02ec 13010102 		addi	sp,sp,32
 490              		.cfi_def_cfa_offset 0
 491 02f0 67800000 		jr	ra
 492              	.LVL45:
 493              	.L28:
 494              		.cfi_restore_state
  35:src/tcb.cpp   ****         printInt(old->idThread);
 495              		.loc 1 35 9 is_stmt 1
  35:src/tcb.cpp   ****         printInt(old->idThread);
 496              		.loc 1 35 20 is_stmt 0
 497 02f4 17050000 		lla	a0,.LC0
 497      13050500 
 498 02fc 97000000 		call	_Z11printStringPKc@plt
 498      E7800000 
 499              	.LVL46:
  36:src/tcb.cpp   ****         printString("je pingovana!; Broj alociranih blokova je: ");
 500              		.loc 1 36 9 is_stmt 1
  36:src/tcb.cpp   ****         printString("je pingovana!; Broj alociranih blokova je: ");
 501              		.loc 1 36 17 is_stmt 0
 502 0304 13060000 		li	a2,0
 503 0308 9305A000 		li	a1,10
 504 030c 03A54403 		lw	a0,52(s1)
 505 0310 97000000 		call	_Z8printIntiii@plt
 505      E7800000 
 506              	.LVL47:
  37:src/tcb.cpp   ****         printInt(old->numOfBlocks);
 507              		.loc 1 37 9 is_stmt 1
  37:src/tcb.cpp   ****         printInt(old->numOfBlocks);
 508              		.loc 1 37 20 is_stmt 0
 509 0318 17050000 		lla	a0,.LC1
 509      13050500 
 510 0320 97000000 		call	_Z11printStringPKc@plt
 510      E7800000 
 511              	.LVL48:
  38:src/tcb.cpp   ****         printString("\n");
 512              		.loc 1 38 9 is_stmt 1
  38:src/tcb.cpp   ****         printString("\n");
 513              		.loc 1 38 17 is_stmt 0
GAS LISTING /tmp/cc5DduZP.s 			page 14


 514 0328 13060000 		li	a2,0
 515 032c 9305A000 		li	a1,10
 516 0330 03A58404 		lw	a0,72(s1)
 517 0334 97000000 		call	_Z8printIntiii@plt
 517      E7800000 
 518              	.LVL49:
  39:src/tcb.cpp   ****     }
 519              		.loc 1 39 9 is_stmt 1
  39:src/tcb.cpp   ****     }
 520              		.loc 1 39 20 is_stmt 0
 521 033c 17050000 		lla	a0,.LC2
 521      13050500 
 522 0344 97000000 		call	_Z11printStringPKc@plt
 522      E7800000 
 523              	.LVL50:
 524 034c 6FF01FF4 		j	.L23
 525              	.L29:
  44:src/tcb.cpp   ****         }
 526              		.loc 1 44 13 is_stmt 1
  44:src/tcb.cpp   ****         }
 527              		.loc 1 44 27 is_stmt 0
 528 0350 13850400 		mv	a0,s1
 529 0354 97000000 		call	_ZN9Scheduler3putEP3TCB@plt
 529      E7800000 
 530              	.LVL51:
 531 035c 6FF05FF6 		j	.L24
 532              		.cfi_endproc
 533              	.LFE39:
 535              		.align	2
 536              		.globl	_ZN3TCB11thread_exitEv
 538              	_ZN3TCB11thread_exitEv:
 539              	.LFB37:
  16:src/tcb.cpp   ****     TCB::running->setFinished(true);
 540              		.loc 1 16 23 is_stmt 1
 541              		.cfi_startproc
 542 0360 130101FF 		addi	sp,sp,-16
 543              		.cfi_def_cfa_offset 16
 544 0364 23341100 		sd	ra,8(sp)
 545 0368 23308100 		sd	s0,0(sp)
 546              		.cfi_offset 1, -8
 547              		.cfi_offset 8, -16
 548 036c 13040101 		addi	s0,sp,16
 549              		.cfi_def_cfa 8, 0
  17:src/tcb.cpp   ****     if(semMaxThreads!=nullptr){
 550              		.loc 1 17 5
  17:src/tcb.cpp   ****     if(semMaxThreads!=nullptr){
 551              		.loc 1 17 30 is_stmt 0
 552 0370 97070000 		lla	a5,.LANCHOR0
 552      93870700 
 553 0378 03B78700 		ld	a4,8(a5)
 554              	.LVL52:
 555              	.LBB32:
 556              	.LBB33:
  15:src/../h/tcb.hpp **** 
 557              		.loc 2 15 36 is_stmt 1
  15:src/../h/tcb.hpp **** 
 558              		.loc 2 15 45 is_stmt 0
GAS LISTING /tmp/cc5DduZP.s 			page 15


 559 037c 93061000 		li	a3,1
 560 0380 2308D702 		sb	a3,48(a4)
 561              	.LVL53:
 562              	.LBE33:
 563              	.LBE32:
  18:src/tcb.cpp   ****         TCB::semMaxThreads->signal();
 564              		.loc 1 18 5 is_stmt 1
  18:src/tcb.cpp   ****         TCB::semMaxThreads->signal();
 565              		.loc 1 18 21 is_stmt 0
 566 0384 03B50700 		ld	a0,0(a5)
  18:src/tcb.cpp   ****         TCB::semMaxThreads->signal();
 567              		.loc 1 18 5
 568 0388 63060500 		beqz	a0,.L31
  19:src/tcb.cpp   ****     }
 569              		.loc 1 19 9 is_stmt 1
  19:src/tcb.cpp   ****     }
 570              		.loc 1 19 35 is_stmt 0
 571 038c 97000000 		call	_ZN9Semaphore6signalEv@plt
 571      E7800000 
 572              	.LVL54:
 573              	.L31:
  21:src/tcb.cpp   ****     return 0;
 574              		.loc 1 21 5 is_stmt 1
  21:src/tcb.cpp   ****     return 0;
 575              		.loc 1 21 18 is_stmt 0
 576 0394 97000000 		call	_ZN3TCB8dispatchEv
 576      E7800000 
 577              	.LVL55:
  22:src/tcb.cpp   **** }
 578              		.loc 1 22 5 is_stmt 1
  23:src/tcb.cpp   **** 
 579              		.loc 1 23 1 is_stmt 0
 580 039c 13050000 		li	a0,0
 581 03a0 83308100 		ld	ra,8(sp)
 582              		.cfi_restore 1
 583 03a4 03340100 		ld	s0,0(sp)
 584              		.cfi_restore 8
 585              		.cfi_def_cfa 2, 16
 586 03a8 13010101 		addi	sp,sp,16
 587              		.cfi_def_cfa_offset 0
 588 03ac 67800000 		jr	ra
 589              		.cfi_endproc
 590              	.LFE37:
 592              		.align	2
 593              		.globl	_ZN3TCB11thread_joinEPS_
 595              	_ZN3TCB11thread_joinEPS_:
 596              	.LFB41:
  72:src/tcb.cpp   **** 
  73:src/tcb.cpp   **** void TCB::thread_join(TCB *handle) {
 597              		.loc 1 73 36 is_stmt 1
 598              		.cfi_startproc
 599              	.LVL56:
 600 03b0 130101FE 		addi	sp,sp,-32
 601              		.cfi_def_cfa_offset 32
 602 03b4 233C1100 		sd	ra,24(sp)
 603 03b8 23388100 		sd	s0,16(sp)
 604 03bc 23349100 		sd	s1,8(sp)
GAS LISTING /tmp/cc5DduZP.s 			page 16


 605              		.cfi_offset 1, -8
 606              		.cfi_offset 8, -16
 607              		.cfi_offset 9, -24
 608 03c0 13040102 		addi	s0,sp,32
 609              		.cfi_def_cfa 8, 0
 610 03c4 93040500 		mv	s1,a0
 611              	.LVL57:
 612              	.L35:
  74:src/tcb.cpp   ****     while(!handle->isFinished())
 613              		.loc 1 74 5
 614              		.loc 1 74 11
 615              	.LBB34:
 616              	.LBB35:
  13:src/../h/tcb.hpp **** 
 617              		.loc 2 13 31
  13:src/../h/tcb.hpp **** 
 618              		.loc 2 13 38 is_stmt 0
 619 03c8 83C70403 		lbu	a5,48(s1)
 620              	.LVL58:
 621              	.LBE35:
 622              	.LBE34:
 623              		.loc 1 74 11
 624 03cc 63980700 		bnez	a5,.L33
  75:src/tcb.cpp   ****         TCB::dispatch();
 625              		.loc 1 75 9 is_stmt 1
 626              		.loc 1 75 22 is_stmt 0
 627 03d0 97000000 		call	_ZN3TCB8dispatchEv
 627      E7800000 
 628              	.LVL59:
  74:src/tcb.cpp   ****     while(!handle->isFinished())
 629              		.loc 1 74 5
 630 03d8 6FF01FFF 		j	.L35
 631              	.L33:
  76:src/tcb.cpp   **** }
 632              		.loc 1 76 1
 633 03dc 83308101 		ld	ra,24(sp)
 634              		.cfi_restore 1
 635 03e0 03340101 		ld	s0,16(sp)
 636              		.cfi_restore 8
 637              		.cfi_def_cfa 2, 32
 638 03e4 83348100 		ld	s1,8(sp)
 639              		.cfi_restore 9
 640              	.LVL60:
 641 03e8 13010102 		addi	sp,sp,32
 642              		.cfi_def_cfa_offset 0
 643 03ec 67800000 		jr	ra
 644              		.cfi_endproc
 645              	.LFE41:
 647              		.align	2
 648              		.globl	_ZN3TCB7setJoinEv
 650              	_ZN3TCB7setJoinEv:
 651              	.LFB42:
  77:src/tcb.cpp   **** 
  78:src/tcb.cpp   **** void TCB::setJoin() {
 652              		.loc 1 78 21 is_stmt 1
 653              		.cfi_startproc
 654 03f0 130101FE 		addi	sp,sp,-32
GAS LISTING /tmp/cc5DduZP.s 			page 17


 655              		.cfi_def_cfa_offset 32
 656 03f4 233C1100 		sd	ra,24(sp)
 657 03f8 23388100 		sd	s0,16(sp)
 658 03fc 23349100 		sd	s1,8(sp)
 659 0400 23302101 		sd	s2,0(sp)
 660              		.cfi_offset 1, -8
 661              		.cfi_offset 8, -16
 662              		.cfi_offset 9, -24
 663              		.cfi_offset 18, -32
 664 0404 13040102 		addi	s0,sp,32
 665              		.cfi_def_cfa 8, 0
  79:src/tcb.cpp   ****     TCB *old = running;
 666              		.loc 1 79 5
 667              		.loc 1 79 10 is_stmt 0
 668 0408 97040000 		lla	s1,.LANCHOR0
 668      93840400 
 669 0410 03B98400 		ld	s2,8(s1)
 670              	.LVL61:
  80:src/tcb.cpp   ****     running = Scheduler::get();
 671              		.loc 1 80 5 is_stmt 1
 672              		.loc 1 80 29 is_stmt 0
 673 0414 97000000 		call	_ZN9Scheduler3getEv@plt
 673      E7800000 
 674              	.LVL62:
 675              		.loc 1 80 13
 676 041c 23B4A400 		sd	a0,8(s1)
  81:src/tcb.cpp   ****     TCB::contextSwitch(&old->context, &running->context);
 677              		.loc 1 81 5 is_stmt 1
 678              		.loc 1 81 23 is_stmt 0
 679 0420 93058501 		addi	a1,a0,24
 680 0424 13058901 		addi	a0,s2,24
 681 0428 97000000 		call	_ZN3TCB13contextSwitchEPNS_7ContextES1_@plt
 681      E7800000 
 682              	.LVL63:
  82:src/tcb.cpp   **** }
 683              		.loc 1 82 1
 684 0430 83308101 		ld	ra,24(sp)
 685              		.cfi_restore 1
 686 0434 03340101 		ld	s0,16(sp)
 687              		.cfi_restore 8
 688              		.cfi_def_cfa 2, 32
 689 0438 83348100 		ld	s1,8(sp)
 690              		.cfi_restore 9
 691 043c 03390100 		ld	s2,0(sp)
 692              		.cfi_restore 18
 693              	.LVL64:
 694 0440 13010102 		addi	sp,sp,32
 695              		.cfi_def_cfa_offset 0
 696 0444 67800000 		jr	ra
 697              		.cfi_endproc
 698              	.LFE42:
 700              		.align	2
 701              		.globl	_ZN3TCB17setMaximumThreadsEi
 703              	_ZN3TCB17setMaximumThreadsEi:
 704              	.LFB43:
  83:src/tcb.cpp   **** 
  84:src/tcb.cpp   **** void TCB::setMaximumThreads(int i){
GAS LISTING /tmp/cc5DduZP.s 			page 18


 705              		.loc 1 84 35 is_stmt 1
 706              		.cfi_startproc
 707              		.cfi_personality 0x9b,DW.ref.__gxx_personality_v0
 708              		.cfi_lsda 0x1b,.LLSDA43
 709              	.LVL65:
 710 0448 130101FE 		addi	sp,sp,-32
 711              		.cfi_def_cfa_offset 32
 712 044c 233C1100 		sd	ra,24(sp)
 713 0450 23388100 		sd	s0,16(sp)
 714 0454 23349100 		sd	s1,8(sp)
 715 0458 23302101 		sd	s2,0(sp)
 716              		.cfi_offset 1, -8
 717              		.cfi_offset 8, -16
 718              		.cfi_offset 9, -24
 719              		.cfi_offset 18, -32
 720 045c 13040102 		addi	s0,sp,32
 721              		.cfi_def_cfa 8, 0
 722 0460 13090500 		mv	s2,a0
  85:src/tcb.cpp   ****     running->flagMaxThreads=true;
 723              		.loc 1 85 5
 724              		.loc 1 85 28 is_stmt 0
 725 0464 97070000 		ld	a5,.LANCHOR0+8
 725      83B70700 
 726 046c 13071000 		li	a4,1
 727 0470 2382E704 		sb	a4,68(a5)
  86:src/tcb.cpp   ****     semMaxThreads = new Semaphore(i);
 728              		.loc 1 86 5 is_stmt 1
 729              		.loc 1 86 36 is_stmt 0
 730 0474 13050002 		li	a0,32
 731              	.LVL66:
 732              	.LEHB6:
 733 0478 97000000 		call	_Znwm@plt
 733      E7800000 
 734              	.LVL67:
 735              	.LEHE6:
 736 0480 93040500 		mv	s1,a0
 737 0484 93050900 		mv	a1,s2
 738              	.LEHB7:
 739 0488 97000000 		call	_ZN9SemaphoreC1Ej@plt
 739      E7800000 
 740              	.LVL68:
 741              	.LEHE7:
 742              		.loc 1 86 19 discriminator 2
 743 0490 97070000 		sd	s1,.LANCHOR0,a5
 743      23B09700 
  87:src/tcb.cpp   **** }
 744              		.loc 1 87 1 discriminator 2
 745 0498 83308101 		ld	ra,24(sp)
 746              		.cfi_remember_state
 747              		.cfi_restore 1
 748 049c 03340101 		ld	s0,16(sp)
 749              		.cfi_restore 8
 750              		.cfi_def_cfa 2, 32
 751 04a0 83348100 		ld	s1,8(sp)
 752              		.cfi_restore 9
 753 04a4 03390100 		ld	s2,0(sp)
 754              		.cfi_restore 18
GAS LISTING /tmp/cc5DduZP.s 			page 19


 755 04a8 13010102 		addi	sp,sp,32
 756              		.cfi_def_cfa_offset 0
 757 04ac 67800000 		jr	ra
 758              	.L41:
 759              		.cfi_restore_state
 760 04b0 13090500 		mv	s2,a0
  86:src/tcb.cpp   ****     semMaxThreads = new Semaphore(i);
 761              		.loc 1 86 36
 762 04b4 13850400 		mv	a0,s1
 763 04b8 97000000 		call	_ZdlPv@plt
 763      E7800000 
 764              	.LVL69:
 765 04c0 13050900 		mv	a0,s2
 766              	.LEHB8:
 767 04c4 97000000 		call	_Unwind_Resume@plt
 767      E7800000 
 768              	.LVL70:
 769              	.LEHE8:
 770              		.cfi_endproc
 771              	.LFE43:
 772              		.section	.gcc_except_table
 773              	.LLSDA43:
 774 0052 FF       		.byte	0xff
 775 0053 FF       		.byte	0xff
 776 0054 03       		.byte	0x3
 777 0055 27       		.byte	0x27
 778 0056 00000000 		.4byte	.LEHB6-.LFB43
 779 005a 00000000 		.4byte	.LEHE6-.LEHB6
 780 005e 00000000 		.4byte	0
 781 0062 00       		.byte	0
 782 0063 00000000 		.4byte	.LEHB7-.LFB43
 783 0067 00000000 		.4byte	.LEHE7-.LEHB7
 784 006b 00000000 		.4byte	.L41-.LFB43
 785 006f 00       		.byte	0
 786 0070 00000000 		.4byte	.LEHB8-.LFB43
 787 0074 00000000 		.4byte	.LEHE8-.LEHB8
 788 0078 00000000 		.4byte	0
 789 007c 00       		.byte	0
 790              		.text
 792              		.align	2
 793              		.globl	_ZN3TCB10getMessageEv
 795              	_ZN3TCB10getMessageEv:
 796              	.LFB44:
  88:src/tcb.cpp   **** 
  89:src/tcb.cpp   **** char* TCB::getMessage(){
 797              		.loc 1 89 24 is_stmt 1
 798              		.cfi_startproc
 799 04cc 130101FE 		addi	sp,sp,-32
 800              		.cfi_def_cfa_offset 32
 801 04d0 233C1100 		sd	ra,24(sp)
 802 04d4 23388100 		sd	s0,16(sp)
 803 04d8 23349100 		sd	s1,8(sp)
 804              		.cfi_offset 1, -8
 805              		.cfi_offset 8, -16
 806              		.cfi_offset 9, -24
 807 04dc 13040102 		addi	s0,sp,32
 808              		.cfi_def_cfa 8, 0
GAS LISTING /tmp/cc5DduZP.s 			page 20


  90:src/tcb.cpp   ****     running->itemAvail->wait();
 809              		.loc 1 90 5
 810              		.loc 1 90 29 is_stmt 0
 811 04e0 97040000 		lla	s1,.LANCHOR0
 811      93840400 
 812 04e8 83B78400 		ld	a5,8(s1)
 813 04ec 03B58706 		ld	a0,104(a5)
 814 04f0 97000000 		call	_ZN9Semaphore4waitEv@plt
 814      E7800000 
 815              	.LVL71:
  91:src/tcb.cpp   ****     char* mess = running->message;
 816              		.loc 1 91 5 is_stmt 1
 817              		.loc 1 91 27 is_stmt 0
 818 04f8 83B78400 		ld	a5,8(s1)
 819              		.loc 1 91 11
 820 04fc 83B48705 		ld	s1,88(a5)
 821              	.LVL72:
  92:src/tcb.cpp   ****     running->spaceAvail->signal();
 822              		.loc 1 92 5 is_stmt 1
 823              		.loc 1 92 32 is_stmt 0
 824 0500 03B50706 		ld	a0,96(a5)
 825 0504 97000000 		call	_ZN9Semaphore6signalEv@plt
 825      E7800000 
 826              	.LVL73:
  93:src/tcb.cpp   ****     return mess;
 827              		.loc 1 93 5 is_stmt 1
  94:src/tcb.cpp   **** }
 828              		.loc 1 94 1 is_stmt 0
 829 050c 13850400 		mv	a0,s1
 830 0510 83308101 		ld	ra,24(sp)
 831              		.cfi_restore 1
 832 0514 03340101 		ld	s0,16(sp)
 833              		.cfi_restore 8
 834              		.cfi_def_cfa 2, 32
 835 0518 83348100 		ld	s1,8(sp)
 836              		.cfi_restore 9
 837              	.LVL74:
 838 051c 13010102 		addi	sp,sp,32
 839              		.cfi_def_cfa_offset 0
 840 0520 67800000 		jr	ra
 841              		.cfi_endproc
 842              	.LFE44:
 844              		.align	2
 845              		.globl	_ZN3TCB10putMessageEPc
 847              	_ZN3TCB10putMessageEPc:
 848              	.LFB45:
  95:src/tcb.cpp   **** void TCB::putMessage(char* message){
 849              		.loc 1 95 36 is_stmt 1
 850              		.cfi_startproc
 851              	.LVL75:
 852 0524 130101FE 		addi	sp,sp,-32
 853              		.cfi_def_cfa_offset 32
 854 0528 233C1100 		sd	ra,24(sp)
 855 052c 23388100 		sd	s0,16(sp)
 856 0530 23349100 		sd	s1,8(sp)
 857 0534 23302101 		sd	s2,0(sp)
 858              		.cfi_offset 1, -8
GAS LISTING /tmp/cc5DduZP.s 			page 21


 859              		.cfi_offset 8, -16
 860              		.cfi_offset 9, -24
 861              		.cfi_offset 18, -32
 862 0538 13040102 		addi	s0,sp,32
 863              		.cfi_def_cfa 8, 0
 864 053c 93040500 		mv	s1,a0
 865 0540 13890500 		mv	s2,a1
  96:src/tcb.cpp   ****     spaceAvail->wait();
 866              		.loc 1 96 5
 867              		.loc 1 96 21 is_stmt 0
 868 0544 03350506 		ld	a0,96(a0)
 869              	.LVL76:
 870 0548 97000000 		call	_ZN9Semaphore4waitEv@plt
 870      E7800000 
 871              	.LVL77:
  97:src/tcb.cpp   ****     this->message = message;
 872              		.loc 1 97 5 is_stmt 1
 873              		.loc 1 97 19 is_stmt 0
 874 0550 23BC2405 		sd	s2,88(s1)
  98:src/tcb.cpp   ****     itemAvail->signal();
 875              		.loc 1 98 5 is_stmt 1
 876              		.loc 1 98 22 is_stmt 0
 877 0554 03B58406 		ld	a0,104(s1)
 878 0558 97000000 		call	_ZN9Semaphore6signalEv@plt
 878      E7800000 
 879              	.LVL78:
  99:src/tcb.cpp   **** }
 880              		.loc 1 99 1
 881 0560 83308101 		ld	ra,24(sp)
 882              		.cfi_restore 1
 883 0564 03340101 		ld	s0,16(sp)
 884              		.cfi_restore 8
 885              		.cfi_def_cfa 2, 32
 886 0568 83348100 		ld	s1,8(sp)
 887              		.cfi_restore 9
 888              	.LVL79:
 889 056c 03390100 		ld	s2,0(sp)
 890              		.cfi_restore 18
 891              	.LVL80:
 892 0570 13010102 		addi	sp,sp,32
 893              		.cfi_def_cfa_offset 0
 894 0574 67800000 		jr	ra
 895              		.cfi_endproc
 896              	.LFE45:
 898              		.globl	_ZN3TCB13semMaxThreadsE
 899              		.globl	_ZN3TCB2IDE
 900              		.globl	_ZN3TCB16timeSliceCounterE
 901              		.globl	_ZN3TCB7runningE
 902              		.bss
 903              		.align	3
 904              		.set	.LANCHOR0,. + 0
 907              	_ZN3TCB13semMaxThreadsE:
 908 0000 00000000 		.zero	8
 908      00000000 
 911              	_ZN3TCB7runningE:
 912 0008 00000000 		.zero	8
 912      00000000 
GAS LISTING /tmp/cc5DduZP.s 			page 22


 915              	_ZN3TCB2IDE:
 916 0010 00000000 		.zero	4
 917 0014 00000000 		.zero	4
 920              	_ZN3TCB16timeSliceCounterE:
 921 0018 00000000 		.zero	8
 921      00000000 
 922              		.text
 923              	.Letext0:
 924              		.file 3 "src/../h/../lib/hw.h"
 925              		.file 4 "src/../h/queue.hpp"
 926              		.file 5 "src/../h/scheduler.hpp"
 927              		.file 6 "src/../h/syscall_cpp.hpp"
 928              		.file 7 "src/../h/riscv.hpp"
 929              		.file 8 "src/../h/syscall_c.hpp"
 930              		.file 9 "src/../test/printing.hpp"
 4510              		.align	3
 4513              	DW.ref.__gxx_personality_v0:
 4514 0000 00000000 		.dword	__gxx_personality_v0
 4514      00000000 
 4515              		.ident	"GCC: (Ubuntu 9.4.0-1ubuntu1~20.04) 9.4.0"
 4516              		.section	.note.GNU-stack,"",@progbits
GAS LISTING /tmp/cc5DduZP.s 			page 23


DEFINED SYMBOLS
                            *ABS*:0000000000000000 tcb.cpp
     /tmp/cc5DduZP.s:9      .text:0000000000000000 _ZN3TCB13threadWrapperEv
     /tmp/cc5DduZP.s:13     .text:0000000000000000 .L0 
     /tmp/cc5DduZP.s:14     .text:0000000000000000 .L0 
     /tmp/cc5DduZP.s:15     .text:0000000000000004 .L0 
     /tmp/cc5DduZP.s:19     .text:0000000000000010 .L0 
     /tmp/cc5DduZP.s:20     .text:0000000000000010 .L0 
     /tmp/cc5DduZP.s:21     .text:0000000000000010 .L0 
     /tmp/cc5DduZP.s:23     .text:0000000000000014 .L0 
     /tmp/cc5DduZP.s:25     .text:0000000000000014 .L0 
     /tmp/cc5DduZP.s:26     .text:0000000000000014 .L0 
     /tmp/cc5DduZP.s:29     .text:000000000000001c .L0 
     /tmp/cc5DduZP.s:30     .text:000000000000001c .L0 
     /tmp/cc5DduZP.s:32     .text:0000000000000024 .L0 
     /tmp/cc5DduZP.s:34     .text:0000000000000028 .L0 
     /tmp/cc5DduZP.s:35     .text:0000000000000028 .L0 
     /tmp/cc5DduZP.s:39     .text:0000000000000030 .L0 
     /tmp/cc5DduZP.s:40     .text:0000000000000030 .L0 
     /tmp/cc5DduZP.s:44     .text:0000000000000040 .L0 
     /tmp/cc5DduZP.s:48     .text:0000000000000048 .L0 
     /tmp/cc5DduZP.s:49     .text:0000000000000048 .L0 
     /tmp/cc5DduZP.s:52     .text:0000000000000050 .L0 
     /tmp/cc5DduZP.s:54     .text:0000000000000054 .L0 
     /tmp/cc5DduZP.s:55     .text:0000000000000054 .L0 
     /tmp/cc5DduZP.s:57     .text:0000000000000058 .L0 
     /tmp/cc5DduZP.s:60     .text:0000000000000060 .L0 
     /tmp/cc5DduZP.s:62     .text:0000000000000064 .L0 
     /tmp/cc5DduZP.s:69     .text:0000000000000068 .L0 
     /tmp/cc5DduZP.s:70     .text:0000000000000068 .L0 
     /tmp/cc5DduZP.s:71     .text:0000000000000068 .L0 
     /tmp/cc5DduZP.s:78     .text:0000000000000078 .L0 
     /tmp/cc5DduZP.s:79     .text:0000000000000078 .L0 
     /tmp/cc5DduZP.s:82     .text:0000000000000080 .L0 
     /tmp/cc5DduZP.s:83     .text:0000000000000084 .L0 
     /tmp/cc5DduZP.s:84     .text:0000000000000084 .L0 
     /tmp/cc5DduZP.s:86     .text:0000000000000088 .L0 
     /tmp/cc5DduZP.s:87     .text:0000000000000088 .L0 
     /tmp/cc5DduZP.s:89     .text:000000000000008c .L0 
     /tmp/cc5DduZP.s:91     .text:0000000000000090 .L0 
     /tmp/cc5DduZP.s:94     .text:0000000000000094 .L0 
     /tmp/cc5DduZP.s:96     .text:0000000000000094 .L0 
     /tmp/cc5DduZP.s:97     .text:0000000000000094 .L0 
     /tmp/cc5DduZP.s:101    .text:00000000000000a4 .L0 
     /tmp/cc5DduZP.s:107    .text:00000000000000a4 _ZN3TCB12createThreadEPFvPvES0_S0_PS_
     /tmp/cc5DduZP.s:110    .text:00000000000000a4 .L0 
     /tmp/cc5DduZP.s:4513   .data.rel.local.DW.ref.__gxx_personality_v0:0000000000000000 DW.ref.__gxx_personality_v0
     /tmp/cc5DduZP.s:114    .text:00000000000000a4 .L0 
     /tmp/cc5DduZP.s:115    .text:00000000000000a8 .L0 
     /tmp/cc5DduZP.s:123    .text:00000000000000c4 .L0 
     /tmp/cc5DduZP.s:124    .text:00000000000000c4 .L0 
     /tmp/cc5DduZP.s:125    .text:00000000000000c4 .L0 
     /tmp/cc5DduZP.s:126    .text:00000000000000c4 .L0 
     /tmp/cc5DduZP.s:127    .text:00000000000000c4 .L0 
     /tmp/cc5DduZP.s:128    .text:00000000000000c4 .L0 
     /tmp/cc5DduZP.s:129    .text:00000000000000c4 .L0 
     /tmp/cc5DduZP.s:131    .text:00000000000000c8 .L0 
GAS LISTING /tmp/cc5DduZP.s 			page 24


     /tmp/cc5DduZP.s:137    .text:00000000000000d8 .L0 
     /tmp/cc5DduZP.s:138    .text:00000000000000d8 .L0 
     /tmp/cc5DduZP.s:149    .text:00000000000000e8 .L0 
     /tmp/cc5DduZP.s:155    .text:0000000000000100 .L0 
     /tmp/cc5DduZP.s:157    .text:0000000000000104 .L0 
     /tmp/cc5DduZP.s:162    .text:000000000000010c .L0 
     /tmp/cc5DduZP.s:169    .text:0000000000000124 .L0 
     /tmp/cc5DduZP.s:173    .text:0000000000000134 .L0 
     /tmp/cc5DduZP.s:182    .text:0000000000000154 .L0 
     /tmp/cc5DduZP.s:183    .text:0000000000000154 .L0 
     /tmp/cc5DduZP.s:185    .text:0000000000000158 .L0 
     /tmp/cc5DduZP.s:188    .text:000000000000015c .L0 
     /tmp/cc5DduZP.s:190    .text:0000000000000160 .L0 
     /tmp/cc5DduZP.s:191    .text:0000000000000160 .L0 
     /tmp/cc5DduZP.s:199    .text:0000000000000170 .L0 
     /tmp/cc5DduZP.s:204    .text:0000000000000178 .L0 
     /tmp/cc5DduZP.s:205    .text:0000000000000178 .L0 
     /tmp/cc5DduZP.s:210    .text:0000000000000184 .L0 
     /tmp/cc5DduZP.s:211    .text:0000000000000184 .L0 
     /tmp/cc5DduZP.s:213    .text:0000000000000188 .L0 
     /tmp/cc5DduZP.s:215    .text:000000000000018c .L0 
     /tmp/cc5DduZP.s:216    .text:000000000000018c .L0 
     /tmp/cc5DduZP.s:218    .text:0000000000000190 .L0 
     /tmp/cc5DduZP.s:221    .text:0000000000000198 .L0 
     /tmp/cc5DduZP.s:222    .text:0000000000000198 .L0 
     /tmp/cc5DduZP.s:233    .text:00000000000001b4 .L0 
     /tmp/cc5DduZP.s:235    .text:00000000000001b8 .L0 
     /tmp/cc5DduZP.s:236    .text:00000000000001b8 .L0 
     /tmp/cc5DduZP.s:248    .text:00000000000001d4 .L0 
     /tmp/cc5DduZP.s:254    .text:00000000000001d8 .L0 
     /tmp/cc5DduZP.s:256    .text:00000000000001e0 .L0 
     /tmp/cc5DduZP.s:257    .text:00000000000001e0 .L0 
     /tmp/cc5DduZP.s:259    .text:00000000000001e4 .L0 
     /tmp/cc5DduZP.s:260    .text:00000000000001e4 .L0 
     /tmp/cc5DduZP.s:262    .text:00000000000001e8 .L0 
     /tmp/cc5DduZP.s:264    .text:00000000000001ec .L0 
     /tmp/cc5DduZP.s:266    .text:00000000000001f0 .L0 
     /tmp/cc5DduZP.s:269    .text:00000000000001f4 .L0 
     /tmp/cc5DduZP.s:272    .text:00000000000001f8 .L0 
     /tmp/cc5DduZP.s:275    .text:00000000000001fc .L0 
     /tmp/cc5DduZP.s:279    .text:0000000000000200 .L0 
     /tmp/cc5DduZP.s:285    .text:0000000000000204 .L0 
     /tmp/cc5DduZP.s:292    .text:0000000000000210 .L0 
     /tmp/cc5DduZP.s:306    .text:000000000000022c .L0 
     /tmp/cc5DduZP.s:317    .text:0000000000000244 .L0 
     /tmp/cc5DduZP.s:355    .text:0000000000000244 _ZN3TCB11getThreadIdEv
     /tmp/cc5DduZP.s:358    .text:0000000000000244 .L0 
     /tmp/cc5DduZP.s:359    .text:0000000000000244 .L0 
     /tmp/cc5DduZP.s:360    .text:0000000000000248 .L0 
     /tmp/cc5DduZP.s:362    .text:000000000000024c .L0 
     /tmp/cc5DduZP.s:364    .text:0000000000000250 .L0 
     /tmp/cc5DduZP.s:367    .text:0000000000000250 .L0 
     /tmp/cc5DduZP.s:368    .text:0000000000000250 .L0 
     /tmp/cc5DduZP.s:369    .text:0000000000000250 .L0 
     /tmp/cc5DduZP.s:372    .text:0000000000000260 .L0 
     /tmp/cc5DduZP.s:373    .text:0000000000000260 .L0 
     /tmp/cc5DduZP.s:375    .text:0000000000000264 .L0 
GAS LISTING /tmp/cc5DduZP.s 			page 25


     /tmp/cc5DduZP.s:377    .text:0000000000000268 .L0 
     /tmp/cc5DduZP.s:394    .text:0000000000000268 _ZN3TCB8dispatchEv
     /tmp/cc5DduZP.s:397    .text:0000000000000268 .L0 
     /tmp/cc5DduZP.s:398    .text:0000000000000268 .L0 
     /tmp/cc5DduZP.s:399    .text:000000000000026c .L0 
     /tmp/cc5DduZP.s:403    .text:0000000000000278 .L0 
     /tmp/cc5DduZP.s:404    .text:0000000000000278 .L0 
     /tmp/cc5DduZP.s:405    .text:0000000000000278 .L0 
     /tmp/cc5DduZP.s:407    .text:000000000000027c .L0 
     /tmp/cc5DduZP.s:409    .text:000000000000027c .L0 
     /tmp/cc5DduZP.s:410    .text:000000000000027c .L0 
     /tmp/cc5DduZP.s:413    .text:0000000000000284 .L0 
     /tmp/cc5DduZP.s:414    .text:0000000000000284 .L0 
     /tmp/cc5DduZP.s:416    .text:0000000000000288 .L0 
     /tmp/cc5DduZP.s:419    .text:000000000000028c .L0 
     /tmp/cc5DduZP.s:420    .text:000000000000028c .L0 
     /tmp/cc5DduZP.s:425    .text:0000000000000290 .L0 
     /tmp/cc5DduZP.s:426    .text:0000000000000290 .L0 
     /tmp/cc5DduZP.s:427    .text:0000000000000290 .L0 
     /tmp/cc5DduZP.s:432    .text:0000000000000294 .L0 
     /tmp/cc5DduZP.s:437    .text:0000000000000298 .L0 
     /tmp/cc5DduZP.s:438    .text:0000000000000298 .L0 
     /tmp/cc5DduZP.s:439    .text:0000000000000298 .L0 
     /tmp/cc5DduZP.s:444    .text:000000000000029c .L0 
     /tmp/cc5DduZP.s:446    .text:00000000000002a0 .L0 
     /tmp/cc5DduZP.s:447    .text:00000000000002a0 .L0 
     /tmp/cc5DduZP.s:452    .text:00000000000002a4 .L0 
     /tmp/cc5DduZP.s:453    .text:00000000000002a4 .L0 
     /tmp/cc5DduZP.s:455    .text:00000000000002a8 .L0 
     /tmp/cc5DduZP.s:457    .text:00000000000002ac .L0 
     /tmp/cc5DduZP.s:463    .text:00000000000002b4 .L0 
     /tmp/cc5DduZP.s:468    .text:00000000000002c0 .L0 
     /tmp/cc5DduZP.s:469    .text:00000000000002c0 .L0 
     /tmp/cc5DduZP.s:472    .text:00000000000002c8 .L0 
     /tmp/cc5DduZP.s:474    .text:00000000000002d0 .L0 
     /tmp/cc5DduZP.s:475    .text:00000000000002d0 .L0 
     /tmp/cc5DduZP.s:480    .text:00000000000002e0 .L0 
     /tmp/cc5DduZP.s:481    .text:00000000000002e4 .L0 
     /tmp/cc5DduZP.s:482    .text:00000000000002e4 .L0 
     /tmp/cc5DduZP.s:484    .text:00000000000002e8 .L0 
     /tmp/cc5DduZP.s:485    .text:00000000000002e8 .L0 
     /tmp/cc5DduZP.s:487    .text:00000000000002ec .L0 
     /tmp/cc5DduZP.s:490    .text:00000000000002f0 .L0 
     /tmp/cc5DduZP.s:494    .text:00000000000002f4 .L0 
     /tmp/cc5DduZP.s:496    .text:00000000000002f4 .L0 
     /tmp/cc5DduZP.s:497    .text:00000000000002f4 .L0 
     /tmp/cc5DduZP.s:501    .text:0000000000000304 .L0 
     /tmp/cc5DduZP.s:502    .text:0000000000000304 .L0 
     /tmp/cc5DduZP.s:508    .text:0000000000000318 .L0 
     /tmp/cc5DduZP.s:509    .text:0000000000000318 .L0 
     /tmp/cc5DduZP.s:513    .text:0000000000000328 .L0 
     /tmp/cc5DduZP.s:514    .text:0000000000000328 .L0 
     /tmp/cc5DduZP.s:520    .text:000000000000033c .L0 
     /tmp/cc5DduZP.s:521    .text:000000000000033c .L0 
     /tmp/cc5DduZP.s:527    .text:0000000000000350 .L0 
     /tmp/cc5DduZP.s:528    .text:0000000000000350 .L0 
     /tmp/cc5DduZP.s:532    .text:0000000000000360 .L0 
GAS LISTING /tmp/cc5DduZP.s 			page 26


     /tmp/cc5DduZP.s:538    .text:0000000000000360 _ZN3TCB11thread_exitEv
     /tmp/cc5DduZP.s:541    .text:0000000000000360 .L0 
     /tmp/cc5DduZP.s:542    .text:0000000000000360 .L0 
     /tmp/cc5DduZP.s:543    .text:0000000000000364 .L0 
     /tmp/cc5DduZP.s:546    .text:000000000000036c .L0 
     /tmp/cc5DduZP.s:547    .text:000000000000036c .L0 
     /tmp/cc5DduZP.s:549    .text:0000000000000370 .L0 
     /tmp/cc5DduZP.s:551    .text:0000000000000370 .L0 
     /tmp/cc5DduZP.s:552    .text:0000000000000370 .L0 
     /tmp/cc5DduZP.s:558    .text:000000000000037c .L0 
     /tmp/cc5DduZP.s:559    .text:000000000000037c .L0 
     /tmp/cc5DduZP.s:565    .text:0000000000000384 .L0 
     /tmp/cc5DduZP.s:566    .text:0000000000000384 .L0 
     /tmp/cc5DduZP.s:568    .text:0000000000000388 .L0 
     /tmp/cc5DduZP.s:570    .text:000000000000038c .L0 
     /tmp/cc5DduZP.s:571    .text:000000000000038c .L0 
     /tmp/cc5DduZP.s:575    .text:0000000000000394 .L0 
     /tmp/cc5DduZP.s:576    .text:0000000000000394 .L0 
     /tmp/cc5DduZP.s:579    .text:000000000000039c .L0 
     /tmp/cc5DduZP.s:580    .text:000000000000039c .L0 
     /tmp/cc5DduZP.s:582    .text:00000000000003a4 .L0 
     /tmp/cc5DduZP.s:584    .text:00000000000003a8 .L0 
     /tmp/cc5DduZP.s:585    .text:00000000000003a8 .L0 
     /tmp/cc5DduZP.s:587    .text:00000000000003ac .L0 
     /tmp/cc5DduZP.s:589    .text:00000000000003b0 .L0 
     /tmp/cc5DduZP.s:595    .text:00000000000003b0 _ZN3TCB11thread_joinEPS_
     /tmp/cc5DduZP.s:598    .text:00000000000003b0 .L0 
     /tmp/cc5DduZP.s:600    .text:00000000000003b0 .L0 
     /tmp/cc5DduZP.s:601    .text:00000000000003b4 .L0 
     /tmp/cc5DduZP.s:605    .text:00000000000003c0 .L0 
     /tmp/cc5DduZP.s:606    .text:00000000000003c0 .L0 
     /tmp/cc5DduZP.s:607    .text:00000000000003c0 .L0 
     /tmp/cc5DduZP.s:609    .text:00000000000003c4 .L0 
     /tmp/cc5DduZP.s:614    .text:00000000000003c8 .L0 
     /tmp/cc5DduZP.s:617    .text:00000000000003c8 .L0 
     /tmp/cc5DduZP.s:618    .text:00000000000003c8 .L0 
     /tmp/cc5DduZP.s:619    .text:00000000000003c8 .L0 
     /tmp/cc5DduZP.s:624    .text:00000000000003cc .L0 
     /tmp/cc5DduZP.s:626    .text:00000000000003d0 .L0 
     /tmp/cc5DduZP.s:627    .text:00000000000003d0 .L0 
     /tmp/cc5DduZP.s:630    .text:00000000000003d8 .L0 
     /tmp/cc5DduZP.s:633    .text:00000000000003dc .L0 
     /tmp/cc5DduZP.s:634    .text:00000000000003e0 .L0 
     /tmp/cc5DduZP.s:636    .text:00000000000003e4 .L0 
     /tmp/cc5DduZP.s:637    .text:00000000000003e4 .L0 
     /tmp/cc5DduZP.s:639    .text:00000000000003e8 .L0 
     /tmp/cc5DduZP.s:642    .text:00000000000003ec .L0 
     /tmp/cc5DduZP.s:644    .text:00000000000003f0 .L0 
     /tmp/cc5DduZP.s:650    .text:00000000000003f0 _ZN3TCB7setJoinEv
     /tmp/cc5DduZP.s:653    .text:00000000000003f0 .L0 
     /tmp/cc5DduZP.s:654    .text:00000000000003f0 .L0 
     /tmp/cc5DduZP.s:655    .text:00000000000003f4 .L0 
     /tmp/cc5DduZP.s:660    .text:0000000000000404 .L0 
     /tmp/cc5DduZP.s:661    .text:0000000000000404 .L0 
     /tmp/cc5DduZP.s:662    .text:0000000000000404 .L0 
     /tmp/cc5DduZP.s:663    .text:0000000000000404 .L0 
     /tmp/cc5DduZP.s:665    .text:0000000000000408 .L0 
GAS LISTING /tmp/cc5DduZP.s 			page 27


     /tmp/cc5DduZP.s:667    .text:0000000000000408 .L0 
     /tmp/cc5DduZP.s:668    .text:0000000000000408 .L0 
     /tmp/cc5DduZP.s:672    .text:0000000000000414 .L0 
     /tmp/cc5DduZP.s:673    .text:0000000000000414 .L0 
     /tmp/cc5DduZP.s:676    .text:000000000000041c .L0 
     /tmp/cc5DduZP.s:678    .text:0000000000000420 .L0 
     /tmp/cc5DduZP.s:679    .text:0000000000000420 .L0 
     /tmp/cc5DduZP.s:684    .text:0000000000000430 .L0 
     /tmp/cc5DduZP.s:685    .text:0000000000000434 .L0 
     /tmp/cc5DduZP.s:687    .text:0000000000000438 .L0 
     /tmp/cc5DduZP.s:688    .text:0000000000000438 .L0 
     /tmp/cc5DduZP.s:690    .text:000000000000043c .L0 
     /tmp/cc5DduZP.s:692    .text:0000000000000440 .L0 
     /tmp/cc5DduZP.s:695    .text:0000000000000444 .L0 
     /tmp/cc5DduZP.s:697    .text:0000000000000448 .L0 
     /tmp/cc5DduZP.s:703    .text:0000000000000448 _ZN3TCB17setMaximumThreadsEi
     /tmp/cc5DduZP.s:706    .text:0000000000000448 .L0 
     /tmp/cc5DduZP.s:710    .text:0000000000000448 .L0 
     /tmp/cc5DduZP.s:711    .text:000000000000044c .L0 
     /tmp/cc5DduZP.s:716    .text:000000000000045c .L0 
     /tmp/cc5DduZP.s:717    .text:000000000000045c .L0 
     /tmp/cc5DduZP.s:718    .text:000000000000045c .L0 
     /tmp/cc5DduZP.s:719    .text:000000000000045c .L0 
     /tmp/cc5DduZP.s:721    .text:0000000000000460 .L0 
     /tmp/cc5DduZP.s:724    .text:0000000000000464 .L0 
     /tmp/cc5DduZP.s:725    .text:0000000000000464 .L0 
     /tmp/cc5DduZP.s:729    .text:0000000000000474 .L0 
     /tmp/cc5DduZP.s:730    .text:0000000000000474 .L0 
     /tmp/cc5DduZP.s:743    .text:0000000000000490 .L0 
     /tmp/cc5DduZP.s:745    .text:0000000000000498 .L0 
     /tmp/cc5DduZP.s:746    .text:000000000000049c .L0 
     /tmp/cc5DduZP.s:747    .text:000000000000049c .L0 
     /tmp/cc5DduZP.s:749    .text:00000000000004a0 .L0 
     /tmp/cc5DduZP.s:750    .text:00000000000004a0 .L0 
     /tmp/cc5DduZP.s:752    .text:00000000000004a4 .L0 
     /tmp/cc5DduZP.s:754    .text:00000000000004a8 .L0 
     /tmp/cc5DduZP.s:756    .text:00000000000004ac .L0 
     /tmp/cc5DduZP.s:759    .text:00000000000004b0 .L0 
     /tmp/cc5DduZP.s:762    .text:00000000000004b4 .L0 
     /tmp/cc5DduZP.s:770    .text:00000000000004cc .L0 
     /tmp/cc5DduZP.s:795    .text:00000000000004cc _ZN3TCB10getMessageEv
     /tmp/cc5DduZP.s:798    .text:00000000000004cc .L0 
     /tmp/cc5DduZP.s:799    .text:00000000000004cc .L0 
     /tmp/cc5DduZP.s:800    .text:00000000000004d0 .L0 
     /tmp/cc5DduZP.s:804    .text:00000000000004dc .L0 
     /tmp/cc5DduZP.s:805    .text:00000000000004dc .L0 
     /tmp/cc5DduZP.s:806    .text:00000000000004dc .L0 
     /tmp/cc5DduZP.s:808    .text:00000000000004e0 .L0 
     /tmp/cc5DduZP.s:810    .text:00000000000004e0 .L0 
     /tmp/cc5DduZP.s:811    .text:00000000000004e0 .L0 
     /tmp/cc5DduZP.s:817    .text:00000000000004f8 .L0 
     /tmp/cc5DduZP.s:818    .text:00000000000004f8 .L0 
     /tmp/cc5DduZP.s:820    .text:00000000000004fc .L0 
     /tmp/cc5DduZP.s:823    .text:0000000000000500 .L0 
     /tmp/cc5DduZP.s:824    .text:0000000000000500 .L0 
     /tmp/cc5DduZP.s:828    .text:000000000000050c .L0 
     /tmp/cc5DduZP.s:829    .text:000000000000050c .L0 
GAS LISTING /tmp/cc5DduZP.s 			page 28


     /tmp/cc5DduZP.s:831    .text:0000000000000514 .L0 
     /tmp/cc5DduZP.s:833    .text:0000000000000518 .L0 
     /tmp/cc5DduZP.s:834    .text:0000000000000518 .L0 
     /tmp/cc5DduZP.s:836    .text:000000000000051c .L0 
     /tmp/cc5DduZP.s:839    .text:0000000000000520 .L0 
     /tmp/cc5DduZP.s:841    .text:0000000000000524 .L0 
     /tmp/cc5DduZP.s:847    .text:0000000000000524 _ZN3TCB10putMessageEPc
     /tmp/cc5DduZP.s:850    .text:0000000000000524 .L0 
     /tmp/cc5DduZP.s:852    .text:0000000000000524 .L0 
     /tmp/cc5DduZP.s:853    .text:0000000000000528 .L0 
     /tmp/cc5DduZP.s:858    .text:0000000000000538 .L0 
     /tmp/cc5DduZP.s:859    .text:0000000000000538 .L0 
     /tmp/cc5DduZP.s:860    .text:0000000000000538 .L0 
     /tmp/cc5DduZP.s:861    .text:0000000000000538 .L0 
     /tmp/cc5DduZP.s:863    .text:000000000000053c .L0 
     /tmp/cc5DduZP.s:867    .text:0000000000000544 .L0 
     /tmp/cc5DduZP.s:868    .text:0000000000000544 .L0 
     /tmp/cc5DduZP.s:873    .text:0000000000000550 .L0 
     /tmp/cc5DduZP.s:874    .text:0000000000000550 .L0 
     /tmp/cc5DduZP.s:876    .text:0000000000000554 .L0 
     /tmp/cc5DduZP.s:877    .text:0000000000000554 .L0 
     /tmp/cc5DduZP.s:881    .text:0000000000000560 .L0 
     /tmp/cc5DduZP.s:882    .text:0000000000000564 .L0 
     /tmp/cc5DduZP.s:884    .text:0000000000000568 .L0 
     /tmp/cc5DduZP.s:885    .text:0000000000000568 .L0 
     /tmp/cc5DduZP.s:887    .text:000000000000056c .L0 
     /tmp/cc5DduZP.s:890    .text:0000000000000570 .L0 
     /tmp/cc5DduZP.s:893    .text:0000000000000574 .L0 
     /tmp/cc5DduZP.s:895    .text:0000000000000578 .L0 
     /tmp/cc5DduZP.s:907    .bss:0000000000000000 _ZN3TCB13semMaxThreadsE
     /tmp/cc5DduZP.s:915    .bss:0000000000000010 _ZN3TCB2IDE
     /tmp/cc5DduZP.s:920    .bss:0000000000000018 _ZN3TCB16timeSliceCounterE
     /tmp/cc5DduZP.s:911    .bss:0000000000000008 _ZN3TCB7runningE
     /tmp/cc5DduZP.s:904    .bss:0000000000000000 .LANCHOR0
     /tmp/cc5DduZP.s:931    .text:0000000000000578 .L0 
     /tmp/cc5DduZP.s:30     .text:000000000000001c .L0 
     /tmp/cc5DduZP.s:40     .text:0000000000000030 .L0 
     /tmp/cc5DduZP.s:71     .text:0000000000000068 .L0 
     /tmp/cc5DduZP.s:152    .text:00000000000000f4 .L0 
     /tmp/cc5DduZP.s:169    .text:0000000000000124 .L0 
     /tmp/cc5DduZP.s:205    .text:0000000000000178 .L0 
     /tmp/cc5DduZP.s:369    .text:0000000000000250 .L0 
     /tmp/cc5DduZP.s:410    .text:000000000000027c .L0 
     /tmp/cc5DduZP.s:472    .text:00000000000002c8 .L0 
     /tmp/cc5DduZP.s:382    .rodata.str1.8:0000000000000000 .LC0
     /tmp/cc5DduZP.s:497    .text:00000000000002f4 .L0 
     /tmp/cc5DduZP.s:385    .rodata.str1.8:0000000000000008 .LC1
     /tmp/cc5DduZP.s:509    .text:0000000000000318 .L0 
     /tmp/cc5DduZP.s:388    .rodata.str1.8:0000000000000038 .LC2
     /tmp/cc5DduZP.s:521    .text:000000000000033c .L0 
     /tmp/cc5DduZP.s:552    .text:0000000000000370 .L0 
     /tmp/cc5DduZP.s:668    .text:0000000000000408 .L0 
     /tmp/cc5DduZP.s:725    .text:0000000000000464 .L0 
     /tmp/cc5DduZP.s:743    .text:0000000000000490 .L0 
     /tmp/cc5DduZP.s:811    .text:00000000000004e0 .L0 
     /tmp/cc5DduZP.s:37     .text:0000000000000030 .L2
     /tmp/cc5DduZP.s:63     .text:0000000000000068 .L3
GAS LISTING /tmp/cc5DduZP.s 			page 29


     /tmp/cc5DduZP.s:93     .text:0000000000000094 .L5
     /tmp/cc5DduZP.s:197    .text:0000000000000170 .L14
     /tmp/cc5DduZP.s:202    .text:0000000000000178 .L19
     /tmp/cc5DduZP.s:208    .text:0000000000000184 .L9
     /tmp/cc5DduZP.s:160    .text:000000000000010c .L7
     /tmp/cc5DduZP.s:186    .text:000000000000015c .L8
     /tmp/cc5DduZP.s:250    .text:00000000000001d8 .L6
     /tmp/cc5DduZP.s:288    .text:0000000000000210 .L12
     /tmp/cc5DduZP.s:493    .text:00000000000002f4 .L28
     /tmp/cc5DduZP.s:466    .text:00000000000002c0 .L24
     /tmp/cc5DduZP.s:525    .text:0000000000000350 .L29
     /tmp/cc5DduZP.s:459    .text:00000000000002b4 .L26
     /tmp/cc5DduZP.s:417    .text:000000000000028c .L23
     /tmp/cc5DduZP.s:573    .text:0000000000000394 .L31
     /tmp/cc5DduZP.s:631    .text:00000000000003dc .L33
     /tmp/cc5DduZP.s:612    .text:00000000000003c8 .L35
     /tmp/cc5DduZP.s:140    .text:00000000000000dc .LEHB0
     /tmp/cc5DduZP.s:108    .text:00000000000000a4 .LFB36
     /tmp/cc5DduZP.s:143    .text:00000000000000e4 .LEHE0
     /tmp/cc5DduZP.s:192    .text:0000000000000164 .LEHB1
     /tmp/cc5DduZP.s:225    .text:00000000000001a4 .LEHE1
     /tmp/cc5DduZP.s:311    .text:000000000000023c .L15
     /tmp/cc5DduZP.s:228    .text:00000000000001ac .LEHB2
     /tmp/cc5DduZP.s:231    .text:00000000000001b4 .LEHE2
     /tmp/cc5DduZP.s:278    .text:0000000000000200 .L17
     /tmp/cc5DduZP.s:237    .text:00000000000001bc .LEHB3
     /tmp/cc5DduZP.s:240    .text:00000000000001c4 .LEHE3
     /tmp/cc5DduZP.s:243    .text:00000000000001cc .LEHB4
     /tmp/cc5DduZP.s:246    .text:00000000000001d4 .LEHE4
     /tmp/cc5DduZP.s:300    .text:0000000000000228 .L16
     /tmp/cc5DduZP.s:296    .text:0000000000000220 .LEHB5
     /tmp/cc5DduZP.s:299    .text:0000000000000228 .LEHE5
     /tmp/cc5DduZP.s:732    .text:0000000000000478 .LEHB6
     /tmp/cc5DduZP.s:704    .text:0000000000000448 .LFB43
     /tmp/cc5DduZP.s:735    .text:0000000000000480 .LEHE6
     /tmp/cc5DduZP.s:738    .text:0000000000000488 .LEHB7
     /tmp/cc5DduZP.s:741    .text:0000000000000490 .LEHE7
     /tmp/cc5DduZP.s:758    .text:00000000000004b0 .L41
     /tmp/cc5DduZP.s:766    .text:00000000000004c4 .LEHB8
     /tmp/cc5DduZP.s:769    .text:00000000000004cc .LEHE8
     /tmp/cc5DduZP.s:2684   .debug_abbrev:0000000000000000 .Ldebug_abbrev0
     /tmp/cc5DduZP.s:4437   .debug_str:00000000000007bb .LASF164
     /tmp/cc5DduZP.s:4265   .debug_str:0000000000000324 .LASF165
     /tmp/cc5DduZP.s:4369   .debug_str:0000000000000605 .LASF166
     /tmp/cc5DduZP.s:5      .text:0000000000000000 .Ltext0
     /tmp/cc5DduZP.s:923    .text:0000000000000578 .Letext0
     /tmp/cc5DduZP.s:4159   .debug_line:0000000000000000 .Ldebug_line0
     /tmp/cc5DduZP.s:4267   .debug_str:0000000000000330 .LASF0
     /tmp/cc5DduZP.s:4297   .debug_str:0000000000000420 .LASF1
     /tmp/cc5DduZP.s:4379   .debug_str:000000000000065b .LASF2
     /tmp/cc5DduZP.s:4389   .debug_str:000000000000069b .LASF4
     /tmp/cc5DduZP.s:4279   .debug_str:000000000000037f .LASF3
     /tmp/cc5DduZP.s:4171   .debug_str:000000000000004e .LASF5
     /tmp/cc5DduZP.s:4349   .debug_str:0000000000000563 .LASF6
     /tmp/cc5DduZP.s:4287   .debug_str:00000000000003e4 .LASF7
     /tmp/cc5DduZP.s:4239   .debug_str:0000000000000251 .LASF8
     /tmp/cc5DduZP.s:4249   .debug_str:00000000000002ae .LASF9
GAS LISTING /tmp/cc5DduZP.s 			page 30


     /tmp/cc5DduZP.s:4189   .debug_str:00000000000000d1 .LASF10
     /tmp/cc5DduZP.s:4231   .debug_str:000000000000021f .LASF11
     /tmp/cc5DduZP.s:4199   .debug_str:0000000000000114 .LASF12
     /tmp/cc5DduZP.s:4187   .debug_str:00000000000000c1 .LASF13
     /tmp/cc5DduZP.s:4419   .debug_str:0000000000000763 .LASF14
     /tmp/cc5DduZP.s:4215   .debug_str:0000000000000177 .LASF15
     /tmp/cc5DduZP.s:4405   .debug_str:00000000000006f2 .LASF16
     /tmp/cc5DduZP.s:4385   .debug_str:000000000000068b .LASF19
     /tmp/cc5DduZP.s:4291   .debug_str:000000000000040a .LASF17
     /tmp/cc5DduZP.s:4191   .debug_str:00000000000000e0 .LASF18
     /tmp/cc5DduZP.s:4423   .debug_str:0000000000000776 .LASF20
     /tmp/cc5DduZP.s:4391   .debug_str:00000000000006a2 .LASF21
     /tmp/cc5DduZP.s:4167   .debug_str:0000000000000038 .LASF23
     /tmp/cc5DduZP.s:4425   .debug_str:000000000000077e .LASF25
     /tmp/cc5DduZP.s:4325   .debug_str:00000000000004d8 .LASF27
     /tmp/cc5DduZP.s:4177   .debug_str:0000000000000071 .LASF22
     /tmp/cc5DduZP.s:4455   .debug_str:0000000000000926 .LASF24
     /tmp/cc5DduZP.s:4243   .debug_str:0000000000000273 .LASF26
     /tmp/cc5DduZP.s:4493   .debug_str:0000000000000a2b .LASF28
     /tmp/cc5DduZP.s:4367   .debug_str:00000000000005f8 .LASF29
     /tmp/cc5DduZP.s:4375   .debug_str:0000000000000638 .LASF30
     /tmp/cc5DduZP.s:4503   .debug_str:0000000000000a7a .LASF31
     /tmp/cc5DduZP.s:4441   .debug_str:0000000000000893 .LASF32
     /tmp/cc5DduZP.s:4381   .debug_str:0000000000000669 .LASF33
     /tmp/cc5DduZP.s:4183   .debug_str:00000000000000a1 .LASF34
     /tmp/cc5DduZP.s:4429   .debug_str:000000000000079d .LASF35
     /tmp/cc5DduZP.s:4227   .debug_str:00000000000001f2 .LASF36
     /tmp/cc5DduZP.s:4301   .debug_str:000000000000043c .LASF37
     /tmp/cc5DduZP.s:4467   .debug_str:0000000000000975 .LASF38
     /tmp/cc5DduZP.s:4207   .debug_str:000000000000015c .LASF45
     /tmp/cc5DduZP.s:4195   .debug_str:00000000000000f8 .LASF47
     /tmp/cc5DduZP.s:4313   .debug_str:000000000000048b .LASF41
     /tmp/cc5DduZP.s:4229   .debug_str:0000000000000208 .LASF43
     /tmp/cc5DduZP.s:4331   .debug_str:00000000000004fe .LASF49
     /tmp/cc5DduZP.s:4411   .debug_str:000000000000072c .LASF51
     /tmp/cc5DduZP.s:4417   .debug_str:0000000000000756 .LASF39
     /tmp/cc5DduZP.s:4449   .debug_str:00000000000008e3 .LASF40
     /tmp/cc5DduZP.s:4341   .debug_str:0000000000000535 .LASF167
     /tmp/cc5DduZP.s:4485   .debug_str:00000000000009f7 .LASF42
     /tmp/cc5DduZP.s:4359   .debug_str:00000000000005b3 .LASF44
     /tmp/cc5DduZP.s:4459   .debug_str:0000000000000942 .LASF46
     /tmp/cc5DduZP.s:4343   .debug_str:000000000000053a .LASF48
     /tmp/cc5DduZP.s:4241   .debug_str:0000000000000261 .LASF50
     /tmp/cc5DduZP.s:4221   .debug_str:00000000000001b7 .LASF52
     /tmp/cc5DduZP.s:4277   .debug_str:0000000000000374 .LASF53
     /tmp/cc5DduZP.s:4179   .debug_str:000000000000007d .LASF54
     /tmp/cc5DduZP.s:4319   .debug_str:00000000000004b4 .LASF55
     /tmp/cc5DduZP.s:4283   .debug_str:00000000000003ab .LASF56
     /tmp/cc5DduZP.s:4435   .debug_str:00000000000007b3 .LASF57
     /tmp/cc5DduZP.s:4373   .debug_str:000000000000062a .LASF58
     /tmp/cc5DduZP.s:4353   .debug_str:000000000000057f .LASF168
     /tmp/cc5DduZP.s:4161   .debug_str:0000000000000000 .LASF59
     /tmp/cc5DduZP.s:4495   .debug_str:0000000000000a43 .LASF60
     /tmp/cc5DduZP.s:4451   .debug_str:0000000000000909 .LASF61
     /tmp/cc5DduZP.s:4443   .debug_str:00000000000008ad .LASF62
     /tmp/cc5DduZP.s:4403   .debug_str:00000000000006e9 .LASF63
     /tmp/cc5DduZP.s:4185   .debug_str:00000000000000b6 .LASF64
GAS LISTING /tmp/cc5DduZP.s 			page 31


     /tmp/cc5DduZP.s:4335   .debug_str:0000000000000511 .LASF65
     /tmp/cc5DduZP.s:4197   .debug_str:000000000000010b .LASF66
     /tmp/cc5DduZP.s:4211   .debug_str:000000000000016a .LASF67
     /tmp/cc5DduZP.s:4323   .debug_str:00000000000004c5 .LASF68
     /tmp/cc5DduZP.s:4345   .debug_str:000000000000054c .LASF69
     /tmp/cc5DduZP.s:4309   .debug_str:0000000000000473 .LASF70
     /tmp/cc5DduZP.s:4307   .debug_str:000000000000046a .LASF71
     /tmp/cc5DduZP.s:4347   .debug_str:000000000000055b .LASF72
     /tmp/cc5DduZP.s:4163   .debug_str:0000000000000005 .LASF73
     /tmp/cc5DduZP.s:4415   .debug_str:000000000000074c .LASF74
     /tmp/cc5DduZP.s:4181   .debug_str:0000000000000093 .LASF132
     /tmp/cc5DduZP.s:4303   .debug_str:0000000000000449 .LASF134
     /tmp/cc5DduZP.s:4201   .debug_str:0000000000000124 .LASF84
     /tmp/cc5DduZP.s:4165   .debug_str:0000000000000010 .LASF169
     /tmp/cc5DduZP.s:4399   .debug_str:00000000000006cf .LASF82
     /tmp/cc5DduZP.s:4479   .debug_str:00000000000009ca .LASF75
     /tmp/cc5DduZP.s:4387   .debug_str:0000000000000690 .LASF76
     /tmp/cc5DduZP.s:4225   .debug_str:00000000000001ec .LASF77
     /tmp/cc5DduZP.s:4461   .debug_str:000000000000094a .LASF78
     /tmp/cc5DduZP.s:4489   .debug_str:0000000000000a12 .LASF79
     /tmp/cc5DduZP.s:4295   .debug_str:000000000000041b .LASF80
     /tmp/cc5DduZP.s:4237   .debug_str:0000000000000247 .LASF81
     /tmp/cc5DduZP.s:4427   .debug_str:0000000000000789 .LASF83
     /tmp/cc5DduZP.s:4491   .debug_str:0000000000000a17 .LASF170
     /tmp/cc5DduZP.s:4259   .debug_str:00000000000002e2 .LASF171
     /tmp/cc5DduZP.s:4371   .debug_str:0000000000000625 .LASF85
     /tmp/cc5DduZP.s:4431   .debug_str:00000000000007a8 .LASF86
     /tmp/cc5DduZP.s:4465   .debug_str:000000000000096b .LASF172
     /tmp/cc5DduZP.s:4445   .debug_str:00000000000008b7 .LASF87
     /tmp/cc5DduZP.s:4209   .debug_str:0000000000000165 .LASF89
     /tmp/cc5DduZP.s:4447   .debug_str:00000000000008cc .LASF88
     /tmp/cc5DduZP.s:4421   .debug_str:000000000000076f .LASF90
     /tmp/cc5DduZP.s:4471   .debug_str:0000000000000998 .LASF91
     /tmp/cc5DduZP.s:4255   .debug_str:00000000000002d1 .LASF92
     /tmp/cc5DduZP.s:4263   .debug_str:000000000000030c .LASF93
     /tmp/cc5DduZP.s:4397   .debug_str:00000000000006c1 .LASF94
     /tmp/cc5DduZP.s:4217   .debug_str:000000000000018d .LASF95
     /tmp/cc5DduZP.s:4271   .debug_str:000000000000034d .LASF96
     /tmp/cc5DduZP.s:4475   .debug_str:00000000000009a8 .LASF97
     /tmp/cc5DduZP.s:4299   .debug_str:0000000000000433 .LASF98
     /tmp/cc5DduZP.s:4453   .debug_str:0000000000000911 .LASF99
     /tmp/cc5DduZP.s:4401   .debug_str:00000000000006e0 .LASF100
     /tmp/cc5DduZP.s:4337   .debug_str:0000000000000519 .LASF101
     /tmp/cc5DduZP.s:4361   .debug_str:00000000000005ca .LASF102
     /tmp/cc5DduZP.s:4363   .debug_str:00000000000005d1 .LASF103
     /tmp/cc5DduZP.s:4329   .debug_str:00000000000004f7 .LASF104
     /tmp/cc5DduZP.s:4289   .debug_str:00000000000003f7 .LASF105
     /tmp/cc5DduZP.s:4477   .debug_str:00000000000009c2 .LASF106
     /tmp/cc5DduZP.s:4439   .debug_str:000000000000087f .LASF107
     /tmp/cc5DduZP.s:4327   .debug_str:00000000000004ef .LASF108
     /tmp/cc5DduZP.s:4233   .debug_str:000000000000022e .LASF109
     /tmp/cc5DduZP.s:4305   .debug_str:0000000000000462 .LASF110
     /tmp/cc5DduZP.s:4365   .debug_str:00000000000005e4 .LASF111
     /tmp/cc5DduZP.s:4505   .debug_str:0000000000000a89 .LASF112
     /tmp/cc5DduZP.s:4275   .debug_str:0000000000000360 .LASF113
     /tmp/cc5DduZP.s:4413   .debug_str:0000000000000745 .LASF114
     /tmp/cc5DduZP.s:4393   .debug_str:00000000000006a7 .LASF115
GAS LISTING /tmp/cc5DduZP.s 			page 32


     /tmp/cc5DduZP.s:4395   .debug_str:00000000000006ba .LASF116
     /tmp/cc5DduZP.s:4193   .debug_str:00000000000000e5 .LASF117
     /tmp/cc5DduZP.s:4213   .debug_str:0000000000000171 .LASF118
     /tmp/cc5DduZP.s:4261   .debug_str:00000000000002fa .LASF119
     /tmp/cc5DduZP.s:4273   .debug_str:000000000000035a .LASF120
     /tmp/cc5DduZP.s:4205   .debug_str:000000000000014a .LASF121
     /tmp/cc5DduZP.s:4173   .debug_str:0000000000000055 .LASF122
     /tmp/cc5DduZP.s:4383   .debug_str:0000000000000673 .LASF123
     /tmp/cc5DduZP.s:4377   .debug_str:0000000000000650 .LASF124
     /tmp/cc5DduZP.s:4497   .debug_str:0000000000000a49 .LASF125
     /tmp/cc5DduZP.s:4473   .debug_str:000000000000099e .LASF126
     /tmp/cc5DduZP.s:4481   .debug_str:00000000000009d5 .LASF127
     /tmp/cc5DduZP.s:4469   .debug_str:000000000000098e .LASF128
     /tmp/cc5DduZP.s:4315   .debug_str:0000000000000497 .LASF129
     /tmp/cc5DduZP.s:4251   .debug_str:00000000000002bc .LASF130
     /tmp/cc5DduZP.s:4247   .debug_str:0000000000000292 .LASF131
     /tmp/cc5DduZP.s:4355   .debug_str:0000000000000599 .LASF133
     /tmp/cc5DduZP.s:4285   .debug_str:00000000000003c2 .LASF135
     /tmp/cc5DduZP.s:4175   .debug_str:0000000000000060 .LASF136
     /tmp/cc5DduZP.s:4463   .debug_str:0000000000000950 .LASF137
     /tmp/cc5DduZP.s:4501   .debug_str:0000000000000a6e .LASF138
     /tmp/cc5DduZP.s:4223   .debug_str:00000000000001d4 .LASF139
     /tmp/cc5DduZP.s:848    .text:0000000000000524 .LFB45
     /tmp/cc5DduZP.s:896    .text:0000000000000578 .LFE45
     /tmp/cc5DduZP.s:4235   .debug_str:0000000000000242 .LASF146
     /tmp/cc5DduZP.s:3718   .debug_loc:0000000000000000 .LLST23
     /tmp/cc5DduZP.s:3736   .debug_loc:000000000000004c .LLST24
     /tmp/cc5DduZP.s:871    .text:0000000000000550 .LVL77
     /tmp/cc5DduZP.s:879    .text:0000000000000560 .LVL78
     /tmp/cc5DduZP.s:796    .text:00000000000004cc .LFB44
     /tmp/cc5DduZP.s:842    .text:0000000000000524 .LFE44
     /tmp/cc5DduZP.s:4357   .debug_str:00000000000005ae .LASF140
     /tmp/cc5DduZP.s:3754   .debug_loc:0000000000000098 .LLST22
     /tmp/cc5DduZP.s:815    .text:00000000000004f8 .LVL71
     /tmp/cc5DduZP.s:826    .text:000000000000050c .LVL73
     /tmp/cc5DduZP.s:771    .text:00000000000004cc .LFE43
     /tmp/cc5DduZP.s:3765   .debug_loc:00000000000000ce .LLST21
     /tmp/cc5DduZP.s:734    .text:0000000000000480 .LVL67
     /tmp/cc5DduZP.s:740    .text:0000000000000490 .LVL68
     /tmp/cc5DduZP.s:764    .text:00000000000004c0 .LVL69
     /tmp/cc5DduZP.s:768    .text:00000000000004cc .LVL70
     /tmp/cc5DduZP.s:651    .text:00000000000003f0 .LFB42
     /tmp/cc5DduZP.s:698    .text:0000000000000448 .LFE42
     /tmp/cc5DduZP.s:3779   .debug_loc:0000000000000107 .LLST20
     /tmp/cc5DduZP.s:674    .text:000000000000041c .LVL62
     /tmp/cc5DduZP.s:682    .text:0000000000000430 .LVL63
     /tmp/cc5DduZP.s:596    .text:00000000000003b0 .LFB41
     /tmp/cc5DduZP.s:645    .text:00000000000003f0 .LFE41
     /tmp/cc5DduZP.s:4317   .debug_str:00000000000004ad .LASF141
     /tmp/cc5DduZP.s:3786   .debug_loc:000000000000012a .LLST18
     /tmp/cc5DduZP.s:615    .text:00000000000003c8 .LBB34
     /tmp/cc5DduZP.s:622    .text:00000000000003cc .LBE34
     /tmp/cc5DduZP.s:3804   .debug_loc:0000000000000176 .LLST19
     /tmp/cc5DduZP.s:628    .text:00000000000003d8 .LVL59
     /tmp/cc5DduZP.s:10     .text:0000000000000000 .LFB40
     /tmp/cc5DduZP.s:102    .text:00000000000000a4 .LFE40
     /tmp/cc5DduZP.s:66     .text:0000000000000068 .LBB15
GAS LISTING /tmp/cc5DduZP.s 			page 33


     /tmp/cc5DduZP.s:76     .text:0000000000000078 .LBE15
     /tmp/cc5DduZP.s:3811   .debug_loc:0000000000000199 .LLST0
     /tmp/cc5DduZP.s:3819   .debug_loc:00000000000001bd .LLST1
     /tmp/cc5DduZP.s:27     .text:000000000000001c .LVL0
     /tmp/cc5DduZP.s:36     .text:0000000000000030 .LVL1
     /tmp/cc5DduZP.s:80     .text:0000000000000080 .LVL5
     /tmp/cc5DduZP.s:99     .text:00000000000000a0 .LVL6
     /tmp/cc5DduZP.s:395    .text:0000000000000268 .LFB39
     /tmp/cc5DduZP.s:533    .text:0000000000000360 .LFE39
     /tmp/cc5DduZP.s:3827   .debug_loc:00000000000001e8 .LLST12
     /tmp/cc5DduZP.s:423    .text:0000000000000290 .LBB26
     /tmp/cc5DduZP.s:430    .text:0000000000000294 .LBE26
     /tmp/cc5DduZP.s:3838   .debug_loc:000000000000021e .LLST13
     /tmp/cc5DduZP.s:435    .text:0000000000000298 .LBB28
     /tmp/cc5DduZP.s:442    .text:000000000000029c .LBE28
     /tmp/cc5DduZP.s:3845   .debug_loc:0000000000000241 .LLST14
     /tmp/cc5DduZP.s:449    .text:00000000000002a4 .LBB30
     /tmp/cc5DduZP.s:461    .text:00000000000002b4 .LBE30
     /tmp/cc5DduZP.s:3852   .debug_loc:0000000000000264 .LLST15
     /tmp/cc5DduZP.s:458    .text:00000000000002b4 .LVL40
     /tmp/cc5DduZP.s:465    .text:00000000000002c0 .LVL41
     /tmp/cc5DduZP.s:470    .text:00000000000002c8 .LVL42
     /tmp/cc5DduZP.s:478    .text:00000000000002e0 .LVL43
     /tmp/cc5DduZP.s:499    .text:0000000000000304 .LVL46
     /tmp/cc5DduZP.s:506    .text:0000000000000318 .LVL47
     /tmp/cc5DduZP.s:511    .text:0000000000000328 .LVL48
     /tmp/cc5DduZP.s:518    .text:000000000000033c .LVL49
     /tmp/cc5DduZP.s:523    .text:000000000000034c .LVL50
     /tmp/cc5DduZP.s:530    .text:000000000000035c .LVL51
     /tmp/cc5DduZP.s:356    .text:0000000000000244 .LFB38
     /tmp/cc5DduZP.s:378    .text:0000000000000268 .LFE38
     /tmp/cc5DduZP.s:539    .text:0000000000000360 .LFB37
     /tmp/cc5DduZP.s:590    .text:00000000000003b0 .LFE37
     /tmp/cc5DduZP.s:555    .text:000000000000037c .LBB32
     /tmp/cc5DduZP.s:563    .text:0000000000000384 .LBE32
     /tmp/cc5DduZP.s:3859   .debug_loc:0000000000000287 .LLST16
     /tmp/cc5DduZP.s:3867   .debug_loc:00000000000002ab .LLST17
     /tmp/cc5DduZP.s:572    .text:0000000000000394 .LVL54
     /tmp/cc5DduZP.s:577    .text:000000000000039c .LVL55
     /tmp/cc5DduZP.s:318    .text:0000000000000244 .LFE36
     /tmp/cc5DduZP.s:4433   .debug_str:00000000000007ad .LASF142
     /tmp/cc5DduZP.s:3874   .debug_loc:00000000000002ce .LLST2
     /tmp/cc5DduZP.s:3925   .debug_loc:0000000000000395 .LLST3
     /tmp/cc5DduZP.s:4311   .debug_str:000000000000047f .LASF143
     /tmp/cc5DduZP.s:3947   .debug_loc:00000000000003f4 .LLST4
     /tmp/cc5DduZP.s:4253   .debug_str:00000000000002cb .LASF144
     /tmp/cc5DduZP.s:3986   .debug_loc:0000000000000491 .LLST5
     /tmp/cc5DduZP.s:146    .text:00000000000000e8 .LBB20
     /tmp/cc5DduZP.s:4149   .debug_ranges:0000000000000000 .Ldebug_ranges0
     /tmp/cc5DduZP.s:4008   .debug_loc:00000000000004f0 .LLST6
     /tmp/cc5DduZP.s:4019   .debug_loc:0000000000000526 .LLST7
     /tmp/cc5DduZP.s:4032   .debug_loc:000000000000055e .LLST8
     /tmp/cc5DduZP.s:4074   .debug_loc:00000000000005fe .LLST9
     /tmp/cc5DduZP.s:4085   .debug_loc:0000000000000634 .LLST10
     /tmp/cc5DduZP.s:4125   .debug_loc:00000000000006d2 .LLST11
     /tmp/cc5DduZP.s:194    .text:000000000000016c .LVL12
     /tmp/cc5DduZP.s:224    .text:00000000000001a4 .LVL16
GAS LISTING /tmp/cc5DduZP.s 			page 34


     /tmp/cc5DduZP.s:230    .text:00000000000001b4 .LVL17
     /tmp/cc5DduZP.s:239    .text:00000000000001c4 .LVL18
     /tmp/cc5DduZP.s:245    .text:00000000000001d4 .LVL19
     /tmp/cc5DduZP.s:287    .text:0000000000000210 .LVL26
     /tmp/cc5DduZP.s:308    .text:0000000000000238 .LVL30
     /tmp/cc5DduZP.s:142    .text:00000000000000e4 .LVL9
     /tmp/cc5DduZP.s:294    .text:000000000000021c .LVL27
     /tmp/cc5DduZP.s:298    .text:0000000000000228 .LVL28
     /tmp/cc5DduZP.s:4457   .debug_str:000000000000093d .LASF145
     /tmp/cc5DduZP.s:4281   .debug_str:0000000000000391 .LASF149
     /tmp/cc5DduZP.s:4257   .debug_str:00000000000002dc .LASF147
     /tmp/cc5DduZP.s:4169   .debug_str:0000000000000044 .LASF148
     /tmp/cc5DduZP.s:4293   .debug_str:000000000000040f .LASF150
     /tmp/cc5DduZP.s:4321   .debug_str:00000000000004bf .LASF151
     /tmp/cc5DduZP.s:4499   .debug_str:0000000000000a61 .LASF152
     /tmp/cc5DduZP.s:4339   .debug_str:000000000000052e .LASF153
     /tmp/cc5DduZP.s:4269   .debug_str:000000000000033d .LASF154
     /tmp/cc5DduZP.s:4487   .debug_str:0000000000000a03 .LASF156
     /tmp/cc5DduZP.s:4203   .debug_str:0000000000000132 .LASF158
     /tmp/cc5DduZP.s:4407   .debug_str:0000000000000708 .LASF155
     /tmp/cc5DduZP.s:4333   .debug_str:000000000000050a .LASF157
     /tmp/cc5DduZP.s:4245   .debug_str:000000000000027f .LASF159
     /tmp/cc5DduZP.s:4409   .debug_str:0000000000000719 .LASF160
     /tmp/cc5DduZP.s:4483   .debug_str:00000000000009eb .LASF161
     /tmp/cc5DduZP.s:4219   .debug_str:00000000000001a8 .LASF162
     /tmp/cc5DduZP.s:4351   .debug_str:0000000000000576 .LASF163
     /tmp/cc5DduZP.s:851    .text:0000000000000524 .LVL75
     /tmp/cc5DduZP.s:869    .text:0000000000000548 .LVL76
     /tmp/cc5DduZP.s:888    .text:000000000000056c .LVL79
     /tmp/cc5DduZP.s:891    .text:0000000000000570 .LVL80
     /tmp/cc5DduZP.s:821    .text:0000000000000500 .LVL72
     /tmp/cc5DduZP.s:837    .text:000000000000051c .LVL74
     /tmp/cc5DduZP.s:709    .text:0000000000000448 .LVL65
     /tmp/cc5DduZP.s:731    .text:0000000000000478 .LVL66
     /tmp/cc5DduZP.s:670    .text:0000000000000414 .LVL61
     /tmp/cc5DduZP.s:693    .text:0000000000000440 .LVL64
     /tmp/cc5DduZP.s:599    .text:00000000000003b0 .LVL56
     /tmp/cc5DduZP.s:611    .text:00000000000003c8 .LVL57
     /tmp/cc5DduZP.s:640    .text:00000000000003e8 .LVL60
     /tmp/cc5DduZP.s:620    .text:00000000000003cc .LVL58
     /tmp/cc5DduZP.s:65     .text:0000000000000068 .LVL3
     /tmp/cc5DduZP.s:74     .text:0000000000000078 .LVL4
     /tmp/cc5DduZP.s:411    .text:0000000000000284 .LVL34
     /tmp/cc5DduZP.s:488    .text:00000000000002ec .LVL44
     /tmp/cc5DduZP.s:492    .text:00000000000002f4 .LVL45
     /tmp/cc5DduZP.s:422    .text:0000000000000290 .LVL35
     /tmp/cc5DduZP.s:428    .text:0000000000000294 .LVL36
     /tmp/cc5DduZP.s:434    .text:0000000000000298 .LVL37
     /tmp/cc5DduZP.s:440    .text:000000000000029c .LVL38
     /tmp/cc5DduZP.s:448    .text:00000000000002a4 .LVL39
     /tmp/cc5DduZP.s:554    .text:000000000000037c .LVL52
     /tmp/cc5DduZP.s:561    .text:0000000000000384 .LVL53
     /tmp/cc5DduZP.s:113    .text:00000000000000a4 .LVL7
     /tmp/cc5DduZP.s:139    .text:00000000000000dc .LVL8
     /tmp/cc5DduZP.s:267    .text:00000000000001f0 .LVL21
     /tmp/cc5DduZP.s:277    .text:0000000000000200 .LVL24
     /tmp/cc5DduZP.s:281    .text:0000000000000204 .LVL25
GAS LISTING /tmp/cc5DduZP.s 			page 35


     /tmp/cc5DduZP.s:302    .text:000000000000022c .LVL29
     /tmp/cc5DduZP.s:310    .text:000000000000023c .LVL31
     /tmp/cc5DduZP.s:313    .text:0000000000000240 .LVL32
     /tmp/cc5DduZP.s:273    .text:00000000000001f8 .LVL23
     /tmp/cc5DduZP.s:159    .text:000000000000010c .LVL11
     /tmp/cc5DduZP.s:196    .text:0000000000000170 .LVL13
     /tmp/cc5DduZP.s:200    .text:0000000000000174 .LVL14
     /tmp/cc5DduZP.s:207    .text:0000000000000184 .LVL15
     /tmp/cc5DduZP.s:270    .text:00000000000001f4 .LVL22
     /tmp/cc5DduZP.s:145    .text:00000000000000e8 .LVL10
     /tmp/cc5DduZP.s:249    .text:00000000000001d8 .LVL20
     /tmp/cc5DduZP.s:932    .debug_info:0000000000000000 .Ldebug_info0
     /tmp/cc5DduZP.s:252    .text:00000000000001d8 .LBE20
     /tmp/cc5DduZP.s:282    .text:0000000000000204 .LBB24
     /tmp/cc5DduZP.s:290    .text:0000000000000210 .LBE24
     /tmp/cc5DduZP.s:303    .text:000000000000022c .LBB25
     /tmp/cc5DduZP.s:316    .text:0000000000000244 .LBE25
     /tmp/cc5DduZP.s:321    .gcc_except_table:0000000000000000 .LLSDA36
     /tmp/cc5DduZP.s:773    .gcc_except_table:0000000000000052 .LLSDA43

UNDEFINED SYMBOLS
_ZN5Riscv10popSppSpieEv
_ZN9Semaphore4waitEv
_Z11thread_exitv
_ZN9Scheduler3putEP3TCB
_Znwm
_ZN9SemaphoreC1Ej
_ZdlPv
_Unwind_Resume
__gxx_personality_v0
_ZdaPv
_ZN9Scheduler3getEv
_ZN3TCB13contextSwitchEPNS_7ContextES1_
_Z11printStringPKc
_Z8printIntiii
_ZN9Semaphore6signalEv
