GAS LISTING /tmp/ccxvhz29.s 			page 1


   1              		.file	"joinAllModif.cpp"
   2              		.option pic
   3              		.option norelax
   4              		.text
   5              	.Ltext0:
   6              		.section	.rodata.str1.8,"aMS",@progbits,1
   7              		.align	3
   8              	.LC0:
   9 0000 43206372 		.string	"C created\n"
   9      65617465 
   9      640A00
  10 000b 00000000 		.align	3
  10      00
  11              	.LC1:
  12 0010 43206669 		.string	"C finished!\n"
  12      6E697368 
  12      6564210A 
  12      00
  13              		.text
  14              		.align	2
  16              	_ZL11workerBodyCPv:
  17              	.LFB20:
  18              		.file 1 "test/joinAllModif.cpp"
   1:test/joinAllModif.cpp **** #include "joinAllModif.hpp"
   2:test/joinAllModif.cpp **** #include "../h/syscall_c.hpp"
   3:test/joinAllModif.cpp **** #include "printing.hpp"
   4:test/joinAllModif.cpp **** 
   5:test/joinAllModif.cpp **** static volatile bool finishedA = false;
   6:test/joinAllModif.cpp **** 
   7:test/joinAllModif.cpp **** thread_t threads[15];
   8:test/joinAllModif.cpp **** 
   9:test/joinAllModif.cpp **** static void workerBodyC(void* arg) {
  19              		.loc 1 9 36
  20              		.cfi_startproc
  21              	.LVL0:
  22 0000 130101FE 		addi	sp,sp,-32
  23              		.cfi_def_cfa_offset 32
  24 0004 233C1100 		sd	ra,24(sp)
  25 0008 23388100 		sd	s0,16(sp)
  26 000c 23349100 		sd	s1,8(sp)
  27 0010 23302101 		sd	s2,0(sp)
  28              		.cfi_offset 1, -8
  29              		.cfi_offset 8, -16
  30              		.cfi_offset 9, -24
  31              		.cfi_offset 18, -32
  32 0014 13040102 		addi	s0,sp,32
  33              		.cfi_def_cfa 8, 0
  10:test/joinAllModif.cpp ****     printString("C created\n");
  34              		.loc 1 10 5
  35              		.loc 1 10 16 is_stmt 0
  36 0018 17050000 		lla	a0,.LC0
  36      13050500 
  37              	.LVL1:
  38 0020 97000000 		call	_Z11printStringPKc@plt
  38      E7800000 
  39              	.LVL2:
  11:test/joinAllModif.cpp **** 
GAS LISTING /tmp/ccxvhz29.s 			page 2


  12:test/joinAllModif.cpp ****     for (uint64 i = 0; i < 10; i++) {
  40              		.loc 1 12 5 is_stmt 1
  41              	.LBB2:
  42              		.loc 1 12 17 is_stmt 0
  43 0028 13090000 		li	s2,0
  44 002c 6F008003 		j	.L7
  45              	.LVL3:
  46              	.L4:
  47              	.LBB3:
  48              	.LBB4:
  13:test/joinAllModif.cpp **** 
  14:test/joinAllModif.cpp ****         for (uint64 j = 0; j < 10000; j++) {
  15:test/joinAllModif.cpp ****             for (uint64 k = 0; k < 30000; k++) { /* busy wait */ }
  16:test/joinAllModif.cpp ****             thread_dispatch();
  49              		.loc 1 16 13 is_stmt 1 discriminator 2
  50              		.loc 1 16 28 is_stmt 0 discriminator 2
  51 0030 97000000 		call	_Z15thread_dispatchv@plt
  51      E7800000 
  52              	.LVL4:
  53              	.LBE4:
  14:test/joinAllModif.cpp ****             for (uint64 k = 0; k < 30000; k++) { /* busy wait */ }
  54              		.loc 1 14 9 is_stmt 1 discriminator 2
  55 0038 93841400 		addi	s1,s1,1
  56              	.LVL5:
  57              	.L6:
  14:test/joinAllModif.cpp ****             for (uint64 k = 0; k < 30000; k++) { /* busy wait */ }
  58              		.loc 1 14 30 discriminator 1
  59 003c B7270000 		li	a5,8192
  60 0040 9387F770 		addi	a5,a5,1807
  61 0044 63EE9700 		bgtu	s1,a5,.L3
  62              	.LBB6:
  63              	.LBB5:
  15:test/joinAllModif.cpp ****             thread_dispatch();
  64              		.loc 1 15 25 is_stmt 0
  65 0048 13070000 		li	a4,0
  66              	.L5:
  67              	.LVL6:
  15:test/joinAllModif.cpp ****             thread_dispatch();
  68              		.loc 1 15 34 is_stmt 1 discriminator 3
  69 004c B7770000 		li	a5,28672
  70 0050 9387F752 		addi	a5,a5,1327
  71 0054 E3EEE7FC 		bgtu	a4,a5,.L4
  15:test/joinAllModif.cpp ****             thread_dispatch();
  72              		.loc 1 15 13 discriminator 2
  73 0058 13071700 		addi	a4,a4,1
  74              	.LVL7:
  75 005c 6FF01FFF 		j	.L5
  76              	.LVL8:
  77              	.L3:
  78              	.LBE5:
  79              	.LBE6:
  80              	.LBE3:
  12:test/joinAllModif.cpp **** 
  81              		.loc 1 12 5 discriminator 2
  82 0060 13091900 		addi	s2,s2,1
  83              	.LVL9:
  84              	.L7:
GAS LISTING /tmp/ccxvhz29.s 			page 3


  12:test/joinAllModif.cpp **** 
  85              		.loc 1 12 26 discriminator 1
  86 0064 93079000 		li	a5,9
  87 0068 63E62701 		bgtu	s2,a5,.L2
  88              	.LBB7:
  14:test/joinAllModif.cpp ****             for (uint64 k = 0; k < 30000; k++) { /* busy wait */ }
  89              		.loc 1 14 21 is_stmt 0
  90 006c 93040000 		li	s1,0
  91 0070 6FF0DFFC 		j	.L6
  92              	.L2:
  93              	.LBE7:
  94              	.LBE2:
  17:test/joinAllModif.cpp ****         }
  18:test/joinAllModif.cpp ****     }
  19:test/joinAllModif.cpp ****     printString("C finished!\n");
  95              		.loc 1 19 5 is_stmt 1
  96              		.loc 1 19 16 is_stmt 0
  97 0074 17050000 		lla	a0,.LC1
  97      13050500 
  98 007c 97000000 		call	_Z11printStringPKc@plt
  98      E7800000 
  99              	.LVL10:
  20:test/joinAllModif.cpp ****     thread_dispatch();
 100              		.loc 1 20 5 is_stmt 1
 101              		.loc 1 20 20 is_stmt 0
 102 0084 97000000 		call	_Z15thread_dispatchv@plt
 102      E7800000 
 103              	.LVL11:
  21:test/joinAllModif.cpp **** }
 104              		.loc 1 21 1
 105 008c 83308101 		ld	ra,24(sp)
 106              		.cfi_restore 1
 107 0090 03340101 		ld	s0,16(sp)
 108              		.cfi_restore 8
 109              		.cfi_def_cfa 2, 32
 110 0094 83348100 		ld	s1,8(sp)
 111              		.cfi_restore 9
 112 0098 03390100 		ld	s2,0(sp)
 113              		.cfi_restore 18
 114              	.LVL12:
 115 009c 13010102 		addi	sp,sp,32
 116              		.cfi_def_cfa_offset 0
 117 00a0 67800000 		jr	ra
 118              		.cfi_endproc
 119              	.LFE20:
 121              		.section	.rodata.str1.8
 122 001d 000000   		.align	3
 123              	.LC2:
 124 0020 41206372 		.string	"A created\n"
 124      65617465 
 124      640A00
 125 002b 00000000 		.align	3
 125      00
 126              	.LC3:
 127 0030 41206669 		.string	"A finished!\n"
 127      6E697368 
 127      6564210A 
GAS LISTING /tmp/ccxvhz29.s 			page 4


 127      00
 128              		.text
 129              		.align	2
 131              	_ZL11workerBodyAPv:
 132              	.LFB22:
  22:test/joinAllModif.cpp **** 
  23:test/joinAllModif.cpp **** static void workerBodyB(void* arg) {
  24:test/joinAllModif.cpp ****     printString("B created\n");
  25:test/joinAllModif.cpp ****     int idT = *(int*)arg;
  26:test/joinAllModif.cpp ****     thread_create(&threads[idT*3-1], workerBodyC, nullptr, &threads[idT]);
  27:test/joinAllModif.cpp ****     thread_create(&threads[idT*3], workerBodyC, nullptr, &threads[idT]);
  28:test/joinAllModif.cpp ****     thread_create(&threads[idT*3+1], workerBodyC, nullptr, &threads[idT]);
  29:test/joinAllModif.cpp ****     joinAll();
  30:test/joinAllModif.cpp ****     for (uint64 i = 0; i < 10; i++) {
  31:test/joinAllModif.cpp **** 
  32:test/joinAllModif.cpp ****         for (uint64 j = 0; j < 10000; j++) {
  33:test/joinAllModif.cpp ****             for (uint64 k = 0; k < 30000; k++) { /* busy wait */ }
  34:test/joinAllModif.cpp ****             thread_dispatch();
  35:test/joinAllModif.cpp ****         }
  36:test/joinAllModif.cpp ****     }
  37:test/joinAllModif.cpp ****     printString("B finished!\n");
  38:test/joinAllModif.cpp **** }
  39:test/joinAllModif.cpp **** 
  40:test/joinAllModif.cpp **** static void workerBodyA(void* arg) {
 133              		.loc 1 40 36 is_stmt 1
 134              		.cfi_startproc
 135              	.LVL13:
 136 00a4 130101FD 		addi	sp,sp,-48
 137              		.cfi_def_cfa_offset 48
 138 00a8 23341102 		sd	ra,40(sp)
 139 00ac 23308102 		sd	s0,32(sp)
 140 00b0 233C9100 		sd	s1,24(sp)
 141 00b4 23382101 		sd	s2,16(sp)
 142              		.cfi_offset 1, -8
 143              		.cfi_offset 8, -16
 144              		.cfi_offset 9, -24
 145              		.cfi_offset 18, -32
 146 00b8 13040103 		addi	s0,sp,48
 147              		.cfi_def_cfa 8, 0
  41:test/joinAllModif.cpp **** 
  42:test/joinAllModif.cpp ****     printString("A created\n");
 148              		.loc 1 42 5
 149              		.loc 1 42 16 is_stmt 0
 150 00bc 17050000 		lla	a0,.LC2
 150      13050500 
 151              	.LVL14:
 152 00c4 97000000 		call	_Z11printStringPKc@plt
 152      E7800000 
 153              	.LVL15:
  43:test/joinAllModif.cpp ****     int idT4 = 1;
 154              		.loc 1 43 5 is_stmt 1
 155              		.loc 1 43 9 is_stmt 0
 156 00cc 93071000 		li	a5,1
 157 00d0 232EF4FC 		sw	a5,-36(s0)
  44:test/joinAllModif.cpp ****     thread_create(&threads[idT4], workerBodyC, &idT4, &threads[0]);
 158              		.loc 1 44 5 is_stmt 1
 159              		.loc 1 44 18 is_stmt 0
GAS LISTING /tmp/ccxvhz29.s 			page 5


 160 00d4 97040000 		lla	s1,.LANCHOR0
 160      93840400 
 161 00dc 93860400 		mv	a3,s1
 162 00e0 1306C4FD 		addi	a2,s0,-36
 163 00e4 97050000 		lla	a1,_ZL11workerBodyCPv
 163      93850500 
 164 00ec 17050000 		lla	a0,.LANCHOR0+8
 164      13050500 
 165 00f4 97000000 		call	_Z13thread_createPP3TCBPFvPvES2_S1_@plt
 165      E7800000 
 166              	.LVL16:
  45:test/joinAllModif.cpp ****     int idT1 = 2;
 167              		.loc 1 45 5 is_stmt 1
 168              		.loc 1 45 9 is_stmt 0
 169 00fc 93072000 		li	a5,2
 170 0100 232CF4FC 		sw	a5,-40(s0)
  46:test/joinAllModif.cpp ****     thread_create(&threads[idT1], workerBodyB, &idT1, &threads[0]);
 171              		.loc 1 46 5 is_stmt 1
 172              		.loc 1 46 18 is_stmt 0
 173 0104 93860400 		mv	a3,s1
 174 0108 130684FD 		addi	a2,s0,-40
 175 010c 97050000 		lla	a1,_ZL11workerBodyBPv
 175      93850500 
 176 0114 17050000 		lla	a0,.LANCHOR0+16
 176      13050500 
 177 011c 97000000 		call	_Z13thread_createPP3TCBPFvPvES2_S1_@plt
 177      E7800000 
 178              	.LVL17:
  47:test/joinAllModif.cpp ****     int idT2=3;
 179              		.loc 1 47 5 is_stmt 1
 180              		.loc 1 47 9 is_stmt 0
 181 0124 93073000 		li	a5,3
 182 0128 232AF4FC 		sw	a5,-44(s0)
  48:test/joinAllModif.cpp ****     thread_create(&threads[idT2], workerBodyB, &idT2, &threads[0]);
 183              		.loc 1 48 5 is_stmt 1
 184              		.loc 1 48 18 is_stmt 0
 185 012c 93860400 		mv	a3,s1
 186 0130 130644FD 		addi	a2,s0,-44
 187 0134 97050000 		lla	a1,_ZL11workerBodyBPv
 187      93850500 
 188 013c 17050000 		lla	a0,.LANCHOR0+24
 188      13050500 
 189 0144 97000000 		call	_Z13thread_createPP3TCBPFvPvES2_S1_@plt
 189      E7800000 
 190              	.LVL18:
  49:test/joinAllModif.cpp ****     int idT3=4;
 191              		.loc 1 49 5 is_stmt 1
 192              		.loc 1 49 9 is_stmt 0
 193 014c 93074000 		li	a5,4
 194 0150 2328F4FC 		sw	a5,-48(s0)
  50:test/joinAllModif.cpp ****     thread_create(&threads[idT3], workerBodyB, &idT3, &threads[0]);
 195              		.loc 1 50 5 is_stmt 1
 196              		.loc 1 50 18 is_stmt 0
 197 0154 93860400 		mv	a3,s1
 198 0158 130604FD 		addi	a2,s0,-48
 199 015c 97050000 		lla	a1,_ZL11workerBodyBPv
 199      93850500 
GAS LISTING /tmp/ccxvhz29.s 			page 6


 200 0164 17050000 		lla	a0,.LANCHOR0+32
 200      13050500 
 201 016c 97000000 		call	_Z13thread_createPP3TCBPFvPvES2_S1_@plt
 201      E7800000 
 202              	.LVL19:
  51:test/joinAllModif.cpp ****     joinAll();
 203              		.loc 1 51 5 is_stmt 1
 204              		.loc 1 51 12 is_stmt 0
 205 0174 97000000 		call	_Z7joinAllv@plt
 205      E7800000 
 206              	.LVL20:
 207              	.LBB8:
  52:test/joinAllModif.cpp **** 
  53:test/joinAllModif.cpp ****     for (uint64 i = 0; i < 10; i++) {
 208              		.loc 1 53 17
 209 017c 13090000 		li	s2,0
 210 0180 6F008003 		j	.L15
 211              	.LVL21:
 212              	.L12:
 213              	.LBB9:
 214              	.LBB10:
  54:test/joinAllModif.cpp **** 
  55:test/joinAllModif.cpp ****         for (uint64 j = 0; j < 10000; j++) {
  56:test/joinAllModif.cpp ****             for (uint64 k = 0; k < 30000; k++) { /* busy wait */ }
  57:test/joinAllModif.cpp ****             thread_dispatch();
 215              		.loc 1 57 13 is_stmt 1
 216              		.loc 1 57 28 is_stmt 0
 217 0184 97000000 		call	_Z15thread_dispatchv@plt
 217      E7800000 
 218              	.LVL22:
 219              	.LBE10:
  55:test/joinAllModif.cpp ****             for (uint64 k = 0; k < 30000; k++) { /* busy wait */ }
 220              		.loc 1 55 9 is_stmt 1
 221 018c 93841400 		addi	s1,s1,1
 222              	.LVL23:
 223              	.L14:
  55:test/joinAllModif.cpp ****             for (uint64 k = 0; k < 30000; k++) { /* busy wait */ }
 224              		.loc 1 55 30 discriminator 1
 225 0190 B7270000 		li	a5,8192
 226 0194 9387F770 		addi	a5,a5,1807
 227 0198 63EE9700 		bgtu	s1,a5,.L11
 228              	.LBB12:
 229              	.LBB11:
  56:test/joinAllModif.cpp ****             thread_dispatch();
 230              		.loc 1 56 25 is_stmt 0
 231 019c 13070000 		li	a4,0
 232              	.L13:
 233              	.LVL24:
  56:test/joinAllModif.cpp ****             thread_dispatch();
 234              		.loc 1 56 34 is_stmt 1 discriminator 3
 235 01a0 B7770000 		li	a5,28672
 236 01a4 9387F752 		addi	a5,a5,1327
 237 01a8 E3EEE7FC 		bgtu	a4,a5,.L12
  56:test/joinAllModif.cpp ****             thread_dispatch();
 238              		.loc 1 56 13 discriminator 2
 239 01ac 13071700 		addi	a4,a4,1
 240              	.LVL25:
GAS LISTING /tmp/ccxvhz29.s 			page 7


 241 01b0 6FF01FFF 		j	.L13
 242              	.LVL26:
 243              	.L11:
 244              	.LBE11:
 245              	.LBE12:
 246              	.LBE9:
  53:test/joinAllModif.cpp **** 
 247              		.loc 1 53 5 discriminator 2
 248 01b4 13091900 		addi	s2,s2,1
 249              	.LVL27:
 250              	.L15:
  53:test/joinAllModif.cpp **** 
 251              		.loc 1 53 26 discriminator 1
 252 01b8 93079000 		li	a5,9
 253 01bc 63E62701 		bgtu	s2,a5,.L10
 254              	.LBB13:
  55:test/joinAllModif.cpp ****             for (uint64 k = 0; k < 30000; k++) { /* busy wait */ }
 255              		.loc 1 55 21 is_stmt 0
 256 01c0 93040000 		li	s1,0
 257 01c4 6FF0DFFC 		j	.L14
 258              	.L10:
 259              	.LBE13:
 260              	.LBE8:
  58:test/joinAllModif.cpp ****         }
  59:test/joinAllModif.cpp ****     }
  60:test/joinAllModif.cpp ****     printString("A finished!\n");
 261              		.loc 1 60 5 is_stmt 1
 262              		.loc 1 60 16 is_stmt 0
 263 01c8 17050000 		lla	a0,.LC3
 263      13050500 
 264 01d0 97000000 		call	_Z11printStringPKc@plt
 264      E7800000 
 265              	.LVL28:
  61:test/joinAllModif.cpp ****     finishedA = true;
 266              		.loc 1 61 5 is_stmt 1
 267              		.loc 1 61 15 is_stmt 0
 268 01d8 93071000 		li	a5,1
 269 01dc 17070000 		sb	a5,.LANCHOR0+120,a4
 269      2300F700 
  62:test/joinAllModif.cpp **** }
 270              		.loc 1 62 1
 271 01e4 83308102 		ld	ra,40(sp)
 272              		.cfi_restore 1
 273 01e8 03340102 		ld	s0,32(sp)
 274              		.cfi_restore 8
 275              		.cfi_def_cfa 2, 48
 276 01ec 83348101 		ld	s1,24(sp)
 277              		.cfi_restore 9
 278 01f0 03390101 		ld	s2,16(sp)
 279              		.cfi_restore 18
 280              	.LVL29:
 281 01f4 13010103 		addi	sp,sp,48
 282              		.cfi_def_cfa_offset 0
 283 01f8 67800000 		jr	ra
 284              		.cfi_endproc
 285              	.LFE22:
 287              		.section	.rodata.str1.8
GAS LISTING /tmp/ccxvhz29.s 			page 8


 288 003d 000000   		.align	3
 289              	.LC4:
 290 0040 42206372 		.string	"B created\n"
 290      65617465 
 290      640A00
 291 004b 00000000 		.align	3
 291      00
 292              	.LC5:
 293 0050 42206669 		.string	"B finished!\n"
 293      6E697368 
 293      6564210A 
 293      00
 294              		.text
 295              		.align	2
 297              	_ZL11workerBodyBPv:
 298              	.LFB21:
  23:test/joinAllModif.cpp ****     printString("B created\n");
 299              		.loc 1 23 36 is_stmt 1
 300              		.cfi_startproc
 301              	.LVL30:
 302 01fc 130101FD 		addi	sp,sp,-48
 303              		.cfi_def_cfa_offset 48
 304 0200 23341102 		sd	ra,40(sp)
 305 0204 23308102 		sd	s0,32(sp)
 306 0208 233C9100 		sd	s1,24(sp)
 307 020c 23382101 		sd	s2,16(sp)
 308 0210 23343101 		sd	s3,8(sp)
 309 0214 23304101 		sd	s4,0(sp)
 310              		.cfi_offset 1, -8
 311              		.cfi_offset 8, -16
 312              		.cfi_offset 9, -24
 313              		.cfi_offset 18, -32
 314              		.cfi_offset 19, -40
 315              		.cfi_offset 20, -48
 316 0218 13040103 		addi	s0,sp,48
 317              		.cfi_def_cfa 8, 0
 318 021c 93040500 		mv	s1,a0
  24:test/joinAllModif.cpp ****     int idT = *(int*)arg;
 319              		.loc 1 24 5
  24:test/joinAllModif.cpp ****     int idT = *(int*)arg;
 320              		.loc 1 24 16 is_stmt 0
 321 0220 17050000 		lla	a0,.LC4
 321      13050500 
 322              	.LVL31:
 323 0228 97000000 		call	_Z11printStringPKc@plt
 323      E7800000 
 324              	.LVL32:
  25:test/joinAllModif.cpp ****     thread_create(&threads[idT*3-1], workerBodyC, nullptr, &threads[idT]);
 325              		.loc 1 25 5 is_stmt 1
  25:test/joinAllModif.cpp ****     thread_create(&threads[idT*3-1], workerBodyC, nullptr, &threads[idT]);
 326              		.loc 1 25 9 is_stmt 0
 327 0230 83A70400 		lw	a5,0(s1)
 328              	.LVL33:
  26:test/joinAllModif.cpp ****     thread_create(&threads[idT*3], workerBodyC, nullptr, &threads[idT]);
 329              		.loc 1 26 5 is_stmt 1
  26:test/joinAllModif.cpp ****     thread_create(&threads[idT*3], workerBodyC, nullptr, &threads[idT]);
 330              		.loc 1 26 31 is_stmt 0
GAS LISTING /tmp/ccxvhz29.s 			page 9


 331 0234 9B941700 		slliw	s1,a5,1
 332              	.LVL34:
 333 0238 BB84F400 		addw	s1,s1,a5
 334 023c 1B8A0400 		sext.w	s4,s1
  26:test/joinAllModif.cpp ****     thread_create(&threads[idT*3], workerBodyC, nullptr, &threads[idT]);
 335              		.loc 1 26 33
 336 0240 1B85F4FF 		addiw	a0,s1,-1
  26:test/joinAllModif.cpp ****     thread_create(&threads[idT*3], workerBodyC, nullptr, &threads[idT]);
 337              		.loc 1 26 18
 338 0244 97090000 		lla	s3,.LANCHOR0
 338      93890900 
 339 024c 93973700 		slli	a5,a5,3
 340              	.LVL35:
 341 0250 3389F900 		add	s2,s3,a5
 342 0254 13153500 		slli	a0,a0,3
 343 0258 93060900 		mv	a3,s2
 344 025c 13060000 		li	a2,0
 345 0260 97050000 		lla	a1,_ZL11workerBodyCPv
 345      93850500 
 346 0268 3385A900 		add	a0,s3,a0
 347 026c 97000000 		call	_Z13thread_createPP3TCBPFvPvES2_S1_@plt
 347      E7800000 
 348              	.LVL36:
  27:test/joinAllModif.cpp ****     thread_create(&threads[idT*3+1], workerBodyC, nullptr, &threads[idT]);
 349              		.loc 1 27 5 is_stmt 1
  27:test/joinAllModif.cpp ****     thread_create(&threads[idT*3+1], workerBodyC, nullptr, &threads[idT]);
 350              		.loc 1 27 18 is_stmt 0
 351 0274 13153A00 		slli	a0,s4,3
 352 0278 93060900 		mv	a3,s2
 353 027c 13060000 		li	a2,0
 354 0280 97050000 		lla	a1,_ZL11workerBodyCPv
 354      93850500 
 355 0288 3385A900 		add	a0,s3,a0
 356 028c 97000000 		call	_Z13thread_createPP3TCBPFvPvES2_S1_@plt
 356      E7800000 
 357              	.LVL37:
  28:test/joinAllModif.cpp ****     joinAll();
 358              		.loc 1 28 5 is_stmt 1
  28:test/joinAllModif.cpp ****     joinAll();
 359              		.loc 1 28 33 is_stmt 0
 360 0294 1B851400 		addiw	a0,s1,1
  28:test/joinAllModif.cpp ****     joinAll();
 361              		.loc 1 28 18
 362 0298 13153500 		slli	a0,a0,3
 363 029c 93060900 		mv	a3,s2
 364 02a0 13060000 		li	a2,0
 365 02a4 97050000 		lla	a1,_ZL11workerBodyCPv
 365      93850500 
 366 02ac 3385A900 		add	a0,s3,a0
 367 02b0 97000000 		call	_Z13thread_createPP3TCBPFvPvES2_S1_@plt
 367      E7800000 
 368              	.LVL38:
  29:test/joinAllModif.cpp ****     for (uint64 i = 0; i < 10; i++) {
 369              		.loc 1 29 5 is_stmt 1
  29:test/joinAllModif.cpp ****     for (uint64 i = 0; i < 10; i++) {
 370              		.loc 1 29 12 is_stmt 0
 371 02b8 97000000 		call	_Z7joinAllv@plt
GAS LISTING /tmp/ccxvhz29.s 			page 10


 371      E7800000 
 372              	.LVL39:
  30:test/joinAllModif.cpp **** 
 373              		.loc 1 30 5 is_stmt 1
 374              	.LBB14:
  30:test/joinAllModif.cpp **** 
 375              		.loc 1 30 17 is_stmt 0
 376 02c0 13090000 		li	s2,0
 377 02c4 6F008003 		j	.L23
 378              	.LVL40:
 379              	.L20:
 380              	.LBB15:
 381              	.LBB16:
  34:test/joinAllModif.cpp ****         }
 382              		.loc 1 34 13 is_stmt 1 discriminator 2
  34:test/joinAllModif.cpp ****         }
 383              		.loc 1 34 28 is_stmt 0 discriminator 2
 384 02c8 97000000 		call	_Z15thread_dispatchv@plt
 384      E7800000 
 385              	.LVL41:
 386              	.LBE16:
  32:test/joinAllModif.cpp ****             for (uint64 k = 0; k < 30000; k++) { /* busy wait */ }
 387              		.loc 1 32 9 is_stmt 1 discriminator 2
 388 02d0 93841400 		addi	s1,s1,1
 389              	.LVL42:
 390              	.L22:
  32:test/joinAllModif.cpp ****             for (uint64 k = 0; k < 30000; k++) { /* busy wait */ }
 391              		.loc 1 32 30 discriminator 1
 392 02d4 B7270000 		li	a5,8192
 393 02d8 9387F770 		addi	a5,a5,1807
 394 02dc 63EE9700 		bgtu	s1,a5,.L19
 395              	.LBB18:
 396              	.LBB17:
  33:test/joinAllModif.cpp ****             thread_dispatch();
 397              		.loc 1 33 25 is_stmt 0
 398 02e0 13070000 		li	a4,0
 399              	.L21:
 400              	.LVL43:
  33:test/joinAllModif.cpp ****             thread_dispatch();
 401              		.loc 1 33 34 is_stmt 1 discriminator 3
 402 02e4 B7770000 		li	a5,28672
 403 02e8 9387F752 		addi	a5,a5,1327
 404 02ec E3EEE7FC 		bgtu	a4,a5,.L20
  33:test/joinAllModif.cpp ****             thread_dispatch();
 405              		.loc 1 33 13 discriminator 2
 406 02f0 13071700 		addi	a4,a4,1
 407              	.LVL44:
 408 02f4 6FF01FFF 		j	.L21
 409              	.LVL45:
 410              	.L19:
 411              	.LBE17:
 412              	.LBE18:
 413              	.LBE15:
  30:test/joinAllModif.cpp **** 
 414              		.loc 1 30 5 discriminator 2
 415 02f8 13091900 		addi	s2,s2,1
 416              	.LVL46:
GAS LISTING /tmp/ccxvhz29.s 			page 11


 417              	.L23:
  30:test/joinAllModif.cpp **** 
 418              		.loc 1 30 26 discriminator 1
 419 02fc 93079000 		li	a5,9
 420 0300 63E62701 		bgtu	s2,a5,.L18
 421              	.LBB19:
  32:test/joinAllModif.cpp ****             for (uint64 k = 0; k < 30000; k++) { /* busy wait */ }
 422              		.loc 1 32 21 is_stmt 0
 423 0304 93040000 		li	s1,0
 424 0308 6FF0DFFC 		j	.L22
 425              	.L18:
 426              	.LBE19:
 427              	.LBE14:
  37:test/joinAllModif.cpp **** }
 428              		.loc 1 37 5 is_stmt 1
  37:test/joinAllModif.cpp **** }
 429              		.loc 1 37 16 is_stmt 0
 430 030c 17050000 		lla	a0,.LC5
 430      13050500 
 431 0314 97000000 		call	_Z11printStringPKc@plt
 431      E7800000 
 432              	.LVL47:
  38:test/joinAllModif.cpp **** 
 433              		.loc 1 38 1
 434 031c 83308102 		ld	ra,40(sp)
 435              		.cfi_restore 1
 436 0320 03340102 		ld	s0,32(sp)
 437              		.cfi_restore 8
 438              		.cfi_def_cfa 2, 48
 439 0324 83348101 		ld	s1,24(sp)
 440              		.cfi_restore 9
 441 0328 03390101 		ld	s2,16(sp)
 442              		.cfi_restore 18
 443              	.LVL48:
 444 032c 83398100 		ld	s3,8(sp)
 445              		.cfi_restore 19
 446 0330 033A0100 		ld	s4,0(sp)
 447              		.cfi_restore 20
 448 0334 13010103 		addi	sp,sp,48
 449              		.cfi_def_cfa_offset 0
 450 0338 67800000 		jr	ra
 451              		.cfi_endproc
 452              	.LFE21:
 454              		.section	.rodata.str1.8
 455 005d 000000   		.align	3
 456              	.LC6:
 457 0060 54687265 		.string	"ThreadA created\n"
 457      61644120 
 457      63726561 
 457      7465640A 
 457      00
 458              		.text
 459              		.align	2
 460              		.globl	_Z12joinAllModifv
 462              	_Z12joinAllModifv:
 463              	.LFB23:
  63:test/joinAllModif.cpp **** 
GAS LISTING /tmp/ccxvhz29.s 			page 12


  64:test/joinAllModif.cpp **** void joinAllModif(){
 464              		.loc 1 64 20 is_stmt 1
 465              		.cfi_startproc
 466 033c 130101FF 		addi	sp,sp,-16
 467              		.cfi_def_cfa_offset 16
 468 0340 23341100 		sd	ra,8(sp)
 469 0344 23308100 		sd	s0,0(sp)
 470              		.cfi_offset 1, -8
 471              		.cfi_offset 8, -16
 472 0348 13040101 		addi	s0,sp,16
 473              		.cfi_def_cfa 8, 0
  65:test/joinAllModif.cpp **** 
  66:test/joinAllModif.cpp ****     thread_create(&threads[0], workerBodyA, nullptr);
 474              		.loc 1 66 5
 475              		.loc 1 66 18 is_stmt 0
 476 034c 13060000 		li	a2,0
 477 0350 97050000 		lla	a1,_ZL11workerBodyAPv
 477      93850500 
 478 0358 17050000 		lla	a0,.LANCHOR0
 478      13050500 
 479 0360 97000000 		call	_Z13thread_createPP3TCBPFvPvES2_@plt
 479      E7800000 
 480              	.LVL49:
  67:test/joinAllModif.cpp ****     printString("ThreadA created\n");
 481              		.loc 1 67 5 is_stmt 1
 482              		.loc 1 67 16 is_stmt 0
 483 0368 17050000 		lla	a0,.LC6
 483      13050500 
 484 0370 97000000 		call	_Z11printStringPKc@plt
 484      E7800000 
 485              	.LVL50:
 486              	.L27:
  68:test/joinAllModif.cpp **** 
  69:test/joinAllModif.cpp ****     while (!(finishedA)) {
 487              		.loc 1 69 5 is_stmt 1
 488              		.loc 1 69 12
 489              		.loc 1 69 14 is_stmt 0
 490 0378 97070000 		lbu	a5,.LANCHOR0+120
 490      83C70700 
 491              		.loc 1 69 12
 492 0380 63980700 		bnez	a5,.L25
  70:test/joinAllModif.cpp ****         thread_dispatch();
 493              		.loc 1 70 9 is_stmt 1
 494              		.loc 1 70 24 is_stmt 0
 495 0384 97000000 		call	_Z15thread_dispatchv@plt
 495      E7800000 
 496              	.LVL51:
  69:test/joinAllModif.cpp ****         thread_dispatch();
 497              		.loc 1 69 5
 498 038c 6FF0DFFE 		j	.L27
 499              	.L25:
  71:test/joinAllModif.cpp ****     }
  72:test/joinAllModif.cpp **** }...
 500              		.loc 1 72 1
 501 0390 83308100 		ld	ra,8(sp)
 502              		.cfi_restore 1
 503 0394 03340100 		ld	s0,0(sp)
GAS LISTING /tmp/ccxvhz29.s 			page 13


 504              		.cfi_restore 8
 505              		.cfi_def_cfa 2, 16
 506 0398 13010101 		addi	sp,sp,16
 507              		.cfi_def_cfa_offset 0
 508 039c 67800000 		jr	ra
 509              		.cfi_endproc
 510              	.LFE23:
 512              		.globl	threads
 513              		.bss
 514              		.align	3
 515              		.set	.LANCHOR0,. + 0
 518              	threads:
 519 0000 00000000 		.zero	120
 519      00000000 
 519      00000000 
 519      00000000 
 519      00000000 
 522              	_ZL9finishedA:
 523 0078 00       		.zero	1
 524              		.text
 525              	.Letext0:
 526              		.file 2 "test/../h/../lib/hw.h"
 527              		.file 3 "test/../h/tcb.hpp"
 528              		.file 4 "test/../h/syscall_c.hpp"
 529              		.file 5 "test/printing.hpp"
GAS LISTING /tmp/ccxvhz29.s 			page 14

