GAS LISTING /tmp/ccujMmIw.s 			page 1


   1              		.file	"matricaModif.cpp"
   2              		.option pic
   3              		.option norelax
   4              		.text
   5              	.Ltext0:
   6              		.section	.text._ZN7MatricaD2Ev,"axG",@progbits,_ZN7MatricaD5Ev,comdat
   7              		.align	2
   8              		.weak	_ZN7MatricaD2Ev
  10              	_ZN7MatricaD2Ev:
  11              	.LFB28:
  12              		.file 1 "test/matricaModif.cpp"
   1:test/matricaModif.cpp **** #include "matricaModif.hpp"
   2:test/matricaModif.cpp **** #include "../h/syscall_cpp.hpp"
   3:test/matricaModif.cpp **** #include "printing.hpp"
   4:test/matricaModif.cpp **** class Matrica: public Thread {
  13              		.loc 1 4 7
  14              		.cfi_startproc
  15              	.LVL0:
  16 0000 130101FF 		addi	sp,sp,-16
  17              		.cfi_def_cfa_offset 16
  18 0004 23341100 		sd	ra,8(sp)
  19 0008 23308100 		sd	s0,0(sp)
  20              		.cfi_offset 1, -8
  21              		.cfi_offset 8, -16
  22 000c 13040101 		addi	s0,sp,16
  23              		.cfi_def_cfa 8, 0
  24              	.LBB22:
  25              		.loc 1 4 7 is_stmt 0
  26 0010 97070000 		lla	a5,_ZTV7Matrica+16
  26      93870700 
  27 0018 2330F500 		sd	a5,0(a0)
  28 001c 97000000 		call	_ZN6ThreadD2Ev@plt
  28      E7800000 
  29              	.LVL1:
  30              	.LBE22:
  31 0024 83308100 		ld	ra,8(sp)
  32              		.cfi_restore 1
  33 0028 03340100 		ld	s0,0(sp)
  34              		.cfi_restore 8
  35              		.cfi_def_cfa 2, 16
  36 002c 13010101 		addi	sp,sp,16
  37              		.cfi_def_cfa_offset 0
  38 0030 67800000 		jr	ra
  39              		.cfi_endproc
  40              	.LFE28:
  42              		.weak	_ZN7MatricaD1Ev
  43              		.set	_ZN7MatricaD1Ev,_ZN7MatricaD2Ev
  44              		.section	.text._ZN7MatricaD0Ev,"axG",@progbits,_ZN7MatricaD5Ev,comdat
  45              		.align	2
  46              		.weak	_ZN7MatricaD0Ev
  48              	_ZN7MatricaD0Ev:
  49              	.LFB30:
  50              		.loc 1 4 7 is_stmt 1
  51              		.cfi_startproc
  52              	.LVL2:
  53 0000 130101FE 		addi	sp,sp,-32
  54              		.cfi_def_cfa_offset 32
GAS LISTING /tmp/ccujMmIw.s 			page 2


  55 0004 233C1100 		sd	ra,24(sp)
  56 0008 23388100 		sd	s0,16(sp)
  57 000c 23349100 		sd	s1,8(sp)
  58              		.cfi_offset 1, -8
  59              		.cfi_offset 8, -16
  60              		.cfi_offset 9, -24
  61 0010 13040102 		addi	s0,sp,32
  62              		.cfi_def_cfa 8, 0
  63 0014 93040500 		mv	s1,a0
  64              	.LVL3:
  65              	.LBB23:
  66              	.LBB24:
  67              		.loc 1 4 7 is_stmt 0
  68 0018 97070000 		lla	a5,_ZTV7Matrica+16
  68      93870700 
  69 0020 2330F500 		sd	a5,0(a0)
  70 0024 97000000 		call	_ZN6ThreadD2Ev@plt
  70      E7800000 
  71              	.LVL4:
  72              	.LBE24:
  73              	.LBE23:
  74 002c 13850400 		mv	a0,s1
  75 0030 97000000 		call	_ZdlPv@plt
  75      E7800000 
  76              	.LVL5:
  77 0038 83308101 		ld	ra,24(sp)
  78              		.cfi_restore 1
  79 003c 03340101 		ld	s0,16(sp)
  80              		.cfi_restore 8
  81              		.cfi_def_cfa 2, 32
  82 0040 83348100 		ld	s1,8(sp)
  83              		.cfi_restore 9
  84              	.LVL6:
  85 0044 13010102 		addi	sp,sp,32
  86              		.cfi_def_cfa_offset 0
  87 0048 67800000 		jr	ra
  88              		.cfi_endproc
  89              	.LFE30:
  91              		.section	.rodata.str1.8,"aMS",@progbits,1
  92              		.align	3
  93              	.LC0:
  94 0000 53756D20 		.string	"Sum of row is: "
  94      6F662072 
  94      6F772069 
  94      733A2000 
  95              		.align	3
  96              	.LC1:
  97 0010 0A00     		.string	"\n"
  98              		.text
  99              		.align	2
 100              		.globl	_ZN7Matrica9mnozenjeMEPv
 102              	_ZN7Matrica9mnozenjeMEPv:
 103              	.LFB24:
   5:test/matricaModif.cpp ****     void mnozenjeM(void* arg);
   6:test/matricaModif.cpp **** public:
   7:test/matricaModif.cpp ****     Matrica(int* row, int m, int* buffer, Semaphore* mutex, Semaphore* doneR):row(row),m(m), buff(b
   8:test/matricaModif.cpp ****     , doneRows(doneR) {}
GAS LISTING /tmp/ccujMmIw.s 			page 3


   9:test/matricaModif.cpp **** 
  10:test/matricaModif.cpp ****     void run() override {
  11:test/matricaModif.cpp ****         mnozenjeM(nullptr);
  12:test/matricaModif.cpp ****     }
  13:test/matricaModif.cpp **** private:
  14:test/matricaModif.cpp ****     int* row;
  15:test/matricaModif.cpp ****     int m;
  16:test/matricaModif.cpp ****     int* buff;
  17:test/matricaModif.cpp ****     Semaphore* mutex;
  18:test/matricaModif.cpp ****     Semaphore* doneRows;
  19:test/matricaModif.cpp **** };
  20:test/matricaModif.cpp **** 
  21:test/matricaModif.cpp **** void Matrica::mnozenjeM(void *arg) {
 104              		.loc 1 21 36 is_stmt 1
 105              		.cfi_startproc
 106              	.LVL7:
 107 0000 130101FE 		addi	sp,sp,-32
 108              		.cfi_def_cfa_offset 32
 109 0004 233C1100 		sd	ra,24(sp)
 110 0008 23388100 		sd	s0,16(sp)
 111 000c 23349100 		sd	s1,8(sp)
 112 0010 23302101 		sd	s2,0(sp)
 113              		.cfi_offset 1, -8
 114              		.cfi_offset 8, -16
 115              		.cfi_offset 9, -24
 116              		.cfi_offset 18, -32
 117 0014 13040102 		addi	s0,sp,32
 118              		.cfi_def_cfa 8, 0
 119 0018 93040500 		mv	s1,a0
  22:test/matricaModif.cpp ****     int sum=0;
 120              		.loc 1 22 5
 121              	.LVL8:
  23:test/matricaModif.cpp ****     for(int i=0;i<this->m;i++)
 122              		.loc 1 23 5
 123              	.LBB25:
 124              		.loc 1 23 13 is_stmt 0
 125 001c 93070000 		li	a5,0
 126              	.LBE25:
  22:test/matricaModif.cpp ****     int sum=0;
 127              		.loc 1 22 9
 128 0020 13090000 		li	s2,0
 129              	.LVL9:
 130              	.L7:
 131              	.LBB26:
 132              		.loc 1 23 18 is_stmt 1 discriminator 3
 133              		.loc 1 23 25 is_stmt 0 discriminator 3
 134 0024 03A78402 		lw	a4,40(s1)
 135              		.loc 1 23 18 discriminator 3
 136 0028 63D0E702 		ble	a4,a5,.L6
  24:test/matricaModif.cpp ****     {
  25:test/matricaModif.cpp ****         sum+=row[i];
 137              		.loc 1 25 9 is_stmt 1 discriminator 2
 138              		.loc 1 25 14 is_stmt 0 discriminator 2
 139 002c 03B70402 		ld	a4,32(s1)
 140              		.loc 1 25 19 discriminator 2
 141 0030 93962700 		slli	a3,a5,2
 142 0034 3307D700 		add	a4,a4,a3
GAS LISTING /tmp/ccujMmIw.s 			page 4


 143 0038 03270700 		lw	a4,0(a4)
 144              		.loc 1 25 12 discriminator 2
 145 003c 3B092701 		addw	s2,a4,s2
 146              	.LVL10:
  23:test/matricaModif.cpp ****     for(int i=0;i<this->m;i++)
 147              		.loc 1 23 5 is_stmt 1 discriminator 2
 148 0040 9B871700 		addiw	a5,a5,1
 149              	.LVL11:
 150 0044 6FF01FFE 		j	.L7
 151              	.LVL12:
 152              	.L6:
 153              	.LBE26:
  26:test/matricaModif.cpp ****     }
  27:test/matricaModif.cpp ****     printString("Sum of row is: ");
 154              		.loc 1 27 5
 155              		.loc 1 27 16 is_stmt 0
 156 0048 17050000 		lla	a0,.LC0
 156      13050500 
 157              	.LVL13:
 158 0050 97000000 		call	_Z11printStringPKc@plt
 158      E7800000 
 159              	.LVL14:
  28:test/matricaModif.cpp ****     printInt(sum);
 160              		.loc 1 28 5 is_stmt 1
 161              		.loc 1 28 13 is_stmt 0
 162 0058 13060000 		li	a2,0
 163 005c 9305A000 		li	a1,10
 164 0060 13050900 		mv	a0,s2
 165 0064 97000000 		call	_Z8printIntiii@plt
 165      E7800000 
 166              	.LVL15:
  29:test/matricaModif.cpp ****     printString("\n");
 167              		.loc 1 29 5 is_stmt 1
 168              		.loc 1 29 16 is_stmt 0
 169 006c 17050000 		lla	a0,.LC1
 169      13050500 
 170 0074 97000000 		call	_Z11printStringPKc@plt
 170      E7800000 
 171              	.LVL16:
  30:test/matricaModif.cpp ****     mutex->wait();
 172              		.loc 1 30 5 is_stmt 1
 173              		.loc 1 30 16 is_stmt 0
 174 007c 03B58403 		ld	a0,56(s1)
 175 0080 97000000 		call	_ZN9Semaphore4waitEv@plt
 175      E7800000 
 176              	.LVL17:
  31:test/matricaModif.cpp ****     *this->buff+=sum;
 177              		.loc 1 31 5 is_stmt 1
 178              		.loc 1 31 12 is_stmt 0
 179 0088 03B70403 		ld	a4,48(s1)
 180              		.loc 1 31 16
 181 008c 83270700 		lw	a5,0(a4)
 182 0090 3B892701 		addw	s2,a5,s2
 183              	.LVL18:
 184 0094 23202701 		sw	s2,0(a4)
  32:test/matricaModif.cpp ****     mutex->signal();
 185              		.loc 1 32 5 is_stmt 1
GAS LISTING /tmp/ccujMmIw.s 			page 5


 186              		.loc 1 32 18 is_stmt 0
 187 0098 03B58403 		ld	a0,56(s1)
 188 009c 97000000 		call	_ZN9Semaphore6signalEv@plt
 188      E7800000 
 189              	.LVL19:
  33:test/matricaModif.cpp ****     doneRows->signal();
 190              		.loc 1 33 5 is_stmt 1
 191              		.loc 1 33 21 is_stmt 0
 192 00a4 03B50404 		ld	a0,64(s1)
 193 00a8 97000000 		call	_ZN9Semaphore6signalEv@plt
 193      E7800000 
 194              	.LVL20:
  34:test/matricaModif.cpp **** }
 195              		.loc 1 34 1
 196 00b0 83308101 		ld	ra,24(sp)
 197              		.cfi_restore 1
 198 00b4 03340101 		ld	s0,16(sp)
 199              		.cfi_restore 8
 200              		.cfi_def_cfa 2, 32
 201 00b8 83348100 		ld	s1,8(sp)
 202              		.cfi_restore 9
 203              	.LVL21:
 204 00bc 03390100 		ld	s2,0(sp)
 205              		.cfi_restore 18
 206 00c0 13010102 		addi	sp,sp,32
 207              		.cfi_def_cfa_offset 0
 208 00c4 67800000 		jr	ra
 209              		.cfi_endproc
 210              	.LFE24:
 212              		.section	.text._ZN7Matrica3runEv,"axG",@progbits,_ZN7Matrica3runEv,comdat
 213              		.align	2
 214              		.weak	_ZN7Matrica3runEv
 216              	_ZN7Matrica3runEv:
 217              	.LFB23:
  10:test/matricaModif.cpp ****         mnozenjeM(nullptr);
 218              		.loc 1 10 10 is_stmt 1
 219              		.cfi_startproc
 220              	.LVL22:
 221 0000 130101FF 		addi	sp,sp,-16
 222              		.cfi_def_cfa_offset 16
 223 0004 23341100 		sd	ra,8(sp)
 224 0008 23308100 		sd	s0,0(sp)
 225              		.cfi_offset 1, -8
 226              		.cfi_offset 8, -16
 227 000c 13040101 		addi	s0,sp,16
 228              		.cfi_def_cfa 8, 0
  11:test/matricaModif.cpp ****     }
 229              		.loc 1 11 9
  11:test/matricaModif.cpp ****     }
 230              		.loc 1 11 18 is_stmt 0
 231 0010 93050000 		li	a1,0
 232 0014 97000000 		call	_ZN7Matrica9mnozenjeMEPv
 232      E7800000 
 233              	.LVL23:
  12:test/matricaModif.cpp **** private:
 234              		.loc 1 12 5
 235 001c 83308100 		ld	ra,8(sp)
GAS LISTING /tmp/ccujMmIw.s 			page 6


 236              		.cfi_restore 1
 237 0020 03340100 		ld	s0,0(sp)
 238              		.cfi_restore 8
 239              		.cfi_def_cfa 2, 16
 240 0024 13010101 		addi	sp,sp,16
 241              		.cfi_def_cfa_offset 0
 242 0028 67800000 		jr	ra
 243              		.cfi_endproc
 244              	.LFE23:
 246              		.section	.rodata.str1.8
 247 0012 00000000 		.align	3
 247      0000
 248              	.LC2:
 249 0018 556E6573 		.string	"Unesi broj vrsta i kolona matrice \n"
 249      69206272 
 249      6F6A2076 
 249      72737461 
 249      2069206B 
 250 003c 00000000 		.align	3
 251              	.LC3:
 252 0040 556E6573 		.string	"Unesi vrednosti matrice\n"
 252      69207672 
 252      65646E6F 
 252      73746920 
 252      6D617472 
 253 0059 00000000 		.align	3
 253      000000
 254              	.LC4:
 255 0060 53756D61 		.string	"Suma svih elemenata je: "
 255      20737669 
 255      6820656C 
 255      656D656E 
 255      61746120 
 256              		.text
 257              		.align	2
 258              		.globl	_Z11matricaMod1v
 260              	_Z11matricaMod1v:
 261              	.LFB25:
  35:test/matricaModif.cpp **** 
  36:test/matricaModif.cpp **** void matricaMod1(){
 262              		.loc 1 36 19 is_stmt 1
 263              		.cfi_startproc
 264              		.cfi_personality 0x9b,DW.ref.__gxx_personality_v0
 265              		.cfi_lsda 0x1b,.LLSDA25
 266 00c8 130101F9 		addi	sp,sp,-112
 267              		.cfi_def_cfa_offset 112
 268 00cc 23341106 		sd	ra,104(sp)
 269 00d0 23308106 		sd	s0,96(sp)
 270 00d4 233C9104 		sd	s1,88(sp)
 271 00d8 23382105 		sd	s2,80(sp)
 272 00dc 23343105 		sd	s3,72(sp)
 273 00e0 23304105 		sd	s4,64(sp)
 274 00e4 233C5103 		sd	s5,56(sp)
 275 00e8 23386103 		sd	s6,48(sp)
 276 00ec 23347103 		sd	s7,40(sp)
 277 00f0 23308103 		sd	s8,32(sp)
 278 00f4 233C9101 		sd	s9,24(sp)
GAS LISTING /tmp/ccujMmIw.s 			page 7


 279              		.cfi_offset 1, -8
 280              		.cfi_offset 8, -16
 281              		.cfi_offset 9, -24
 282              		.cfi_offset 18, -32
 283              		.cfi_offset 19, -40
 284              		.cfi_offset 20, -48
 285              		.cfi_offset 21, -56
 286              		.cfi_offset 22, -64
 287              		.cfi_offset 23, -72
 288              		.cfi_offset 24, -80
 289              		.cfi_offset 25, -88
 290 00f8 13040107 		addi	s0,sp,112
 291              		.cfi_def_cfa 8, 0
  37:test/matricaModif.cpp **** 
  38:test/matricaModif.cpp ****     char c;
 292              		.loc 1 38 5
  39:test/matricaModif.cpp ****     int n=0;
 293              		.loc 1 39 5
 294              	.LVL24:
  40:test/matricaModif.cpp ****     Semaphore* mutex = new Semaphore(1);
 295              		.loc 1 40 5
 296              		.loc 1 40 39 is_stmt 0
 297 00fc 13050002 		li	a0,32
 298              	.LEHB0:
 299 0100 97000000 		call	_Znwm@plt
 299      E7800000 
 300              	.LVL25:
 301              	.LEHE0:
 302 0108 930B0500 		mv	s7,a0
 303 010c 93051000 		li	a1,1
 304              	.LEHB1:
 305 0110 97000000 		call	_ZN9SemaphoreC1Ej@plt
 305      E7800000 
 306              	.LVL26:
 307              	.LEHE1:
  41:test/matricaModif.cpp ****     Semaphore* doneRows = new Semaphore(0);
 308              		.loc 1 41 5 is_stmt 1 discriminator 3
 309              		.loc 1 41 42 is_stmt 0 discriminator 3
 310 0118 13050002 		li	a0,32
 311              	.LEHB2:
 312 011c 97000000 		call	_Znwm@plt
 312      E7800000 
 313              	.LVL27:
 314              	.LEHE2:
 315 0124 130B0500 		mv	s6,a0
 316 0128 93050000 		li	a1,0
 317              	.LEHB3:
 318 012c 97000000 		call	_ZN9SemaphoreC1Ej@plt
 318      E7800000 
 319              	.LVL28:
 320              	.LEHE3:
  42:test/matricaModif.cpp **** 
  43:test/matricaModif.cpp ****     printString("Unesi broj vrsta i kolona matrice \n");
 321              		.loc 1 43 5 is_stmt 1 discriminator 3
 322              		.loc 1 43 16 is_stmt 0 discriminator 3
 323 0134 17050000 		lla	a0,.LC2
 323      13050500 
GAS LISTING /tmp/ccujMmIw.s 			page 8


 324              	.LEHB4:
 325 013c 97000000 		call	_Z11printStringPKc@plt
 325      E7800000 
 326              	.LVL29:
  44:test/matricaModif.cpp ****     int m=0;
 327              		.loc 1 44 9 discriminator 3
 328 0144 13090000 		li	s2,0
 329              	.L13:
 330              	.LVL30:
  45:test/matricaModif.cpp ****     while(c=getc(), (c>='0' && c<='9')){
 331              		.loc 1 45 5 is_stmt 1
 332              		.loc 1 45 19
 333              		.loc 1 45 17 is_stmt 0
 334 0148 97000000 		call	_Z4getcv@plt
 334      E7800000 
 335              	.LVL31:
 336              		.loc 1 45 29
 337 0150 9B0705FD 		addiw	a5,a0,-48
 338 0154 93F7F70F 		andi	a5,a5,0xff
 339              		.loc 1 45 19
 340 0158 13079000 		li	a4,9
 341 015c 636EF700 		bgtu	a5,a4,.L28
  46:test/matricaModif.cpp ****         m = m*10 + c -'0';
 342              		.loc 1 46 9 is_stmt 1
 343              		.loc 1 46 14 is_stmt 0
 344 0160 9B172900 		slliw	a5,s2,2
 345 0164 3B892701 		addw	s2,a5,s2
 346              	.LVL32:
 347 0168 1B191900 		slliw	s2,s2,1
 348              		.loc 1 46 18
 349 016c 3B09A900 		addw	s2,s2,a0
 350              		.loc 1 46 11
 351 0170 1B0909FD 		addiw	s2,s2,-48
  45:test/matricaModif.cpp ****     while(c=getc(), (c>='0' && c<='9')){
 352              		.loc 1 45 5
 353 0174 6FF05FFD 		j	.L13
 354              	.LVL33:
 355              	.L28:
  39:test/matricaModif.cpp ****     Semaphore* mutex = new Semaphore(1);
 356              		.loc 1 39 9
 357 0178 930A0000 		li	s5,0
 358              	.LVL34:
 359              	.L12:
  47:test/matricaModif.cpp ****     }
  48:test/matricaModif.cpp ****     while(c=getc(), (c>='0' && c<='9')){
 360              		.loc 1 48 5 is_stmt 1
 361              		.loc 1 48 19
 362              		.loc 1 48 17 is_stmt 0
 363 017c 97000000 		call	_Z4getcv@plt
 363      E7800000 
 364              	.LVL35:
 365              		.loc 1 48 29
 366 0184 9B0705FD 		addiw	a5,a0,-48
 367 0188 93F7F70F 		andi	a5,a5,0xff
 368              		.loc 1 48 19
 369 018c 13079000 		li	a4,9
 370 0190 636EF700 		bgtu	a5,a4,.L14
GAS LISTING /tmp/ccujMmIw.s 			page 9


  49:test/matricaModif.cpp ****         n = n*10 + c -'0';
 371              		.loc 1 49 9 is_stmt 1
 372              		.loc 1 49 14 is_stmt 0
 373 0194 9B972A00 		slliw	a5,s5,2
 374 0198 BB8A5701 		addw	s5,a5,s5
 375              	.LVL36:
 376 019c 9B9A1A00 		slliw	s5,s5,1
 377              		.loc 1 49 18
 378 01a0 BB8AAA00 		addw	s5,s5,a0
 379              		.loc 1 49 11
 380 01a4 9B8A0AFD 		addiw	s5,s5,-48
  48:test/matricaModif.cpp ****         n = n*10 + c -'0';
 381              		.loc 1 48 5
 382 01a8 6FF05FFD 		j	.L12
 383              	.LVL37:
 384              	.L14:
  50:test/matricaModif.cpp ****     }
  51:test/matricaModif.cpp ****     int* matrix = (int*) mem_alloc(n*m*sizeof(int));//linearizovana
 385              		.loc 1 51 5 is_stmt 1
 386              		.loc 1 51 37 is_stmt 0
 387 01ac 3B852A03 		mulw	a0,s5,s2
 388              	.LVL38:
 389              		.loc 1 51 35
 390 01b0 13152500 		slli	a0,a0,2
 391 01b4 97000000 		call	_Z9mem_allocm@plt
 391      E7800000 
 392              	.LVL39:
 393 01bc 130A0500 		mv	s4,a0
 394              	.LVL40:
  52:test/matricaModif.cpp ****     printString("Unesi vrednosti matrice\n");
 395              		.loc 1 52 5 is_stmt 1
 396              		.loc 1 52 16 is_stmt 0
 397 01c0 17050000 		lla	a0,.LC3
 397      13050500 
 398              	.LVL41:
 399 01c8 97000000 		call	_Z11printStringPKc@plt
 399      E7800000 
 400              	.LVL42:
 401              	.LBB27:
  53:test/matricaModif.cpp ****     for(int i=0;i<n;i++){
 402              		.loc 1 53 13
 403 01d0 93090000 		li	s3,0
 404 01d4 6F008005 		j	.L20
 405              	.LVL43:
 406              	.L17:
 407              	.LBB28:
 408              	.LBB29:
  54:test/matricaModif.cpp ****         for(int j=0;j<m;j++){
  55:test/matricaModif.cpp ****             int value=0;
  56:test/matricaModif.cpp ****             while(c=getc(),(c>='0' && c<='9')){
  57:test/matricaModif.cpp ****                 value = value *10 + c-'0';
  58:test/matricaModif.cpp ****             }
  59:test/matricaModif.cpp ****             matrix[i*m+j]=value;
 409              		.loc 1 59 13 is_stmt 1 discriminator 2
 410              		.loc 1 59 21 is_stmt 0 discriminator 2
 411 01d8 BB073903 		mulw	a5,s2,s3
 412              		.loc 1 59 23 discriminator 2
GAS LISTING /tmp/ccujMmIw.s 			page 10


 413 01dc BB879700 		addw	a5,a5,s1
 414              		.loc 1 59 25 discriminator 2
 415 01e0 93972700 		slli	a5,a5,2
 416 01e4 B307FA00 		add	a5,s4,a5
 417              		.loc 1 59 26 discriminator 2
 418 01e8 23A08701 		sw	s8,0(a5)
 419              	.LBE29:
  54:test/matricaModif.cpp ****         for(int j=0;j<m;j++){
 420              		.loc 1 54 9 is_stmt 1 discriminator 2
 421 01ec 9B841400 		addiw	s1,s1,1
 422              	.LVL44:
 423              	.L19:
  54:test/matricaModif.cpp ****         for(int j=0;j<m;j++){
 424              		.loc 1 54 22 discriminator 1
 425 01f0 63DC2403 		ble	s2,s1,.L16
 426              	.LBB30:
  55:test/matricaModif.cpp ****             while(c=getc(),(c>='0' && c<='9')){
 427              		.loc 1 55 17 is_stmt 0
 428 01f4 130C0000 		li	s8,0
 429              	.L18:
 430              	.LVL45:
  56:test/matricaModif.cpp ****                 value = value *10 + c-'0';
 431              		.loc 1 56 13 is_stmt 1
  56:test/matricaModif.cpp ****                 value = value *10 + c-'0';
 432              		.loc 1 56 27
  56:test/matricaModif.cpp ****                 value = value *10 + c-'0';
 433              		.loc 1 56 25 is_stmt 0
 434 01f8 97000000 		call	_Z4getcv@plt
 434      E7800000 
 435              	.LVL46:
  56:test/matricaModif.cpp ****                 value = value *10 + c-'0';
 436              		.loc 1 56 36
 437 0200 9B0705FD 		addiw	a5,a0,-48
 438 0204 93F7F70F 		andi	a5,a5,0xff
  56:test/matricaModif.cpp ****                 value = value *10 + c-'0';
 439              		.loc 1 56 27
 440 0208 13079000 		li	a4,9
 441 020c E366F7FC 		bgtu	a5,a4,.L17
  57:test/matricaModif.cpp ****             }
 442              		.loc 1 57 17 is_stmt 1
  57:test/matricaModif.cpp ****             }
 443              		.loc 1 57 31 is_stmt 0
 444 0210 9B172C00 		slliw	a5,s8,2
 445 0214 BB878701 		addw	a5,a5,s8
 446 0218 9B971700 		slliw	a5,a5,1
  57:test/matricaModif.cpp ****             }
 447              		.loc 1 57 35
 448 021c 3B85A700 		addw	a0,a5,a0
 449              	.LVL47:
  57:test/matricaModif.cpp ****             }
 450              		.loc 1 57 23
 451 0220 1B0C05FD 		addiw	s8,a0,-48
 452              	.LVL48:
  56:test/matricaModif.cpp ****                 value = value *10 + c-'0';
 453              		.loc 1 56 13
 454 0224 6FF05FFD 		j	.L18
 455              	.LVL49:
GAS LISTING /tmp/ccujMmIw.s 			page 11


 456              	.L16:
 457              	.LBE30:
 458              	.LBE28:
  53:test/matricaModif.cpp ****         for(int j=0;j<m;j++){
 459              		.loc 1 53 5 is_stmt 1 discriminator 2
 460 0228 9B891900 		addiw	s3,s3,1
 461              	.LVL50:
 462              	.L20:
  53:test/matricaModif.cpp ****         for(int j=0;j<m;j++){
 463              		.loc 1 53 18 discriminator 1
 464 022c 63D65901 		ble	s5,s3,.L15
 465              	.LBB31:
  54:test/matricaModif.cpp ****             int value=0;
 466              		.loc 1 54 17 is_stmt 0
 467 0230 93040000 		li	s1,0
 468 0234 6FF0DFFB 		j	.L19
 469              	.L15:
 470              	.LBE31:
 471              	.LBE27:
  60:test/matricaModif.cpp ****         }
  61:test/matricaModif.cpp ****     }
  62:test/matricaModif.cpp ****     Thread** threads = (Thread**) mem_alloc(n*sizeof (Thread*));
 472              		.loc 1 62 5 is_stmt 1
 473              		.loc 1 62 44 is_stmt 0
 474 0238 13953A00 		slli	a0,s5,3
 475 023c 97000000 		call	_Z9mem_allocm@plt
 475      E7800000 
 476              	.LVL51:
 477 0244 930C0500 		mv	s9,a0
 478              	.LVL52:
  63:test/matricaModif.cpp ****     int buffer = 0;
 479              		.loc 1 63 5 is_stmt 1
 480              		.loc 1 63 9 is_stmt 0
 481 0248 232E04F8 		sw	zero,-100(s0)
  64:test/matricaModif.cpp ****     for(int i=0;i<n;i++){
 482              		.loc 1 64 5 is_stmt 1
 483              	.LVL53:
 484              	.LBB32:
 485              		.loc 1 64 13 is_stmt 0
 486 024c 130C0000 		li	s8,0
 487 0250 6F008003 		j	.L22
 488              	.LVL54:
 489              	.L36:
 490              	.LBB33:
 491              	.LBB34:
   8:test/matricaModif.cpp **** 
 492              		.loc 1 8 21
 493 0254 97070000 		lla	a5,_ZTV7Matrica+16
 493      93870700 
 494 025c 23B0F400 		sd	a5,0(s1)
 495 0260 23B03403 		sd	s3,32(s1)
 496 0264 23A42403 		sw	s2,40(s1)
 497 0268 9307C4F9 		addi	a5,s0,-100
 498              	.LVL55:
 499 026c 23B8F402 		sd	a5,48(s1)
 500 0270 23BC7403 		sd	s7,56(s1)
 501 0274 23B06405 		sd	s6,64(s1)
GAS LISTING /tmp/ccujMmIw.s 			page 12


 502              	.LVL56:
 503              	.LBE34:
 504              	.LBE33:
  65:test/matricaModif.cpp ****         threads[i] = new Matrica(matrix + i*m, m, &buffer, mutex, doneRows);
 505              		.loc 1 65 18
 506 0278 93173C00 		slli	a5,s8,3
 507 027c B387FC00 		add	a5,s9,a5
 508              		.loc 1 65 20
 509 0280 23B09700 		sd	s1,0(a5)
  64:test/matricaModif.cpp ****     for(int i=0;i<n;i++){
 510              		.loc 1 64 5 is_stmt 1
 511 0284 1B0C1C00 		addiw	s8,s8,1
 512              	.LVL57:
 513              	.L22:
  64:test/matricaModif.cpp ****     for(int i=0;i<n;i++){
 514              		.loc 1 64 18 discriminator 2
 515 0288 63565C03 		ble	s5,s8,.L29
 516              		.loc 1 65 9
 517              		.loc 1 65 75 is_stmt 0
 518 028c 13058004 		li	a0,72
 519 0290 97000000 		call	_Znwm@plt
 519      E7800000 
 520              	.LVL58:
 521              	.LEHE4:
 522 0298 93040500 		mv	s1,a0
 523              		.loc 1 65 44
 524 029c BB098903 		mulw	s3,s2,s8
 525              		.loc 1 65 41
 526 02a0 93992900 		slli	s3,s3,2
 527              		.loc 1 65 75
 528 02a4 B3093A01 		add	s3,s4,s3
 529              	.LVL59:
 530              	.LEHB5:
 531              	.LBB36:
 532              	.LBB35:
   8:test/matricaModif.cpp **** 
 533              		.loc 1 8 21
 534 02a8 97000000 		call	_ZN6ThreadC2Ev@plt
 534      E7800000 
 535              	.LVL60:
 536              	.LEHE5:
 537 02b0 6FF05FFA 		j	.L36
 538              	.LVL61:
 539              	.L29:
 540              	.LBE35:
 541              	.LBE36:
 542              	.LBE32:
 543              	.LBB37:
  66:test/matricaModif.cpp ****     }
  67:test/matricaModif.cpp ****     for(int i=0;i<n;i++){
 544              		.loc 1 67 13
 545 02b4 93040000 		li	s1,0
 546              	.L21:
 547              	.LVL62:
 548              		.loc 1 67 18 is_stmt 1 discriminator 1
 549 02b8 63D05403 		ble	s5,s1,.L30
  68:test/matricaModif.cpp ****         threads[i]->start();
GAS LISTING /tmp/ccujMmIw.s 			page 13


 550              		.loc 1 68 9
 551              		.loc 1 68 18 is_stmt 0
 552 02bc 93973400 		slli	a5,s1,3
 553 02c0 B387FC00 		add	a5,s9,a5
 554              		.loc 1 68 26
 555 02c4 03B50700 		ld	a0,0(a5)
 556              	.LEHB6:
 557 02c8 97000000 		call	_ZN6Thread5startEv@plt
 557      E7800000 
 558              	.LVL63:
  67:test/matricaModif.cpp ****         threads[i]->start();
 559              		.loc 1 67 5 is_stmt 1
 560 02d0 9B841400 		addiw	s1,s1,1
 561              	.LVL64:
 562 02d4 6FF05FFE 		j	.L21
 563              	.LVL65:
 564              	.L30:
 565              	.LBE37:
 566              	.LBB38:
  69:test/matricaModif.cpp ****     }
  70:test/matricaModif.cpp ****     for(int i=0;i<n;i++){
 567              		.loc 1 70 13 is_stmt 0
 568 02d8 93040000 		li	s1,0
 569              	.LVL66:
 570 02dc 6F004001 		j	.L23
 571              	.LVL67:
 572              	.L37:
  71:test/matricaModif.cpp ****         doneRows->wait();
 573              		.loc 1 71 9 is_stmt 1
 574              		.loc 1 71 23 is_stmt 0
 575 02e0 13050B00 		mv	a0,s6
 576 02e4 97000000 		call	_ZN9Semaphore4waitEv@plt
 576      E7800000 
 577              	.LVL68:
  70:test/matricaModif.cpp ****         doneRows->wait();
 578              		.loc 1 70 5 is_stmt 1
 579 02ec 9B841400 		addiw	s1,s1,1
 580              	.LVL69:
 581              	.L23:
  70:test/matricaModif.cpp ****         doneRows->wait();
 582              		.loc 1 70 18 discriminator 1
 583 02f0 E3C854FF 		bgt	s5,s1,.L37
 584              	.LBE38:
  72:test/matricaModif.cpp ****     }
  73:test/matricaModif.cpp ****     printString("Suma svih elemenata je: ");
 585              		.loc 1 73 5
 586              		.loc 1 73 16 is_stmt 0
 587 02f4 17050000 		lla	a0,.LC4
 587      13050500 
 588 02fc 97000000 		call	_Z11printStringPKc@plt
 588      E7800000 
 589              	.LVL70:
  74:test/matricaModif.cpp ****     printInt(buffer);
 590              		.loc 1 74 5 is_stmt 1
 591              		.loc 1 74 13 is_stmt 0
 592 0304 13060000 		li	a2,0
 593 0308 9305A000 		li	a1,10
GAS LISTING /tmp/ccujMmIw.s 			page 14


 594 030c 0325C4F9 		lw	a0,-100(s0)
 595 0310 97000000 		call	_Z8printIntiii@plt
 595      E7800000 
 596              	.LVL71:
  75:test/matricaModif.cpp ****     printString("\n");
 597              		.loc 1 75 5 is_stmt 1
 598              		.loc 1 75 16 is_stmt 0
 599 0318 17050000 		lla	a0,.LC1
 599      13050500 
 600 0320 97000000 		call	_Z11printStringPKc@plt
 600      E7800000 
 601              	.LVL72:
 602              	.LEHE6:
  76:test/matricaModif.cpp **** }
 603              		.loc 1 76 1
 604 0328 83308106 		ld	ra,104(sp)
 605              		.cfi_remember_state
 606              		.cfi_restore 1
 607 032c 03340106 		ld	s0,96(sp)
 608              		.cfi_restore 8
 609              		.cfi_def_cfa 2, 112
 610 0330 83348105 		ld	s1,88(sp)
 611              		.cfi_restore 9
 612              	.LVL73:
 613 0334 03390105 		ld	s2,80(sp)
 614              		.cfi_restore 18
 615              	.LVL74:
 616 0338 83398104 		ld	s3,72(sp)
 617              		.cfi_restore 19
 618 033c 033A0104 		ld	s4,64(sp)
 619              		.cfi_restore 20
 620              	.LVL75:
 621 0340 833A8103 		ld	s5,56(sp)
 622              		.cfi_restore 21
 623              	.LVL76:
 624 0344 033B0103 		ld	s6,48(sp)
 625              		.cfi_restore 22
 626              	.LVL77:
 627 0348 833B8102 		ld	s7,40(sp)
 628              		.cfi_restore 23
 629              	.LVL78:
 630 034c 033C0102 		ld	s8,32(sp)
 631              		.cfi_restore 24
 632              	.LVL79:
 633 0350 833C8101 		ld	s9,24(sp)
 634              		.cfi_restore 25
 635              	.LVL80:
 636 0354 13010107 		addi	sp,sp,112
 637              		.cfi_def_cfa_offset 0
 638 0358 67800000 		jr	ra
 639              	.LVL81:
 640              	.L31:
 641              		.cfi_restore_state
 642 035c 93040500 		mv	s1,a0
  40:test/matricaModif.cpp ****     Semaphore* doneRows = new Semaphore(0);
 643              		.loc 1 40 39
 644 0360 13850B00 		mv	a0,s7
GAS LISTING /tmp/ccujMmIw.s 			page 15


 645 0364 97000000 		call	_ZdlPv@plt
 645      E7800000 
 646              	.LVL82:
 647 036c 13850400 		mv	a0,s1
 648              	.LEHB7:
 649 0370 97000000 		call	_Unwind_Resume@plt
 649      E7800000 
 650              	.LVL83:
 651              	.LEHE7:
 652              	.L32:
 653 0378 93040500 		mv	s1,a0
  41:test/matricaModif.cpp **** 
 654              		.loc 1 41 42
 655 037c 13050B00 		mv	a0,s6
 656 0380 97000000 		call	_ZdlPv@plt
 656      E7800000 
 657              	.LVL84:
 658 0388 13850400 		mv	a0,s1
 659              	.LEHB8:
 660 038c 97000000 		call	_Unwind_Resume@plt
 660      E7800000 
 661              	.LVL85:
 662              	.LEHE8:
 663              	.L33:
 664 0394 13090500 		mv	s2,a0
 665              	.LVL86:
 666              	.LBB39:
  65:test/matricaModif.cpp ****     }
 667              		.loc 1 65 75
 668 0398 13850400 		mv	a0,s1
 669 039c 97000000 		call	_ZdlPv@plt
 669      E7800000 
 670              	.LVL87:
 671 03a4 13050900 		mv	a0,s2
 672              	.LEHB9:
 673 03a8 97000000 		call	_Unwind_Resume@plt
 673      E7800000 
 674              	.LVL88:
 675              	.LEHE9:
 676              	.LBE39:
 677              		.cfi_endproc
 678              	.LFE25:
 679              		.globl	__gxx_personality_v0
 680              		.section	.gcc_except_table,"a",@progbits
 681              	.LLSDA25:
 682 0000 FF       		.byte	0xff
 683 0001 FF       		.byte	0xff
 684 0002 03       		.byte	0x3
 685 0003 8201     		.byte	0x82,0x1
 686 0005 00000000 		.4byte	.LEHB0-.LFB25
 687 0009 00000000 		.4byte	.LEHE0-.LEHB0
 688 000d 00000000 		.4byte	0
 689 0011 00       		.byte	0
 690 0012 00000000 		.4byte	.LEHB1-.LFB25
 691 0016 00000000 		.4byte	.LEHE1-.LEHB1
 692 001a 00000000 		.4byte	.L31-.LFB25
 693 001e 00       		.byte	0
GAS LISTING /tmp/ccujMmIw.s 			page 16


 694 001f 00000000 		.4byte	.LEHB2-.LFB25
 695 0023 00000000 		.4byte	.LEHE2-.LEHB2
 696 0027 00000000 		.4byte	0
 697 002b 00       		.byte	0
 698 002c 00000000 		.4byte	.LEHB3-.LFB25
 699 0030 00000000 		.4byte	.LEHE3-.LEHB3
 700 0034 00000000 		.4byte	.L32-.LFB25
 701 0038 00       		.byte	0
 702 0039 00000000 		.4byte	.LEHB4-.LFB25
 703 003d 00000000 		.4byte	.LEHE4-.LEHB4
 704 0041 00000000 		.4byte	0
 705 0045 00       		.byte	0
 706 0046 00000000 		.4byte	.LEHB5-.LFB25
 707 004a 00000000 		.4byte	.LEHE5-.LEHB5
 708 004e 00000000 		.4byte	.L33-.LFB25
 709 0052 00       		.byte	0
 710 0053 00000000 		.4byte	.LEHB6-.LFB25
 711 0057 00000000 		.4byte	.LEHE6-.LEHB6
 712 005b 00000000 		.4byte	0
 713 005f 00       		.byte	0
 714 0060 00000000 		.4byte	.LEHB7-.LFB25
 715 0064 00000000 		.4byte	.LEHE7-.LEHB7
 716 0068 00000000 		.4byte	0
 717 006c 00       		.byte	0
 718 006d 00000000 		.4byte	.LEHB8-.LFB25
 719 0071 00000000 		.4byte	.LEHE8-.LEHB8
 720 0075 00000000 		.4byte	0
 721 0079 00       		.byte	0
 722 007a 00000000 		.4byte	.LEHB9-.LFB25
 723 007e 00000000 		.4byte	.LEHE9-.LEHB9
 724 0082 00000000 		.4byte	0
 725 0086 00       		.byte	0
 726              		.text
 728              		.align	2
 729              		.globl	_Z10matricaModv
 731              	_Z10matricaModv:
 732              	.LFB26:
  77:test/matricaModif.cpp **** 
  78:test/matricaModif.cpp **** void matricaMod(){
 733              		.loc 1 78 18 is_stmt 1
 734              		.cfi_startproc
 735              		.cfi_personality 0x9b,DW.ref.__gxx_personality_v0
 736              		.cfi_lsda 0x1b,.LLSDA26
 737 03b0 130101F7 		addi	sp,sp,-144
 738              		.cfi_def_cfa_offset 144
 739 03b4 23341108 		sd	ra,136(sp)
 740 03b8 23308108 		sd	s0,128(sp)
 741 03bc 233C9106 		sd	s1,120(sp)
 742 03c0 23382107 		sd	s2,112(sp)
 743 03c4 23343107 		sd	s3,104(sp)
 744 03c8 23304107 		sd	s4,96(sp)
 745 03cc 233C5105 		sd	s5,88(sp)
 746 03d0 23386105 		sd	s6,80(sp)
 747              		.cfi_offset 1, -8
 748              		.cfi_offset 8, -16
 749              		.cfi_offset 9, -24
 750              		.cfi_offset 18, -32
GAS LISTING /tmp/ccujMmIw.s 			page 17


 751              		.cfi_offset 19, -40
 752              		.cfi_offset 20, -48
 753              		.cfi_offset 21, -56
 754              		.cfi_offset 22, -64
 755 03d4 13040109 		addi	s0,sp,144
 756              		.cfi_def_cfa 8, 0
  79:test/matricaModif.cpp ****     Semaphore* mutex = new Semaphore(1);
 757              		.loc 1 79 5
 758              		.loc 1 79 39 is_stmt 0
 759 03d8 13050002 		li	a0,32
 760              	.LEHB10:
 761 03dc 97000000 		call	_Znwm@plt
 761      E7800000 
 762              	.LVL89:
 763              	.LEHE10:
 764 03e4 130A0500 		mv	s4,a0
 765 03e8 93051000 		li	a1,1
 766              	.LEHB11:
 767 03ec 97000000 		call	_ZN9SemaphoreC1Ej@plt
 767      E7800000 
 768              	.LVL90:
 769              	.LEHE11:
  80:test/matricaModif.cpp ****     Semaphore* doneRows = new Semaphore(0);
 770              		.loc 1 80 5 is_stmt 1 discriminator 3
 771              		.loc 1 80 42 is_stmt 0 discriminator 3
 772 03f4 13050002 		li	a0,32
 773              	.LEHB12:
 774 03f8 97000000 		call	_Znwm@plt
 774      E7800000 
 775              	.LVL91:
 776              	.LEHE12:
 777 0400 93090500 		mv	s3,a0
 778 0404 93050000 		li	a1,0
 779              	.LEHB13:
 780 0408 97000000 		call	_ZN9SemaphoreC1Ej@plt
 780      E7800000 
 781              	.LVL92:
 782              	.LEHE13:
  81:test/matricaModif.cpp ****     Thread* threads[9];
 783              		.loc 1 81 5 is_stmt 1 discriminator 3
  82:test/matricaModif.cpp ****     int* matrica = (int*)mem_alloc(sizeof(int)*9);
 784              		.loc 1 82 5 discriminator 3
 785              		.loc 1 82 35 is_stmt 0 discriminator 3
 786 0410 13054002 		li	a0,36
 787              	.LEHB14:
 788 0414 97000000 		call	_Z9mem_allocm@plt
 788      E7800000 
 789              	.LVL93:
 790 041c 13090500 		mv	s2,a0
 791              	.LBB40:
  83:test/matricaModif.cpp ****     int n=3;
  84:test/matricaModif.cpp ****     int m=3;
  85:test/matricaModif.cpp ****     int k=0;
  86:test/matricaModif.cpp ****     for(int i=0;i<n;i++){
 792              		.loc 1 86 13 discriminator 3
 793 0420 93060000 		li	a3,0
 794              	.LBE40:
GAS LISTING /tmp/ccujMmIw.s 			page 18


  85:test/matricaModif.cpp ****     for(int i=0;i<n;i++){
 795              		.loc 1 85 9 discriminator 3
 796 0424 93050000 		li	a1,0
 797 0428 6F004003 		j	.L42
 798              	.LVL94:
 799              	.L57:
 800              	.LBB43:
 801              	.LBB41:
  87:test/matricaModif.cpp ****         for(int j=0;j<m;j++){
  88:test/matricaModif.cpp ****             matrica[i*n +j] = ++k;
 802              		.loc 1 88 13 is_stmt 1 discriminator 2
 803              		.loc 1 88 29 is_stmt 0 discriminator 2
 804 042c 1B861500 		addiw	a2,a1,1
 805 0430 9B050600 		sext.w	a1,a2
 806              	.LVL95:
 807              		.loc 1 88 22 discriminator 2
 808 0434 9B971600 		slliw	a5,a3,1
 809 0438 BB87D700 		addw	a5,a5,a3
 810              		.loc 1 88 25 discriminator 2
 811 043c BB87E700 		addw	a5,a5,a4
 812              		.loc 1 88 27 discriminator 2
 813 0440 93972700 		slli	a5,a5,2
 814 0444 B307F900 		add	a5,s2,a5
 815              		.loc 1 88 29 discriminator 2
 816 0448 23A0C700 		sw	a2,0(a5)
  87:test/matricaModif.cpp ****         for(int j=0;j<m;j++){
 817              		.loc 1 87 9 is_stmt 1 discriminator 2
 818 044c 1B071700 		addiw	a4,a4,1
 819              	.LVL96:
 820              	.L41:
  87:test/matricaModif.cpp ****         for(int j=0;j<m;j++){
 821              		.loc 1 87 22 discriminator 3
 822 0450 93072000 		li	a5,2
 823 0454 E3DCE7FC 		ble	a4,a5,.L57
 824              	.LBE41:
  86:test/matricaModif.cpp ****         for(int j=0;j<m;j++){
 825              		.loc 1 86 5 discriminator 2
 826 0458 9B861600 		addiw	a3,a3,1
 827              	.LVL97:
 828              	.L42:
  86:test/matricaModif.cpp ****         for(int j=0;j<m;j++){
 829              		.loc 1 86 18 discriminator 1
 830 045c 93072000 		li	a5,2
 831 0460 63C6D700 		bgt	a3,a5,.L39
 832              	.LBB42:
  87:test/matricaModif.cpp ****         for(int j=0;j<m;j++){
 833              		.loc 1 87 17 is_stmt 0
 834 0464 13070000 		li	a4,0
 835 0468 6FF09FFE 		j	.L41
 836              	.L39:
 837              	.LBE42:
 838              	.LBE43:
  89:test/matricaModif.cpp ****         }
  90:test/matricaModif.cpp ****     }
  91:test/matricaModif.cpp ****     int buffer = 0;
 839              		.loc 1 91 5 is_stmt 1
 840              		.loc 1 91 9 is_stmt 0
GAS LISTING /tmp/ccujMmIw.s 			page 19


 841 046c 232A04F6 		sw	zero,-140(s0)
  92:test/matricaModif.cpp ****     for(int i=0;i<n;i++){
 842              		.loc 1 92 5 is_stmt 1
 843              	.LVL98:
 844              	.LBB44:
 845              		.loc 1 92 13 is_stmt 0
 846 0470 130B0000 		li	s6,0
 847 0474 6F000004 		j	.L44
 848              	.LVL99:
 849              	.L58:
 850              	.LBB45:
 851              	.LBB46:
   8:test/matricaModif.cpp **** 
 852              		.loc 1 8 21
 853 0478 97070000 		lla	a5,_ZTV7Matrica+16
 853      93870700 
 854 0480 23B0F400 		sd	a5,0(s1)
 855 0484 23B05403 		sd	s5,32(s1)
 856 0488 93073000 		li	a5,3
 857 048c 23A4F402 		sw	a5,40(s1)
 858 0490 930744F7 		addi	a5,s0,-140
 859              	.LVL100:
 860 0494 23B8F402 		sd	a5,48(s1)
 861 0498 23BC4403 		sd	s4,56(s1)
 862 049c 23B03405 		sd	s3,64(s1)
 863              	.LVL101:
 864              	.LBE46:
 865              	.LBE45:
  93:test/matricaModif.cpp ****         threads[i] = new Matrica(matrica + i*m, m, &buffer, mutex, doneRows);
 866              		.loc 1 93 20
 867 04a0 93173B00 		slli	a5,s6,3
 868 04a4 130704FC 		addi	a4,s0,-64
 869 04a8 B307F700 		add	a5,a4,a5
 870 04ac 23BC97FA 		sd	s1,-72(a5)
  92:test/matricaModif.cpp ****     for(int i=0;i<n;i++){
 871              		.loc 1 92 5 is_stmt 1
 872 04b0 1B0B1B00 		addiw	s6,s6,1
 873              	.LVL102:
 874              	.L44:
  92:test/matricaModif.cpp ****     for(int i=0;i<n;i++){
 875              		.loc 1 92 18 discriminator 2
 876 04b4 93072000 		li	a5,2
 877 04b8 63C86703 		bgt	s6,a5,.L50
 878              		.loc 1 93 9
 879              		.loc 1 93 76 is_stmt 0
 880 04bc 13058004 		li	a0,72
 881 04c0 97000000 		call	_Znwm@plt
 881      E7800000 
 882              	.LVL103:
 883              	.LEHE14:
 884 04c8 93040500 		mv	s1,a0
 885              		.loc 1 93 45
 886 04cc 9B1A1B00 		slliw	s5,s6,1
 887 04d0 BB8A6A01 		addw	s5,s5,s6
 888              		.loc 1 93 42
 889 04d4 939A2A00 		slli	s5,s5,2
 890              		.loc 1 93 76
GAS LISTING /tmp/ccujMmIw.s 			page 20


 891 04d8 B30A5901 		add	s5,s2,s5
 892              	.LVL104:
 893              	.LEHB15:
 894              	.LBB48:
 895              	.LBB47:
   8:test/matricaModif.cpp **** 
 896              		.loc 1 8 21
 897 04dc 97000000 		call	_ZN6ThreadC2Ev@plt
 897      E7800000 
 898              	.LVL105:
 899              	.LEHE15:
 900 04e4 6FF05FF9 		j	.L58
 901              	.LVL106:
 902              	.L50:
 903              	.LBE47:
 904              	.LBE48:
 905              	.LBE44:
 906              	.LBB49:
  94:test/matricaModif.cpp ****     }
  95:test/matricaModif.cpp ****     for(int i=0;i<n;i++){
 907              		.loc 1 95 13
 908 04e8 93040000 		li	s1,0
 909              	.L43:
 910              	.LVL107:
 911              		.loc 1 95 18 is_stmt 1 discriminator 1
 912 04ec 93072000 		li	a5,2
 913 04f0 63C29702 		bgt	s1,a5,.L51
  96:test/matricaModif.cpp ****         threads[i]->start();
 914              		.loc 1 96 9
 915              		.loc 1 96 18 is_stmt 0
 916 04f4 93973400 		slli	a5,s1,3
 917 04f8 130704FC 		addi	a4,s0,-64
 918 04fc B307F700 		add	a5,a4,a5
 919              		.loc 1 96 26
 920 0500 03B587FB 		ld	a0,-72(a5)
 921              	.LEHB16:
 922 0504 97000000 		call	_ZN6Thread5startEv@plt
 922      E7800000 
 923              	.LVL108:
  95:test/matricaModif.cpp ****         threads[i]->start();
 924              		.loc 1 95 5 is_stmt 1
 925 050c 9B841400 		addiw	s1,s1,1
 926              	.LVL109:
 927 0510 6FF0DFFD 		j	.L43
 928              	.LVL110:
 929              	.L51:
 930              	.LBE49:
 931              	.LBB50:
  97:test/matricaModif.cpp ****     }
  98:test/matricaModif.cpp ****     for(int i=0;i<n;i++){
 932              		.loc 1 98 13 is_stmt 0
 933 0514 93040000 		li	s1,0
 934              	.LVL111:
 935              	.L45:
 936              		.loc 1 98 18 is_stmt 1 discriminator 1
 937 0518 93072000 		li	a5,2
 938 051c 63CC9700 		bgt	s1,a5,.L46
GAS LISTING /tmp/ccujMmIw.s 			page 21


  99:test/matricaModif.cpp ****         doneRows->wait();
 939              		.loc 1 99 9
 940              		.loc 1 99 23 is_stmt 0
 941 0520 13850900 		mv	a0,s3
 942 0524 97000000 		call	_ZN9Semaphore4waitEv@plt
 942      E7800000 
 943              	.LVL112:
  98:test/matricaModif.cpp ****         doneRows->wait();
 944              		.loc 1 98 5 is_stmt 1
 945 052c 9B841400 		addiw	s1,s1,1
 946              	.LVL113:
 947 0530 6FF09FFE 		j	.L45
 948              	.LVL114:
 949              	.L46:
 950              	.LBE50:
 100:test/matricaModif.cpp ****     }
 101:test/matricaModif.cpp ****     printString("Suma svih elemenata je: ");
 951              		.loc 1 101 5
 952              		.loc 1 101 16 is_stmt 0
 953 0534 17050000 		lla	a0,.LC4
 953      13050500 
 954 053c 97000000 		call	_Z11printStringPKc@plt
 954      E7800000 
 955              	.LVL115:
 102:test/matricaModif.cpp ****     printInt(buffer);
 956              		.loc 1 102 5 is_stmt 1
 957              		.loc 1 102 13 is_stmt 0
 958 0544 13060000 		li	a2,0
 959 0548 9305A000 		li	a1,10
 960 054c 032544F7 		lw	a0,-140(s0)
 961 0550 97000000 		call	_Z8printIntiii@plt
 961      E7800000 
 962              	.LVL116:
 103:test/matricaModif.cpp ****     printString("\n");
 963              		.loc 1 103 5 is_stmt 1
 964              		.loc 1 103 16 is_stmt 0
 965 0558 17050000 		lla	a0,.LC1
 965      13050500 
 966 0560 97000000 		call	_Z11printStringPKc@plt
 966      E7800000 
 967              	.LVL117:
 968              	.LEHE16:
 104:test/matricaModif.cpp **** }...
 969              		.loc 1 104 1
 970 0568 83308108 		ld	ra,136(sp)
 971              		.cfi_remember_state
 972              		.cfi_restore 1
 973 056c 03340108 		ld	s0,128(sp)
 974              		.cfi_restore 8
 975              		.cfi_def_cfa 2, 144
 976 0570 83348107 		ld	s1,120(sp)
 977              		.cfi_restore 9
 978              	.LVL118:
 979 0574 03390107 		ld	s2,112(sp)
 980              		.cfi_restore 18
 981 0578 83398106 		ld	s3,104(sp)
 982              		.cfi_restore 19
GAS LISTING /tmp/ccujMmIw.s 			page 22


 983              	.LVL119:
 984 057c 033A0106 		ld	s4,96(sp)
 985              		.cfi_restore 20
 986              	.LVL120:
 987 0580 833A8105 		ld	s5,88(sp)
 988              		.cfi_restore 21
 989 0584 033B0105 		ld	s6,80(sp)
 990              		.cfi_restore 22
 991              	.LVL121:
 992 0588 13010109 		addi	sp,sp,144
 993              		.cfi_def_cfa_offset 0
 994 058c 67800000 		jr	ra
 995              	.L52:
 996              		.cfi_restore_state
 997 0590 93040500 		mv	s1,a0
  79:test/matricaModif.cpp ****     Semaphore* mutex = new Semaphore(1);
 998              		.loc 1 79 39
 999 0594 13050A00 		mv	a0,s4
 1000 0598 97000000 		call	_ZdlPv@plt
 1000      E7800000 
 1001              	.LVL122:
 1002 05a0 13850400 		mv	a0,s1
 1003              	.LEHB17:
 1004 05a4 97000000 		call	_Unwind_Resume@plt
 1004      E7800000 
 1005              	.LVL123:
 1006              	.LEHE17:
 1007              	.L53:
 1008 05ac 93040500 		mv	s1,a0
  80:test/matricaModif.cpp ****     Semaphore* doneRows = new Semaphore(0);
 1009              		.loc 1 80 42
 1010 05b0 13850900 		mv	a0,s3
 1011 05b4 97000000 		call	_ZdlPv@plt
 1011      E7800000 
 1012              	.LVL124:
 1013 05bc 13850400 		mv	a0,s1
 1014              	.LEHB18:
 1015 05c0 97000000 		call	_Unwind_Resume@plt
 1015      E7800000 
 1016              	.LVL125:
 1017              	.LEHE18:
 1018              	.L54:
 1019 05c8 13090500 		mv	s2,a0
 1020              	.LBB51:
  93:test/matricaModif.cpp ****         threads[i] = new Matrica(matrica + i*m, m, &buffer, mutex, doneRows);
 1021              		.loc 1 93 76
 1022 05cc 13850400 		mv	a0,s1
 1023 05d0 97000000 		call	_ZdlPv@plt
 1023      E7800000 
 1024              	.LVL126:
 1025 05d8 13050900 		mv	a0,s2
 1026              	.LEHB19:
 1027 05dc 97000000 		call	_Unwind_Resume@plt
 1027      E7800000 
 1028              	.LVL127:
 1029              	.LEHE19:
 1030              	.LBE51:
GAS LISTING /tmp/ccujMmIw.s 			page 23


 1031              		.cfi_endproc
 1032              	.LFE26:
 1033              		.section	.gcc_except_table
 1034              	.LLSDA26:
 1035 0087 FF       		.byte	0xff
 1036 0088 FF       		.byte	0xff
 1037 0089 03       		.byte	0x3
 1038 008a 8201     		.byte	0x82,0x1
 1039 008c 00000000 		.4byte	.LEHB10-.LFB26
 1040 0090 00000000 		.4byte	.LEHE10-.LEHB10
 1041 0094 00000000 		.4byte	0
 1042 0098 00       		.byte	0
 1043 0099 00000000 		.4byte	.LEHB11-.LFB26
 1044 009d 00000000 		.4byte	.LEHE11-.LEHB11
 1045 00a1 00000000 		.4byte	.L52-.LFB26
 1046 00a5 00       		.byte	0
 1047 00a6 00000000 		.4byte	.LEHB12-.LFB26
 1048 00aa 00000000 		.4byte	.LEHE12-.LEHB12
 1049 00ae 00000000 		.4byte	0
 1050 00b2 00       		.byte	0
 1051 00b3 00000000 		.4byte	.LEHB13-.LFB26
 1052 00b7 00000000 		.4byte	.LEHE13-.LEHB13
 1053 00bb 00000000 		.4byte	.L53-.LFB26
 1054 00bf 00       		.byte	0
 1055 00c0 00000000 		.4byte	.LEHB14-.LFB26
 1056 00c4 00000000 		.4byte	.LEHE14-.LEHB14
 1057 00c8 00000000 		.4byte	0
 1058 00cc 00       		.byte	0
 1059 00cd 00000000 		.4byte	.LEHB15-.LFB26
 1060 00d1 00000000 		.4byte	.LEHE15-.LEHB15
 1061 00d5 00000000 		.4byte	.L54-.LFB26
 1062 00d9 00       		.byte	0
 1063 00da 00000000 		.4byte	.LEHB16-.LFB26
 1064 00de 00000000 		.4byte	.LEHE16-.LEHB16
 1065 00e2 00000000 		.4byte	0
 1066 00e6 00       		.byte	0
 1067 00e7 00000000 		.4byte	.LEHB17-.LFB26
 1068 00eb 00000000 		.4byte	.LEHE17-.LEHB17
 1069 00ef 00000000 		.4byte	0
 1070 00f3 00       		.byte	0
 1071 00f4 00000000 		.4byte	.LEHB18-.LFB26
 1072 00f8 00000000 		.4byte	.LEHE18-.LEHB18
 1073 00fc 00000000 		.4byte	0
 1074 0100 00       		.byte	0
 1075 0101 00000000 		.4byte	.LEHB19-.LFB26
 1076 0105 00000000 		.4byte	.LEHE19-.LEHB19
 1077 0109 00000000 		.4byte	0
 1078 010d 00       		.byte	0
 1079              		.text
 1081              		.weak	_ZTV7Matrica
 1082              		.section	.data.rel.ro.local._ZTV7Matrica,"awG",@progbits,_ZTV7Matrica,comdat
 1083              		.align	3
 1086              	_ZTV7Matrica:
 1087 0000 00000000 		.dword	0
 1087      00000000 
 1088 0008 00000000 		.dword	0
 1088      00000000 
GAS LISTING /tmp/ccujMmIw.s 			page 24


 1089 0010 00000000 		.dword	_ZN7MatricaD1Ev
 1089      00000000 
 1090 0018 00000000 		.dword	_ZN7MatricaD0Ev
 1090      00000000 
 1091 0020 00000000 		.dword	_ZN7Matrica3runEv
 1091      00000000 
 1092              		.text
 1093              	.Letext0:
 1094              		.file 2 "test/../h/../lib/hw.h"
 1095              		.file 3 "test/../h/syscall_cpp.hpp"
 1096              		.file 4 "test/../h/syscall_c.hpp"
 1097              		.file 5 "test/printing.hpp"
 4175              		.align	3
 4178              	DW.ref.__gxx_personality_v0:
 4179 0000 00000000 		.dword	__gxx_personality_v0
 4179      00000000 
 4180              		.ident	"GCC: (Ubuntu 9.4.0-1ubuntu1~20.04) 9.4.0"
 4181              		.section	.note.GNU-stack,"",@progbits
GAS LISTING /tmp/ccujMmIw.s 			page 25

