GAS LISTING /tmp/ccfQb0wj.s 			page 1


   1              		.file	"ownerModif.cpp"
   2              		.option pic
   3              		.option norelax
   4              		.text
   5              	.Ltext0:
   6              		.section	.rodata._ZN11OwnerThread3runEv.str1.8,"aMS",@progbits,1
   7              		.align	3
   8              	.LC0:
   9 0000 4F766F20 		.string	"Ovo je neki moj ispis\n"
   9      6A65206E 
   9      656B6920 
   9      6D6F6A20 
   9      69737069 
  10              		.section	.text._ZN11OwnerThread3runEv,"axG",@progbits,_ZN11OwnerThread3runEv,comdat
  11              		.align	2
  12              		.weak	_ZN11OwnerThread3runEv
  14              	_ZN11OwnerThread3runEv:
  15              	.LFB23:
  16              		.file 1 "test/ownerModif.cpp"
   1:test/ownerModif.cpp **** #include "ownerModif.hpp"
   2:test/ownerModif.cpp **** #include "../h/syscall_cpp.hpp"
   3:test/ownerModif.cpp **** #include "printing.hpp"
   4:test/ownerModif.cpp **** 
   5:test/ownerModif.cpp **** 
   6:test/ownerModif.cpp **** 
   7:test/ownerModif.cpp **** class OwnerThread:public Thread{
   8:test/ownerModif.cpp **** public:
   9:test/ownerModif.cpp ****     OwnerThread(int idntf, Semaphore* s, Semaphore* own):idt(idntf), waitForAll(s), semOwn(own){}
  10:test/ownerModif.cpp ****     void run() override{
  17              		.loc 1 10 10
  18              		.cfi_startproc
  19              	.LVL0:
  20 0000 130101FE 		addi	sp,sp,-32
  21              		.cfi_def_cfa_offset 32
  22 0004 233C1100 		sd	ra,24(sp)
  23 0008 23388100 		sd	s0,16(sp)
  24 000c 23349100 		sd	s1,8(sp)
  25 0010 23302101 		sd	s2,0(sp)
  26              		.cfi_offset 1, -8
  27              		.cfi_offset 8, -16
  28              		.cfi_offset 9, -24
  29              		.cfi_offset 18, -32
  30 0014 13040102 		addi	s0,sp,32
  31              		.cfi_def_cfa 8, 0
  32 0018 93040500 		mv	s1,a0
  11:test/ownerModif.cpp ****         int id = getThreadId();
  33              		.loc 1 11 9
  34              		.loc 1 11 29 is_stmt 0
  35 001c 97000000 		call	_Z11getThreadIdv@plt
  35      E7800000 
  36              	.LVL1:
  37 0024 13090500 		mv	s2,a0
  38              	.LVL2:
  12:test/ownerModif.cpp ****         if(id%2==0){
  39              		.loc 1 12 9 is_stmt 1
  40              		.loc 1 12 16 is_stmt 0
  41 0028 93771500 		andi	a5,a0,1
GAS LISTING /tmp/ccfQb0wj.s 			page 2


  42              		.loc 1 12 9
  43 002c 638E0704 		beqz	a5,.L5
  44              	.LVL3:
  45              	.L2:
  13:test/ownerModif.cpp ****             semOwn->addOwner();
  14:test/ownerModif.cpp ****         }
  15:test/ownerModif.cpp ****         if((id)%3==0){
  46              		.loc 1 15 9 is_stmt 1
  47              		.loc 1 15 16 is_stmt 0
  48 0030 93073000 		li	a5,3
  49 0034 BB67F902 		remw	a5,s2,a5
  50              		.loc 1 15 9
  51 0038 63800706 		beqz	a5,.L6
  52              	.L3:
  16:test/ownerModif.cpp ****             semOwn->removeOwner(id);
  17:test/ownerModif.cpp ****         }
  18:test/ownerModif.cpp **** 
  19:test/ownerModif.cpp ****         semOwn->wait();
  53              		.loc 1 19 9 is_stmt 1
  54              		.loc 1 19 21 is_stmt 0
  55 003c 03B50403 		ld	a0,48(s1)
  56 0040 97000000 		call	_ZN9Semaphore4waitEv@plt
  56      E7800000 
  57              	.LVL4:
  20:test/ownerModif.cpp ****         printString("Ovo je neki moj ispis\n");
  58              		.loc 1 20 9 is_stmt 1
  59              		.loc 1 20 20 is_stmt 0
  60 0048 17050000 		lla	a0,.LC0
  60      13050500 
  61 0050 97000000 		call	_Z11printStringPKc@plt
  61      E7800000 
  62              	.LVL5:
  21:test/ownerModif.cpp ****         semOwn->signal();
  63              		.loc 1 21 9 is_stmt 1
  64              		.loc 1 21 23 is_stmt 0
  65 0058 03B50403 		ld	a0,48(s1)
  66 005c 97000000 		call	_ZN9Semaphore6signalEv@plt
  66      E7800000 
  67              	.LVL6:
  22:test/ownerModif.cpp **** 
  23:test/ownerModif.cpp ****         waitForAll->signal();
  68              		.loc 1 23 9 is_stmt 1
  69              		.loc 1 23 27 is_stmt 0
  70 0064 03B58402 		ld	a0,40(s1)
  71 0068 97000000 		call	_ZN9Semaphore6signalEv@plt
  71      E7800000 
  72              	.LVL7:
  24:test/ownerModif.cpp ****     }
  73              		.loc 1 24 5
  74 0070 83308101 		ld	ra,24(sp)
  75              		.cfi_remember_state
  76              		.cfi_restore 1
  77 0074 03340101 		ld	s0,16(sp)
  78              		.cfi_restore 8
  79              		.cfi_def_cfa 2, 32
  80 0078 83348100 		ld	s1,8(sp)
  81              		.cfi_restore 9
GAS LISTING /tmp/ccfQb0wj.s 			page 3


  82              	.LVL8:
  83 007c 03390100 		ld	s2,0(sp)
  84              		.cfi_restore 18
  85 0080 13010102 		addi	sp,sp,32
  86              		.cfi_def_cfa_offset 0
  87 0084 67800000 		jr	ra
  88              	.LVL9:
  89              	.L5:
  90              		.cfi_restore_state
  13:test/ownerModif.cpp ****         }
  91              		.loc 1 13 13 is_stmt 1
  13:test/ownerModif.cpp ****         }
  92              		.loc 1 13 29 is_stmt 0
  93 0088 03B50403 		ld	a0,48(s1)
  94              	.LVL10:
  95 008c 97000000 		call	_ZN9Semaphore8addOwnerEv@plt
  95      E7800000 
  96              	.LVL11:
  97 0094 6FF0DFF9 		j	.L2
  98              	.L6:
  16:test/ownerModif.cpp ****         }
  99              		.loc 1 16 13 is_stmt 1
  16:test/ownerModif.cpp ****         }
 100              		.loc 1 16 32 is_stmt 0
 101 0098 93050900 		mv	a1,s2
 102 009c 03B50403 		ld	a0,48(s1)
 103 00a0 97000000 		call	_ZN9Semaphore11removeOwnerEi@plt
 103      E7800000 
 104              	.LVL12:
 105 00a8 6FF05FF9 		j	.L3
 106              		.cfi_endproc
 107              	.LFE23:
 109              		.section	.text._ZN11OwnerThreadD2Ev,"axG",@progbits,_ZN11OwnerThreadD5Ev,comdat
 110              		.align	2
 111              		.weak	_ZN11OwnerThreadD2Ev
 113              	_ZN11OwnerThreadD2Ev:
 114              	.LFB26:
   7:test/ownerModif.cpp **** public:
 115              		.loc 1 7 7 is_stmt 1
 116              		.cfi_startproc
 117              	.LVL13:
 118 0000 130101FF 		addi	sp,sp,-16
 119              		.cfi_def_cfa_offset 16
 120 0004 23341100 		sd	ra,8(sp)
 121 0008 23308100 		sd	s0,0(sp)
 122              		.cfi_offset 1, -8
 123              		.cfi_offset 8, -16
 124 000c 13040101 		addi	s0,sp,16
 125              		.cfi_def_cfa 8, 0
 126              	.LBB11:
   7:test/ownerModif.cpp **** public:
 127              		.loc 1 7 7 is_stmt 0
 128 0010 97070000 		lla	a5,_ZTV11OwnerThread+16
 128      93870700 
 129 0018 2330F500 		sd	a5,0(a0)
 130 001c 97000000 		call	_ZN6ThreadD2Ev@plt
 130      E7800000 
GAS LISTING /tmp/ccfQb0wj.s 			page 4


 131              	.LVL14:
 132              	.LBE11:
 133 0024 83308100 		ld	ra,8(sp)
 134              		.cfi_restore 1
 135 0028 03340100 		ld	s0,0(sp)
 136              		.cfi_restore 8
 137              		.cfi_def_cfa 2, 16
 138 002c 13010101 		addi	sp,sp,16
 139              		.cfi_def_cfa_offset 0
 140 0030 67800000 		jr	ra
 141              		.cfi_endproc
 142              	.LFE26:
 144              		.weak	_ZN11OwnerThreadD1Ev
 145              		.set	_ZN11OwnerThreadD1Ev,_ZN11OwnerThreadD2Ev
 146              		.section	.text._ZN11OwnerThreadD0Ev,"axG",@progbits,_ZN11OwnerThreadD5Ev,comdat
 147              		.align	2
 148              		.weak	_ZN11OwnerThreadD0Ev
 150              	_ZN11OwnerThreadD0Ev:
 151              	.LFB28:
   7:test/ownerModif.cpp **** public:
 152              		.loc 1 7 7 is_stmt 1
 153              		.cfi_startproc
 154              	.LVL15:
 155 0000 130101FE 		addi	sp,sp,-32
 156              		.cfi_def_cfa_offset 32
 157 0004 233C1100 		sd	ra,24(sp)
 158 0008 23388100 		sd	s0,16(sp)
 159 000c 23349100 		sd	s1,8(sp)
 160              		.cfi_offset 1, -8
 161              		.cfi_offset 8, -16
 162              		.cfi_offset 9, -24
 163 0010 13040102 		addi	s0,sp,32
 164              		.cfi_def_cfa 8, 0
 165 0014 93040500 		mv	s1,a0
 166              	.LVL16:
 167              	.LBB12:
 168              	.LBB13:
   7:test/ownerModif.cpp **** public:
 169              		.loc 1 7 7 is_stmt 0
 170 0018 97070000 		lla	a5,_ZTV11OwnerThread+16
 170      93870700 
 171 0020 2330F500 		sd	a5,0(a0)
 172 0024 97000000 		call	_ZN6ThreadD2Ev@plt
 172      E7800000 
 173              	.LVL17:
 174              	.LBE13:
 175              	.LBE12:
 176 002c 13850400 		mv	a0,s1
 177 0030 97000000 		call	_ZdlPv@plt
 177      E7800000 
 178              	.LVL18:
 179 0038 83308101 		ld	ra,24(sp)
 180              		.cfi_restore 1
 181 003c 03340101 		ld	s0,16(sp)
 182              		.cfi_restore 8
 183              		.cfi_def_cfa 2, 32
 184 0040 83348100 		ld	s1,8(sp)
GAS LISTING /tmp/ccfQb0wj.s 			page 5


 185              		.cfi_restore 9
 186              	.LVL19:
 187 0044 13010102 		addi	sp,sp,32
 188              		.cfi_def_cfa_offset 0
 189 0048 67800000 		jr	ra
 190              		.cfi_endproc
 191              	.LFE28:
 193              		.text
 194              		.align	2
 195              		.globl	_Z8ownerModv
 197              	_Z8ownerModv:
 198              	.LFB24:
  25:test/ownerModif.cpp **** private:
  26:test/ownerModif.cpp ****     int idt;
  27:test/ownerModif.cpp ****     Semaphore* waitForAll;
  28:test/ownerModif.cpp ****     Semaphore* semOwn;
  29:test/ownerModif.cpp **** };
  30:test/ownerModif.cpp **** 
  31:test/ownerModif.cpp **** void ownerMod(){
 199              		.loc 1 31 16 is_stmt 1
 200              		.cfi_startproc
 201              		.cfi_personality 0x9b,DW.ref.__gxx_personality_v0
 202              		.cfi_lsda 0x1b,.LLSDA24
 203 0000 130101F3 		addi	sp,sp,-208
 204              		.cfi_def_cfa_offset 208
 205 0004 2334110C 		sd	ra,200(sp)
 206 0008 2330810C 		sd	s0,192(sp)
 207 000c 233C910A 		sd	s1,184(sp)
 208 0010 2338210B 		sd	s2,176(sp)
 209 0014 2334310B 		sd	s3,168(sp)
 210 0018 2330410B 		sd	s4,160(sp)
 211              		.cfi_offset 1, -8
 212              		.cfi_offset 8, -16
 213              		.cfi_offset 9, -24
 214              		.cfi_offset 18, -32
 215              		.cfi_offset 19, -40
 216              		.cfi_offset 20, -48
 217 001c 1304010D 		addi	s0,sp,208
 218              		.cfi_def_cfa 8, 0
  32:test/ownerModif.cpp ****     Thread* threads[20];
 219              		.loc 1 32 5
  33:test/ownerModif.cpp ****     Semaphore* waitForAll = new Semaphore(0);
 220              		.loc 1 33 5
 221              		.loc 1 33 44 is_stmt 0
 222 0020 13050002 		li	a0,32
 223              	.LEHB0:
 224 0024 97000000 		call	_Znwm@plt
 224      E7800000 
 225              	.LVL20:
 226              	.LEHE0:
 227 002c 93090500 		mv	s3,a0
 228 0030 93050000 		li	a1,0
 229              	.LEHB1:
 230 0034 97000000 		call	_ZN9SemaphoreC1Ej@plt
 230      E7800000 
 231              	.LVL21:
 232              	.LEHE1:
GAS LISTING /tmp/ccfQb0wj.s 			page 6


  34:test/ownerModif.cpp ****     Semaphore* semOwn = new Semaphore(1);
 233              		.loc 1 34 5 is_stmt 1 discriminator 3
 234              		.loc 1 34 40 is_stmt 0 discriminator 3
 235 003c 13050002 		li	a0,32
 236              	.LEHB2:
 237 0040 97000000 		call	_Znwm@plt
 237      E7800000 
 238              	.LVL22:
 239              	.LEHE2:
 240 0048 130A0500 		mv	s4,a0
 241 004c 93051000 		li	a1,1
 242              	.LEHB3:
 243 0050 97000000 		call	_ZN9SemaphoreC1Ej@plt
 243      E7800000 
 244              	.LVL23:
 245              	.LEHE3:
 246              	.LBB14:
  35:test/ownerModif.cpp ****     for(int i=0;i<20;i++){
 247              		.loc 1 35 13
 248 0058 13090000 		li	s2,0
 249 005c 6F000003 		j	.L13
 250              	.LVL24:
 251              	.L25:
 252              	.LBB15:
 253              	.LBB16:
   9:test/ownerModif.cpp ****     void run() override{
 254              		.loc 1 9 95
 255 0060 97070000 		lla	a5,_ZTV11OwnerThread+16
 255      93870700 
 256 0068 23B0F400 		sd	a5,0(s1)
 257 006c 23A02403 		sw	s2,32(s1)
 258 0070 23B43403 		sd	s3,40(s1)
 259 0074 23B84403 		sd	s4,48(s1)
 260              	.LVL25:
 261              	.LBE16:
 262              	.LBE15:
  36:test/ownerModif.cpp ****         threads[i] = new OwnerThread(i, waitForAll, semOwn);
 263              		.loc 1 36 20
 264 0078 93173900 		slli	a5,s2,3
 265 007c 130704FD 		addi	a4,s0,-48
 266 0080 B307F700 		add	a5,a4,a5
 267 0084 23B097F6 		sd	s1,-160(a5)
  35:test/ownerModif.cpp ****     for(int i=0;i<20;i++){
 268              		.loc 1 35 5 is_stmt 1
 269 0088 1B091900 		addiw	s2,s2,1
 270              	.LVL26:
 271              	.L13:
  35:test/ownerModif.cpp ****     for(int i=0;i<20;i++){
 272              		.loc 1 35 18 discriminator 2
 273 008c 93073001 		li	a5,19
 274 0090 63C02703 		bgt	s2,a5,.L19
 275              		.loc 1 36 9
 276              		.loc 1 36 59 is_stmt 0
 277 0094 13058003 		li	a0,56
 278              	.LEHB4:
 279 0098 97000000 		call	_Znwm@plt
 279      E7800000 
GAS LISTING /tmp/ccfQb0wj.s 			page 7


 280              	.LVL27:
 281              	.LEHE4:
 282 00a0 93040500 		mv	s1,a0
 283              	.LVL28:
 284              	.LEHB5:
 285              	.LBB18:
 286              	.LBB17:
   9:test/ownerModif.cpp ****     void run() override{
 287              		.loc 1 9 95
 288 00a4 97000000 		call	_ZN6ThreadC2Ev@plt
 288      E7800000 
 289              	.LVL29:
 290              	.LEHE5:
 291 00ac 6FF05FFB 		j	.L25
 292              	.LVL30:
 293              	.L19:
 294              	.LBE17:
 295              	.LBE18:
 296              	.LBE14:
 297              	.LBB19:
  37:test/ownerModif.cpp ****     }
  38:test/ownerModif.cpp ****     for(int i=0;i<20;i++){
 298              		.loc 1 38 13
 299 00b0 93040000 		li	s1,0
 300 00b4 6F000002 		j	.L12
 301              	.LVL31:
 302              	.L26:
  39:test/ownerModif.cpp ****         threads[i]->start();
 303              		.loc 1 39 9 is_stmt 1
 304              		.loc 1 39 18 is_stmt 0
 305 00b8 93973400 		slli	a5,s1,3
 306 00bc 130704FD 		addi	a4,s0,-48
 307 00c0 B307F700 		add	a5,a4,a5
 308              		.loc 1 39 26
 309 00c4 03B507F6 		ld	a0,-160(a5)
 310              	.LEHB6:
 311 00c8 97000000 		call	_ZN6Thread5startEv@plt
 311      E7800000 
 312              	.LVL32:
  38:test/ownerModif.cpp ****         threads[i]->start();
 313              		.loc 1 38 5 is_stmt 1
 314 00d0 9B841400 		addiw	s1,s1,1
 315              	.LVL33:
 316              	.L12:
  38:test/ownerModif.cpp ****         threads[i]->start();
 317              		.loc 1 38 18 discriminator 1
 318 00d4 93073001 		li	a5,19
 319 00d8 E3D097FE 		ble	s1,a5,.L26
 320              	.LBE19:
 321              	.LBB20:
  40:test/ownerModif.cpp ****     }
  41:test/ownerModif.cpp **** 
  42:test/ownerModif.cpp ****     for(int i=0;i<20;i++){
 322              		.loc 1 42 13 is_stmt 0
 323 00dc 93040000 		li	s1,0
 324              	.LVL34:
 325 00e0 6F004001 		j	.L14
GAS LISTING /tmp/ccfQb0wj.s 			page 8


 326              	.LVL35:
 327              	.L27:
  43:test/ownerModif.cpp ****         waitForAll->wait();
 328              		.loc 1 43 9 is_stmt 1
 329              		.loc 1 43 25 is_stmt 0
 330 00e4 13850900 		mv	a0,s3
 331 00e8 97000000 		call	_ZN9Semaphore4waitEv@plt
 331      E7800000 
 332              	.LVL36:
 333              	.LEHE6:
  42:test/ownerModif.cpp ****         waitForAll->wait();
 334              		.loc 1 42 5 is_stmt 1
 335 00f0 9B841400 		addiw	s1,s1,1
 336              	.LVL37:
 337              	.L14:
  42:test/ownerModif.cpp ****         waitForAll->wait();
 338              		.loc 1 42 18 discriminator 1
 339 00f4 93073001 		li	a5,19
 340 00f8 E3D697FE 		ble	s1,a5,.L27
 341              	.LBE20:
  44:test/ownerModif.cpp ****     }
  45:test/ownerModif.cpp **** 
  46:test/ownerModif.cpp **** }
 342              		.loc 1 46 1 is_stmt 0
 343 00fc 8330810C 		ld	ra,200(sp)
 344              		.cfi_remember_state
 345              		.cfi_restore 1
 346 0100 0334010C 		ld	s0,192(sp)
 347              		.cfi_restore 8
 348              		.cfi_def_cfa 2, 208
 349 0104 8334810B 		ld	s1,184(sp)
 350              		.cfi_restore 9
 351              	.LVL38:
 352 0108 0339010B 		ld	s2,176(sp)
 353              		.cfi_restore 18
 354              	.LVL39:
 355 010c 8339810A 		ld	s3,168(sp)
 356              		.cfi_restore 19
 357              	.LVL40:
 358 0110 033A010A 		ld	s4,160(sp)
 359              		.cfi_restore 20
 360 0114 1301010D 		addi	sp,sp,208
 361              		.cfi_def_cfa_offset 0
 362 0118 67800000 		jr	ra
 363              	.L21:
 364              		.cfi_restore_state
 365 011c 93040500 		mv	s1,a0
  33:test/ownerModif.cpp ****     Semaphore* semOwn = new Semaphore(1);
 366              		.loc 1 33 44
 367 0120 13850900 		mv	a0,s3
 368 0124 97000000 		call	_ZdlPv@plt
 368      E7800000 
 369              	.LVL41:
 370 012c 13850400 		mv	a0,s1
 371              	.LEHB7:
 372 0130 97000000 		call	_Unwind_Resume@plt
 372      E7800000 
GAS LISTING /tmp/ccfQb0wj.s 			page 9


 373              	.LVL42:
 374              	.LEHE7:
 375              	.L22:
 376 0138 93040500 		mv	s1,a0
  34:test/ownerModif.cpp ****     for(int i=0;i<20;i++){
 377              		.loc 1 34 40
 378 013c 13050A00 		mv	a0,s4
 379 0140 97000000 		call	_ZdlPv@plt
 379      E7800000 
 380              	.LVL43:
 381 0148 13850400 		mv	a0,s1
 382              	.LEHB8:
 383 014c 97000000 		call	_Unwind_Resume@plt
 383      E7800000 
 384              	.LVL44:
 385              	.LEHE8:
 386              	.L23:
 387 0154 13090500 		mv	s2,a0
 388              	.LVL45:
 389              	.LBB21:
  36:test/ownerModif.cpp ****     }
 390              		.loc 1 36 59
 391 0158 13850400 		mv	a0,s1
 392 015c 97000000 		call	_ZdlPv@plt
 392      E7800000 
 393              	.LVL46:
 394 0164 13050900 		mv	a0,s2
 395              	.LEHB9:
 396 0168 97000000 		call	_Unwind_Resume@plt
 396      E7800000 
 397              	.LVL47:
 398              	.LEHE9:
 399              	.LBE21:
 400              		.cfi_endproc
 401              	.LFE24:
 402              		.globl	__gxx_personality_v0
 403              		.section	.gcc_except_table,"a",@progbits
 404              	.LLSDA24:
 405 0000 FF       		.byte	0xff
 406 0001 FF       		.byte	0xff
 407 0002 03       		.byte	0x3
 408 0003 8201     		.byte	0x82,0x1
 409 0005 00000000 		.4byte	.LEHB0-.LFB24
 410 0009 00000000 		.4byte	.LEHE0-.LEHB0
 411 000d 00000000 		.4byte	0
 412 0011 00       		.byte	0
 413 0012 00000000 		.4byte	.LEHB1-.LFB24
 414 0016 00000000 		.4byte	.LEHE1-.LEHB1
 415 001a 00000000 		.4byte	.L21-.LFB24
 416 001e 00       		.byte	0
 417 001f 00000000 		.4byte	.LEHB2-.LFB24
 418 0023 00000000 		.4byte	.LEHE2-.LEHB2
 419 0027 00000000 		.4byte	0
 420 002b 00       		.byte	0
 421 002c 00000000 		.4byte	.LEHB3-.LFB24
 422 0030 00000000 		.4byte	.LEHE3-.LEHB3
 423 0034 00000000 		.4byte	.L22-.LFB24
GAS LISTING /tmp/ccfQb0wj.s 			page 10


 424 0038 00       		.byte	0
 425 0039 00000000 		.4byte	.LEHB4-.LFB24
 426 003d 00000000 		.4byte	.LEHE4-.LEHB4
 427 0041 00000000 		.4byte	0
 428 0045 00       		.byte	0
 429 0046 00000000 		.4byte	.LEHB5-.LFB24
 430 004a 00000000 		.4byte	.LEHE5-.LEHB5
 431 004e 00000000 		.4byte	.L23-.LFB24
 432 0052 00       		.byte	0
 433 0053 00000000 		.4byte	.LEHB6-.LFB24
 434 0057 00000000 		.4byte	.LEHE6-.LEHB6
 435 005b 00000000 		.4byte	0
 436 005f 00       		.byte	0
 437 0060 00000000 		.4byte	.LEHB7-.LFB24
 438 0064 00000000 		.4byte	.LEHE7-.LEHB7
 439 0068 00000000 		.4byte	0
 440 006c 00       		.byte	0
 441 006d 00000000 		.4byte	.LEHB8-.LFB24
 442 0071 00000000 		.4byte	.LEHE8-.LEHB8
 443 0075 00000000 		.4byte	0
 444 0079 00       		.byte	0
 445 007a 00000000 		.4byte	.LEHB9-.LFB24
 446 007e 00000000 		.4byte	.LEHE9-.LEHB9
 447 0082 00000000 		.4byte	0
 448 0086 00       		.byte	0
 449              		.text
 451              		.weak	_ZTV11OwnerThread
 452              		.section	.data.rel.ro.local._ZTV11OwnerThread,"awG",@progbits,_ZTV11OwnerThread,comdat
 453              		.align	3
 456              	_ZTV11OwnerThread:
 457 0000 00000000 		.dword	0
 457      00000000 
 458 0008 00000000 		.dword	0
 458      00000000 
 459 0010 00000000 		.dword	_ZN11OwnerThreadD1Ev
 459      00000000 
 460 0018 00000000 		.dword	_ZN11OwnerThreadD0Ev
 460      00000000 
 461 0020 00000000 		.dword	_ZN11OwnerThread3runEv
 461      00000000 
 462              		.text
 463              	.Letext0:
 464              		.file 2 "test/../h/../lib/hw.h"
 465              		.file 3 "test/../h/syscall_cpp.hpp"
 466              		.file 4 "test/../h/syscall_c.hpp"
 467              		.file 5 "test/printing.hpp"
 2355              		.align	3
 2358              	DW.ref.__gxx_personality_v0:
 2359 0000 00000000 		.dword	__gxx_personality_v0
 2359      00000000 
 2360              		.ident	"GCC: (Ubuntu 9.4.0-1ubuntu1~20.04) 9.4.0"
 2361              		.section	.note.GNU-stack,"",@progbits
GAS LISTING /tmp/ccfQb0wj.s 			page 11


DEFINED SYMBOLS
                            *ABS*:0000000000000000 ownerModif.cpp
     /tmp/ccfQb0wj.s:14     .text._ZN11OwnerThread3runEv:0000000000000000 _ZN11OwnerThread3runEv
     /tmp/ccfQb0wj.s:18     .text._ZN11OwnerThread3runEv:0000000000000000 .L0 
     /tmp/ccfQb0wj.s:20     .text._ZN11OwnerThread3runEv:0000000000000000 .L0 
     /tmp/ccfQb0wj.s:21     .text._ZN11OwnerThread3runEv:0000000000000004 .L0 
     /tmp/ccfQb0wj.s:26     .text._ZN11OwnerThread3runEv:0000000000000014 .L0 
     /tmp/ccfQb0wj.s:27     .text._ZN11OwnerThread3runEv:0000000000000014 .L0 
     /tmp/ccfQb0wj.s:28     .text._ZN11OwnerThread3runEv:0000000000000014 .L0 
     /tmp/ccfQb0wj.s:29     .text._ZN11OwnerThread3runEv:0000000000000014 .L0 
     /tmp/ccfQb0wj.s:31     .text._ZN11OwnerThread3runEv:0000000000000018 .L0 
     /tmp/ccfQb0wj.s:34     .text._ZN11OwnerThread3runEv:000000000000001c .L0 
     /tmp/ccfQb0wj.s:35     .text._ZN11OwnerThread3runEv:000000000000001c .L0 
     /tmp/ccfQb0wj.s:40     .text._ZN11OwnerThread3runEv:0000000000000028 .L0 
     /tmp/ccfQb0wj.s:41     .text._ZN11OwnerThread3runEv:0000000000000028 .L0 
     /tmp/ccfQb0wj.s:43     .text._ZN11OwnerThread3runEv:000000000000002c .L0 
     /tmp/ccfQb0wj.s:47     .text._ZN11OwnerThread3runEv:0000000000000030 .L0 
     /tmp/ccfQb0wj.s:48     .text._ZN11OwnerThread3runEv:0000000000000030 .L0 
     /tmp/ccfQb0wj.s:51     .text._ZN11OwnerThread3runEv:0000000000000038 .L0 
     /tmp/ccfQb0wj.s:54     .text._ZN11OwnerThread3runEv:000000000000003c .L0 
     /tmp/ccfQb0wj.s:55     .text._ZN11OwnerThread3runEv:000000000000003c .L0 
     /tmp/ccfQb0wj.s:59     .text._ZN11OwnerThread3runEv:0000000000000048 .L0 
     /tmp/ccfQb0wj.s:60     .text._ZN11OwnerThread3runEv:0000000000000048 .L0 
     /tmp/ccfQb0wj.s:64     .text._ZN11OwnerThread3runEv:0000000000000058 .L0 
     /tmp/ccfQb0wj.s:65     .text._ZN11OwnerThread3runEv:0000000000000058 .L0 
     /tmp/ccfQb0wj.s:69     .text._ZN11OwnerThread3runEv:0000000000000064 .L0 
     /tmp/ccfQb0wj.s:70     .text._ZN11OwnerThread3runEv:0000000000000064 .L0 
     /tmp/ccfQb0wj.s:74     .text._ZN11OwnerThread3runEv:0000000000000070 .L0 
     /tmp/ccfQb0wj.s:75     .text._ZN11OwnerThread3runEv:0000000000000074 .L0 
     /tmp/ccfQb0wj.s:76     .text._ZN11OwnerThread3runEv:0000000000000074 .L0 
     /tmp/ccfQb0wj.s:78     .text._ZN11OwnerThread3runEv:0000000000000078 .L0 
     /tmp/ccfQb0wj.s:79     .text._ZN11OwnerThread3runEv:0000000000000078 .L0 
     /tmp/ccfQb0wj.s:81     .text._ZN11OwnerThread3runEv:000000000000007c .L0 
     /tmp/ccfQb0wj.s:84     .text._ZN11OwnerThread3runEv:0000000000000080 .L0 
     /tmp/ccfQb0wj.s:86     .text._ZN11OwnerThread3runEv:0000000000000084 .L0 
     /tmp/ccfQb0wj.s:90     .text._ZN11OwnerThread3runEv:0000000000000088 .L0 
     /tmp/ccfQb0wj.s:92     .text._ZN11OwnerThread3runEv:0000000000000088 .L0 
     /tmp/ccfQb0wj.s:93     .text._ZN11OwnerThread3runEv:0000000000000088 .L0 
     /tmp/ccfQb0wj.s:100    .text._ZN11OwnerThread3runEv:0000000000000098 .L0 
     /tmp/ccfQb0wj.s:101    .text._ZN11OwnerThread3runEv:0000000000000098 .L0 
     /tmp/ccfQb0wj.s:106    .text._ZN11OwnerThread3runEv:00000000000000ac .L0 
     /tmp/ccfQb0wj.s:113    .text._ZN11OwnerThreadD2Ev:0000000000000000 _ZN11OwnerThreadD2Ev
     /tmp/ccfQb0wj.s:116    .text._ZN11OwnerThreadD2Ev:0000000000000000 .L0 
     /tmp/ccfQb0wj.s:118    .text._ZN11OwnerThreadD2Ev:0000000000000000 .L0 
     /tmp/ccfQb0wj.s:119    .text._ZN11OwnerThreadD2Ev:0000000000000004 .L0 
     /tmp/ccfQb0wj.s:122    .text._ZN11OwnerThreadD2Ev:000000000000000c .L0 
     /tmp/ccfQb0wj.s:123    .text._ZN11OwnerThreadD2Ev:000000000000000c .L0 
     /tmp/ccfQb0wj.s:125    .text._ZN11OwnerThreadD2Ev:0000000000000010 .L0 
     /tmp/ccfQb0wj.s:456    .data.rel.ro.local._ZTV11OwnerThread:0000000000000000 _ZTV11OwnerThread
     /tmp/ccfQb0wj.s:128    .text._ZN11OwnerThreadD2Ev:0000000000000010 .L0 
     /tmp/ccfQb0wj.s:134    .text._ZN11OwnerThreadD2Ev:0000000000000028 .L0 
     /tmp/ccfQb0wj.s:136    .text._ZN11OwnerThreadD2Ev:000000000000002c .L0 
     /tmp/ccfQb0wj.s:137    .text._ZN11OwnerThreadD2Ev:000000000000002c .L0 
     /tmp/ccfQb0wj.s:139    .text._ZN11OwnerThreadD2Ev:0000000000000030 .L0 
     /tmp/ccfQb0wj.s:141    .text._ZN11OwnerThreadD2Ev:0000000000000034 .L0 
     /tmp/ccfQb0wj.s:113    .text._ZN11OwnerThreadD2Ev:0000000000000000 _ZN11OwnerThreadD1Ev
     /tmp/ccfQb0wj.s:150    .text._ZN11OwnerThreadD0Ev:0000000000000000 _ZN11OwnerThreadD0Ev
GAS LISTING /tmp/ccfQb0wj.s 			page 12


     /tmp/ccfQb0wj.s:153    .text._ZN11OwnerThreadD0Ev:0000000000000000 .L0 
     /tmp/ccfQb0wj.s:155    .text._ZN11OwnerThreadD0Ev:0000000000000000 .L0 
     /tmp/ccfQb0wj.s:156    .text._ZN11OwnerThreadD0Ev:0000000000000004 .L0 
     /tmp/ccfQb0wj.s:160    .text._ZN11OwnerThreadD0Ev:0000000000000010 .L0 
     /tmp/ccfQb0wj.s:161    .text._ZN11OwnerThreadD0Ev:0000000000000010 .L0 
     /tmp/ccfQb0wj.s:162    .text._ZN11OwnerThreadD0Ev:0000000000000010 .L0 
     /tmp/ccfQb0wj.s:164    .text._ZN11OwnerThreadD0Ev:0000000000000014 .L0 
     /tmp/ccfQb0wj.s:170    .text._ZN11OwnerThreadD0Ev:0000000000000018 .L0 
     /tmp/ccfQb0wj.s:180    .text._ZN11OwnerThreadD0Ev:000000000000003c .L0 
     /tmp/ccfQb0wj.s:182    .text._ZN11OwnerThreadD0Ev:0000000000000040 .L0 
     /tmp/ccfQb0wj.s:183    .text._ZN11OwnerThreadD0Ev:0000000000000040 .L0 
     /tmp/ccfQb0wj.s:185    .text._ZN11OwnerThreadD0Ev:0000000000000044 .L0 
     /tmp/ccfQb0wj.s:188    .text._ZN11OwnerThreadD0Ev:0000000000000048 .L0 
     /tmp/ccfQb0wj.s:190    .text._ZN11OwnerThreadD0Ev:000000000000004c .L0 
     /tmp/ccfQb0wj.s:197    .text:0000000000000000 _Z8ownerModv
     /tmp/ccfQb0wj.s:200    .text:0000000000000000 .L0 
     /tmp/ccfQb0wj.s:2358   .data.rel.local.DW.ref.__gxx_personality_v0:0000000000000000 DW.ref.__gxx_personality_v0
     /tmp/ccfQb0wj.s:203    .text:0000000000000000 .L0 
     /tmp/ccfQb0wj.s:204    .text:0000000000000004 .L0 
     /tmp/ccfQb0wj.s:211    .text:000000000000001c .L0 
     /tmp/ccfQb0wj.s:212    .text:000000000000001c .L0 
     /tmp/ccfQb0wj.s:213    .text:000000000000001c .L0 
     /tmp/ccfQb0wj.s:214    .text:000000000000001c .L0 
     /tmp/ccfQb0wj.s:215    .text:000000000000001c .L0 
     /tmp/ccfQb0wj.s:216    .text:000000000000001c .L0 
     /tmp/ccfQb0wj.s:218    .text:0000000000000020 .L0 
     /tmp/ccfQb0wj.s:220    .text:0000000000000020 .L0 
     /tmp/ccfQb0wj.s:221    .text:0000000000000020 .L0 
     /tmp/ccfQb0wj.s:222    .text:0000000000000020 .L0 
     /tmp/ccfQb0wj.s:234    .text:000000000000003c .L0 
     /tmp/ccfQb0wj.s:235    .text:000000000000003c .L0 
     /tmp/ccfQb0wj.s:248    .text:0000000000000058 .L0 
     /tmp/ccfQb0wj.s:255    .text:0000000000000060 .L0 
     /tmp/ccfQb0wj.s:264    .text:0000000000000078 .L0 
     /tmp/ccfQb0wj.s:269    .text:0000000000000088 .L0 
     /tmp/ccfQb0wj.s:273    .text:000000000000008c .L0 
     /tmp/ccfQb0wj.s:276    .text:0000000000000094 .L0 
     /tmp/ccfQb0wj.s:277    .text:0000000000000094 .L0 
     /tmp/ccfQb0wj.s:288    .text:00000000000000a4 .L0 
     /tmp/ccfQb0wj.s:299    .text:00000000000000b0 .L0 
     /tmp/ccfQb0wj.s:304    .text:00000000000000b8 .L0 
     /tmp/ccfQb0wj.s:305    .text:00000000000000b8 .L0 
     /tmp/ccfQb0wj.s:309    .text:00000000000000c4 .L0 
     /tmp/ccfQb0wj.s:314    .text:00000000000000d0 .L0 
     /tmp/ccfQb0wj.s:318    .text:00000000000000d4 .L0 
     /tmp/ccfQb0wj.s:323    .text:00000000000000dc .L0 
     /tmp/ccfQb0wj.s:329    .text:00000000000000e4 .L0 
     /tmp/ccfQb0wj.s:330    .text:00000000000000e4 .L0 
     /tmp/ccfQb0wj.s:335    .text:00000000000000f0 .L0 
     /tmp/ccfQb0wj.s:339    .text:00000000000000f4 .L0 
     /tmp/ccfQb0wj.s:343    .text:00000000000000fc .L0 
     /tmp/ccfQb0wj.s:344    .text:0000000000000100 .L0 
     /tmp/ccfQb0wj.s:345    .text:0000000000000100 .L0 
     /tmp/ccfQb0wj.s:347    .text:0000000000000104 .L0 
     /tmp/ccfQb0wj.s:348    .text:0000000000000104 .L0 
     /tmp/ccfQb0wj.s:350    .text:0000000000000108 .L0 
     /tmp/ccfQb0wj.s:353    .text:000000000000010c .L0 
GAS LISTING /tmp/ccfQb0wj.s 			page 13


     /tmp/ccfQb0wj.s:356    .text:0000000000000110 .L0 
     /tmp/ccfQb0wj.s:359    .text:0000000000000114 .L0 
     /tmp/ccfQb0wj.s:361    .text:0000000000000118 .L0 
     /tmp/ccfQb0wj.s:364    .text:000000000000011c .L0 
     /tmp/ccfQb0wj.s:367    .text:0000000000000120 .L0 
     /tmp/ccfQb0wj.s:378    .text:000000000000013c .L0 
     /tmp/ccfQb0wj.s:391    .text:0000000000000158 .L0 
     /tmp/ccfQb0wj.s:400    .text:0000000000000170 .L0 
     /tmp/ccfQb0wj.s:109    .text._ZN11OwnerThread3runEv:00000000000000ac .L0 
     /tmp/ccfQb0wj.s:146    .text._ZN11OwnerThreadD2Ev:0000000000000034 .L0 
     /tmp/ccfQb0wj.s:193    .text._ZN11OwnerThreadD0Ev:000000000000004c .L0 
     /tmp/ccfQb0wj.s:468    .text:0000000000000170 .L0 
     /tmp/ccfQb0wj.s:255    .text:0000000000000060 .L0 
     /tmp/ccfQb0wj.s:271    .text:000000000000008c .L13
     /tmp/ccfQb0wj.s:293    .text:00000000000000b0 .L19
     /tmp/ccfQb0wj.s:251    .text:0000000000000060 .L25
     /tmp/ccfQb0wj.s:316    .text:00000000000000d4 .L12
     /tmp/ccfQb0wj.s:302    .text:00000000000000b8 .L26
     /tmp/ccfQb0wj.s:337    .text:00000000000000f4 .L14
     /tmp/ccfQb0wj.s:327    .text:00000000000000e4 .L27
     /tmp/ccfQb0wj.s:8      .rodata._ZN11OwnerThread3runEv.str1.8:0000000000000000 .LC0
     /tmp/ccfQb0wj.s:60     .text._ZN11OwnerThread3runEv:0000000000000048 .L0 
     /tmp/ccfQb0wj.s:89     .text._ZN11OwnerThread3runEv:0000000000000088 .L5
     /tmp/ccfQb0wj.s:98     .text._ZN11OwnerThread3runEv:0000000000000098 .L6
     /tmp/ccfQb0wj.s:45     .text._ZN11OwnerThread3runEv:0000000000000030 .L2
     /tmp/ccfQb0wj.s:52     .text._ZN11OwnerThread3runEv:000000000000003c .L3
     /tmp/ccfQb0wj.s:128    .text._ZN11OwnerThreadD2Ev:0000000000000010 .L0 
     /tmp/ccfQb0wj.s:170    .text._ZN11OwnerThreadD0Ev:0000000000000018 .L0 
     /tmp/ccfQb0wj.s:223    .text:0000000000000024 .LEHB0
     /tmp/ccfQb0wj.s:198    .text:0000000000000000 .LFB24
     /tmp/ccfQb0wj.s:226    .text:000000000000002c .LEHE0
     /tmp/ccfQb0wj.s:229    .text:0000000000000034 .LEHB1
     /tmp/ccfQb0wj.s:232    .text:000000000000003c .LEHE1
     /tmp/ccfQb0wj.s:363    .text:000000000000011c .L21
     /tmp/ccfQb0wj.s:236    .text:0000000000000040 .LEHB2
     /tmp/ccfQb0wj.s:239    .text:0000000000000048 .LEHE2
     /tmp/ccfQb0wj.s:242    .text:0000000000000050 .LEHB3
     /tmp/ccfQb0wj.s:245    .text:0000000000000058 .LEHE3
     /tmp/ccfQb0wj.s:375    .text:0000000000000138 .L22
     /tmp/ccfQb0wj.s:278    .text:0000000000000098 .LEHB4
     /tmp/ccfQb0wj.s:281    .text:00000000000000a0 .LEHE4
     /tmp/ccfQb0wj.s:284    .text:00000000000000a4 .LEHB5
     /tmp/ccfQb0wj.s:290    .text:00000000000000ac .LEHE5
     /tmp/ccfQb0wj.s:386    .text:0000000000000154 .L23
     /tmp/ccfQb0wj.s:310    .text:00000000000000c8 .LEHB6
     /tmp/ccfQb0wj.s:333    .text:00000000000000f0 .LEHE6
     /tmp/ccfQb0wj.s:371    .text:0000000000000130 .LEHB7
     /tmp/ccfQb0wj.s:374    .text:0000000000000138 .LEHE7
     /tmp/ccfQb0wj.s:382    .text:000000000000014c .LEHB8
     /tmp/ccfQb0wj.s:385    .text:0000000000000154 .LEHE8
     /tmp/ccfQb0wj.s:395    .text:0000000000000168 .LEHB9
     /tmp/ccfQb0wj.s:398    .text:0000000000000170 .LEHE9
     /tmp/ccfQb0wj.s:1241   .debug_abbrev:0000000000000000 .Ldebug_abbrev0
     /tmp/ccfQb0wj.s:2330   .debug_str:00000000000002ff .LASF50
     /tmp/ccfQb0wj.s:2280   .debug_str:000000000000014a .LASF51
     /tmp/ccfQb0wj.s:2300   .debug_str:00000000000001ee .LASF52
     /tmp/ccfQb0wj.s:2202   .debug_ranges:0000000000000000 .Ldebug_ranges0
GAS LISTING /tmp/ccfQb0wj.s 			page 14


     /tmp/ccfQb0wj.s:2226   .debug_line:0000000000000000 .Ldebug_line0
     /tmp/ccfQb0wj.s:2290   .debug_str:0000000000000192 .LASF0
     /tmp/ccfQb0wj.s:2294   .debug_str:00000000000001a5 .LASF1
     /tmp/ccfQb0wj.s:2284   .debug_str:0000000000000165 .LASF2
     /tmp/ccfQb0wj.s:2272   .debug_str:000000000000012b .LASF4
     /tmp/ccfQb0wj.s:2322   .debug_str:00000000000002bb .LASF3
     /tmp/ccfQb0wj.s:2234   .debug_str:0000000000000037 .LASF5
     /tmp/ccfQb0wj.s:2298   .debug_str:00000000000001db .LASF6
     /tmp/ccfQb0wj.s:2288   .debug_str:000000000000017f .LASF7
     /tmp/ccfQb0wj.s:2338   .debug_str:00000000000003e5 .LASF8
     /tmp/ccfQb0wj.s:2264   .debug_str:00000000000000f2 .LASF9
     /tmp/ccfQb0wj.s:2304   .debug_str:0000000000000215 .LASF10
     /tmp/ccfQb0wj.s:2332   .debug_str:00000000000003c3 .LASF11
     /tmp/ccfQb0wj.s:2236   .debug_str:000000000000003e .LASF12
     /tmp/ccfQb0wj.s:2230   .debug_str:000000000000000a .LASF13
     /tmp/ccfQb0wj.s:2238   .debug_str:000000000000004e .LASF14
     /tmp/ccfQb0wj.s:2320   .debug_str:00000000000002a5 .LASF15
     /tmp/ccfQb0wj.s:2246   .debug_str:0000000000000090 .LASF16
     /tmp/ccfQb0wj.s:2256   .debug_str:00000000000000c7 .LASF17
     /tmp/ccfQb0wj.s:2228   .debug_str:0000000000000000 .LASF32
     /tmp/ccfQb0wj.s:2314   .debug_str:0000000000000264 .LASF18
     /tmp/ccfQb0wj.s:2254   .debug_str:00000000000000c2 .LASF20
     /tmp/ccfQb0wj.s:2316   .debug_str:0000000000000279 .LASF19
     /tmp/ccfQb0wj.s:2302   .debug_str:000000000000020e .LASF21
     /tmp/ccfQb0wj.s:2308   .debug_str:000000000000022e .LASF22
     /tmp/ccfQb0wj.s:2244   .debug_str:0000000000000087 .LASF23
     /tmp/ccfQb0wj.s:2232   .debug_str:000000000000001a .LASF24
     /tmp/ccfQb0wj.s:2250   .debug_str:00000000000000af .LASF25
     /tmp/ccfQb0wj.s:2268   .debug_str:0000000000000117 .LASF26
     /tmp/ccfQb0wj.s:2336   .debug_str:00000000000003d9 .LASF27
     /tmp/ccfQb0wj.s:2266   .debug_str:0000000000000100 .LASF28
     /tmp/ccfQb0wj.s:2312   .debug_str:000000000000024c .LASF29
     /tmp/ccfQb0wj.s:2342   .debug_str:000000000000040c .LASF53
     /tmp/ccfQb0wj.s:2340   .debug_str:00000000000003f5 .LASF54
     /tmp/ccfQb0wj.s:2258   .debug_str:00000000000000cc .LASF30
     /tmp/ccfQb0wj.s:2252   .debug_str:00000000000000bb .LASF31
     /tmp/ccfQb0wj.s:2328   .debug_str:00000000000002f2 .LASF55
     /tmp/ccfQb0wj.s:2318   .debug_str:0000000000000290 .LASF56
     /tmp/ccfQb0wj.s:2334   .debug_str:00000000000003d2 .LASF33
     /tmp/ccfQb0wj.s:2262   .debug_str:00000000000000df .LASF34
     /tmp/ccfQb0wj.s:2292   .debug_str:000000000000019f .LASF35
     /tmp/ccfQb0wj.s:2310   .debug_str:0000000000000247 .LASF36
     /tmp/ccfQb0wj.s:2306   .debug_str:0000000000000224 .LASF37
     /tmp/ccfQb0wj.s:2240   .debug_str:000000000000005a .LASF38
     /tmp/ccfQb0wj.s:151    .text._ZN11OwnerThreadD0Ev:0000000000000000 .LFB28
     /tmp/ccfQb0wj.s:191    .text._ZN11OwnerThreadD0Ev:000000000000004c .LFE28
     /tmp/ccfQb0wj.s:2011   .debug_loc:0000000000000000 .LLST3
     /tmp/ccfQb0wj.s:167    .text._ZN11OwnerThreadD0Ev:0000000000000018 .LBB12
     /tmp/ccfQb0wj.s:175    .text._ZN11OwnerThreadD0Ev:000000000000002c .LBE12
     /tmp/ccfQb0wj.s:2029   .debug_loc:000000000000004c .LLST4
     /tmp/ccfQb0wj.s:173    .text._ZN11OwnerThreadD0Ev:000000000000002c .LVL17
     /tmp/ccfQb0wj.s:178    .text._ZN11OwnerThreadD0Ev:0000000000000038 .LVL18
     /tmp/ccfQb0wj.s:2324   .debug_str:00000000000002cd .LASF39
     /tmp/ccfQb0wj.s:114    .text._ZN11OwnerThreadD2Ev:0000000000000000 .LFB26
     /tmp/ccfQb0wj.s:142    .text._ZN11OwnerThreadD2Ev:0000000000000034 .LFE26
     /tmp/ccfQb0wj.s:2040   .debug_loc:0000000000000082 .LLST2
     /tmp/ccfQb0wj.s:131    .text._ZN11OwnerThreadD2Ev:0000000000000024 .LVL14
GAS LISTING /tmp/ccfQb0wj.s 			page 15


     /tmp/ccfQb0wj.s:2248   .debug_str:00000000000000a6 .LASF57
     /tmp/ccfQb0wj.s:2350   .debug_str:0000000000000460 .LASF58
     /tmp/ccfQb0wj.s:401    .text:0000000000000170 .LFE24
     /tmp/ccfQb0wj.s:2260   .debug_str:00000000000000d7 .LASF40
     /tmp/ccfQb0wj.s:2054   .debug_loc:00000000000000bb .LLST5
     /tmp/ccfQb0wj.s:2065   .debug_loc:00000000000000f1 .LLST6
     /tmp/ccfQb0wj.s:252    .text:0000000000000060 .LBB15
     /tmp/ccfQb0wj.s:2076   .debug_loc:0000000000000127 .LLST7
     /tmp/ccfQb0wj.s:2091   .debug_loc:0000000000000170 .LLST8
     /tmp/ccfQb0wj.s:2106   .debug_loc:00000000000001b9 .LLST9
     /tmp/ccfQb0wj.s:2121   .debug_loc:0000000000000202 .LLST10
     /tmp/ccfQb0wj.s:289    .text:00000000000000ac .LVL29
     /tmp/ccfQb0wj.s:280    .text:00000000000000a0 .LVL27
     /tmp/ccfQb0wj.s:393    .text:0000000000000164 .LVL46
     /tmp/ccfQb0wj.s:297    .text:00000000000000b0 .LBB19
     /tmp/ccfQb0wj.s:320    .text:00000000000000dc .LBE19
     /tmp/ccfQb0wj.s:2136   .debug_loc:000000000000024b .LLST11
     /tmp/ccfQb0wj.s:312    .text:00000000000000d0 .LVL32
     /tmp/ccfQb0wj.s:321    .text:00000000000000dc .LBB20
     /tmp/ccfQb0wj.s:341    .text:00000000000000fc .LBE20
     /tmp/ccfQb0wj.s:2143   .debug_loc:000000000000026e .LLST12
     /tmp/ccfQb0wj.s:332    .text:00000000000000f0 .LVL36
     /tmp/ccfQb0wj.s:225    .text:000000000000002c .LVL20
     /tmp/ccfQb0wj.s:231    .text:000000000000003c .LVL21
     /tmp/ccfQb0wj.s:238    .text:0000000000000048 .LVL22
     /tmp/ccfQb0wj.s:244    .text:0000000000000058 .LVL23
     /tmp/ccfQb0wj.s:369    .text:000000000000012c .LVL41
     /tmp/ccfQb0wj.s:373    .text:0000000000000138 .LVL42
     /tmp/ccfQb0wj.s:380    .text:0000000000000148 .LVL43
     /tmp/ccfQb0wj.s:384    .text:0000000000000154 .LVL44
     /tmp/ccfQb0wj.s:397    .text:0000000000000170 .LVL47
     /tmp/ccfQb0wj.s:15     .text._ZN11OwnerThread3runEv:0000000000000000 .LFB23
     /tmp/ccfQb0wj.s:107    .text._ZN11OwnerThread3runEv:00000000000000ac .LFE23
     /tmp/ccfQb0wj.s:2150   .debug_loc:0000000000000291 .LLST0
     /tmp/ccfQb0wj.s:2172   .debug_loc:00000000000002f0 .LLST1
     /tmp/ccfQb0wj.s:36     .text._ZN11OwnerThread3runEv:0000000000000024 .LVL1
     /tmp/ccfQb0wj.s:57     .text._ZN11OwnerThread3runEv:0000000000000048 .LVL4
     /tmp/ccfQb0wj.s:62     .text._ZN11OwnerThread3runEv:0000000000000058 .LVL5
     /tmp/ccfQb0wj.s:67     .text._ZN11OwnerThread3runEv:0000000000000064 .LVL6
     /tmp/ccfQb0wj.s:72     .text._ZN11OwnerThread3runEv:0000000000000070 .LVL7
     /tmp/ccfQb0wj.s:96     .text._ZN11OwnerThread3runEv:0000000000000094 .LVL11
     /tmp/ccfQb0wj.s:104    .text._ZN11OwnerThread3runEv:00000000000000a8 .LVL12
     /tmp/ccfQb0wj.s:2276   .debug_str:000000000000013e .LASF41
     /tmp/ccfQb0wj.s:2296   .debug_str:00000000000001b8 .LASF59
     /tmp/ccfQb0wj.s:2282   .debug_str:000000000000015e .LASF42
     /tmp/ccfQb0wj.s:2326   .debug_str:00000000000002e2 .LASF43
     /tmp/ccfQb0wj.s:2278   .debug_str:0000000000000144 .LASF44
     /tmp/ccfQb0wj.s:2344   .debug_str:000000000000042f .LASF45
     /tmp/ccfQb0wj.s:2270   .debug_str:000000000000011c .LASF60
     /tmp/ccfQb0wj.s:2242   .debug_str:000000000000006f .LASF61
     /tmp/ccfQb0wj.s:2348   .debug_str:000000000000044f .LASF46
     /tmp/ccfQb0wj.s:2286   .debug_str:0000000000000173 .LASF47
     /tmp/ccfQb0wj.s:2346   .debug_str:000000000000043c .LASF48
     /tmp/ccfQb0wj.s:2274   .debug_str:0000000000000132 .LASF49
     /tmp/ccfQb0wj.s:154    .text._ZN11OwnerThreadD0Ev:0000000000000000 .LVL15
     /tmp/ccfQb0wj.s:186    .text._ZN11OwnerThreadD0Ev:0000000000000044 .LVL19
     /tmp/ccfQb0wj.s:166    .text._ZN11OwnerThreadD0Ev:0000000000000018 .LVL16
GAS LISTING /tmp/ccfQb0wj.s 			page 16


     /tmp/ccfQb0wj.s:117    .text._ZN11OwnerThreadD2Ev:0000000000000000 .LVL13
     /tmp/ccfQb0wj.s:357    .text:0000000000000110 .LVL40
     /tmp/ccfQb0wj.s:250    .text:0000000000000060 .LVL24
     /tmp/ccfQb0wj.s:354    .text:000000000000010c .LVL39
     /tmp/ccfQb0wj.s:388    .text:0000000000000158 .LVL45
     /tmp/ccfQb0wj.s:260    .text:0000000000000078 .LVL25
     /tmp/ccfQb0wj.s:283    .text:00000000000000a4 .LVL28
     /tmp/ccfQb0wj.s:292    .text:00000000000000b0 .LVL30
     /tmp/ccfQb0wj.s:301    .text:00000000000000b8 .LVL31
     /tmp/ccfQb0wj.s:324    .text:00000000000000e0 .LVL34
     /tmp/ccfQb0wj.s:326    .text:00000000000000e4 .LVL35
     /tmp/ccfQb0wj.s:351    .text:0000000000000108 .LVL38
     /tmp/ccfQb0wj.s:19     .text._ZN11OwnerThread3runEv:0000000000000000 .LVL0
     /tmp/ccfQb0wj.s:82     .text._ZN11OwnerThread3runEv:000000000000007c .LVL8
     /tmp/ccfQb0wj.s:88     .text._ZN11OwnerThread3runEv:0000000000000088 .LVL9
     /tmp/ccfQb0wj.s:38     .text._ZN11OwnerThread3runEv:0000000000000028 .LVL2
     /tmp/ccfQb0wj.s:44     .text._ZN11OwnerThread3runEv:0000000000000030 .LVL3
     /tmp/ccfQb0wj.s:94     .text._ZN11OwnerThread3runEv:000000000000008c .LVL10
     /tmp/ccfQb0wj.s:469    .debug_info:0000000000000000 .Ldebug_info0
     /tmp/ccfQb0wj.s:5      .text:0000000000000000 .Ltext0
     /tmp/ccfQb0wj.s:463    .text:0000000000000170 .Letext0
     /tmp/ccfQb0wj.s:246    .text:0000000000000058 .LBB14
     /tmp/ccfQb0wj.s:296    .text:00000000000000b0 .LBE14
     /tmp/ccfQb0wj.s:389    .text:0000000000000158 .LBB21
     /tmp/ccfQb0wj.s:399    .text:0000000000000170 .LBE21
     /tmp/ccfQb0wj.s:262    .text:0000000000000078 .LBE15
     /tmp/ccfQb0wj.s:285    .text:00000000000000a4 .LBB18
     /tmp/ccfQb0wj.s:295    .text:00000000000000b0 .LBE18
     /tmp/ccfQb0wj.s:404    .gcc_except_table:0000000000000000 .LLSDA24
                           .group:0000000000000000 _ZN11OwnerThreadD5Ev

UNDEFINED SYMBOLS
_Z11getThreadIdv
_ZN9Semaphore4waitEv
_Z11printStringPKc
_ZN9Semaphore6signalEv
_ZN9Semaphore8addOwnerEv
_ZN9Semaphore11removeOwnerEi
_ZN6ThreadD2Ev
_ZdlPv
_Znwm
_ZN9SemaphoreC1Ej
_ZN6ThreadC2Ev
_ZN6Thread5startEv
_Unwind_Resume
__gxx_personality_v0
