GAS LISTING /tmp/ccmfkt3p.s 			page 1


   1              		.file	"pingModif.cpp"
   2              		.option pic
   3              		.option norelax
   4              		.text
   5              	.Ltext0:
   6              		.align	2
   7              		.globl	_Z4fja1Pv
   9              	_Z4fja1Pv:
  10              	.LFB20:
  11              		.file 1 "test/pingModif.cpp"
   1:test/pingModif.cpp **** #include "pingModif.hpp"
   2:test/pingModif.cpp **** #include "printing.hpp"
   3:test/pingModif.cpp **** #include "../h/syscall_cpp.hpp"
   4:test/pingModif.cpp **** void fja1(void*){
  12              		.loc 1 4 17
  13              		.cfi_startproc
  14 0000 130101FE 		addi	sp,sp,-32
  15              		.cfi_def_cfa_offset 32
  16 0004 233C1100 		sd	ra,24(sp)
  17 0008 23388100 		sd	s0,16(sp)
  18 000c 23349100 		sd	s1,8(sp)
  19              		.cfi_offset 1, -8
  20              		.cfi_offset 8, -16
  21              		.cfi_offset 9, -24
  22 0010 13040102 		addi	s0,sp,32
  23              		.cfi_def_cfa 8, 0
   5:test/pingModif.cpp ****     for(int i=0; i < 5; i++){
  24              		.loc 1 5 5
  25              	.LVL0:
  26              	.LBB2:
  27              		.loc 1 5 13 is_stmt 0
  28 0014 93040000 		li	s1,0
  29              	.LVL1:
  30              	.L3:
  31              		.loc 1 5 20 is_stmt 1 discriminator 1
  32 0018 93074000 		li	a5,4
  33 001c 63CC9700 		bgt	s1,a5,.L2
  34              	.LBB3:
   6:test/pingModif.cpp ****         void* ptr = mem_alloc(640);
  35              		.loc 1 6 9
  36              		.loc 1 6 30 is_stmt 0
  37 0020 13050028 		li	a0,640
  38 0024 97000000 		call	_Z9mem_allocm@plt
  38      E7800000 
  39              	.LVL2:
   7:test/pingModif.cpp **** 
   8:test/pingModif.cpp ****         if(ptr){}
  40              		.loc 1 8 9 is_stmt 1
  41              	.LBE3:
   5:test/pingModif.cpp ****         void* ptr = mem_alloc(640);
  42              		.loc 1 5 5
  43 002c 9B841400 		addiw	s1,s1,1
  44              	.LVL3:
  45 0030 6FF09FFE 		j	.L3
  46              	.LVL4:
  47              	.L2:
  48              	.LBE2:
GAS LISTING /tmp/ccmfkt3p.s 			page 2


   9:test/pingModif.cpp ****     }
  10:test/pingModif.cpp ****     while(true){thread_dispatch();}
  49              		.loc 1 10 5 discriminator 1
  50              		.loc 1 10 17 discriminator 1
  51              		.loc 1 10 32 is_stmt 0 discriminator 1
  52 0034 97000000 		call	_Z15thread_dispatchv@plt
  52      E7800000 
  53              	.LVL5:
  54              		.loc 1 10 5 is_stmt 1 discriminator 1
  55 003c 6FF09FFF 		j	.L2
  56              		.cfi_endproc
  57              	.LFE20:
  59              		.align	2
  60              		.globl	_Z7pingModv
  62              	_Z7pingModv:
  63              	.LFB21:
  11:test/pingModif.cpp **** }
  12:test/pingModif.cpp **** 
  13:test/pingModif.cpp **** void pingMod(){
  64              		.loc 1 13 15
  65              		.cfi_startproc
  66              		.cfi_personality 0x9b,DW.ref.__gxx_personality_v0
  67              		.cfi_lsda 0x1b,.LLSDA21
  68 0040 130101FE 		addi	sp,sp,-32
  69              		.cfi_def_cfa_offset 32
  70 0044 233C1100 		sd	ra,24(sp)
  71 0048 23388100 		sd	s0,16(sp)
  72 004c 23349100 		sd	s1,8(sp)
  73 0050 23302101 		sd	s2,0(sp)
  74              		.cfi_offset 1, -8
  75              		.cfi_offset 8, -16
  76              		.cfi_offset 9, -24
  77              		.cfi_offset 18, -32
  78 0054 13040102 		addi	s0,sp,32
  79              		.cfi_def_cfa 8, 0
  14:test/pingModif.cpp ****     Thread* t1 = new Thread(fja1,nullptr);
  80              		.loc 1 14 5
  81              		.loc 1 14 41 is_stmt 0
  82 0058 13050002 		li	a0,32
  83              	.LEHB0:
  84 005c 97000000 		call	_Znwm@plt
  84      E7800000 
  85              	.LVL6:
  86              	.LEHE0:
  87 0064 93040500 		mv	s1,a0
  88 0068 13060000 		li	a2,0
  89 006c 97050000 		lla	a1,_Z4fja1Pv
  89      93850500 
  90              	.LEHB1:
  91 0074 97000000 		call	_ZN6ThreadC1EPFvPvES0_@plt
  91      E7800000 
  92              	.LVL7:
  93              	.LEHE1:
  15:test/pingModif.cpp ****     t1->start();
  94              		.loc 1 15 5 is_stmt 1 discriminator 2
  95              		.loc 1 15 14 is_stmt 0 discriminator 2
  96 007c 13850400 		mv	a0,s1
GAS LISTING /tmp/ccmfkt3p.s 			page 3


  97              	.LEHB2:
  98 0080 97000000 		call	_ZN6Thread5startEv@plt
  98      E7800000 
  99              	.LVL8:
  16:test/pingModif.cpp ****     t1->ping();
 100              		.loc 1 16 5 is_stmt 1 discriminator 2
 101              		.loc 1 16 13 is_stmt 0 discriminator 2
 102 0088 13850400 		mv	a0,s1
 103 008c 97000000 		call	_ZN6Thread4pingEv@plt
 103      E7800000 
 104              	.LVL9:
  17:test/pingModif.cpp ****     for(int i = 0; i < 20000; i++){
 105              		.loc 1 17 5 is_stmt 1 discriminator 2
 106              	.LBB4:
 107              		.loc 1 17 13 is_stmt 0 discriminator 2
 108 0094 93060000 		li	a3,0
 109 0098 6F008000 		j	.L9
 110              	.LVL10:
 111              	.L7:
 112              		.loc 1 17 5 is_stmt 1 discriminator 2
 113 009c 9B861600 		addiw	a3,a3,1
 114              	.LVL11:
 115              	.L9:
 116              		.loc 1 17 22 discriminator 1
 117 00a0 B7570000 		li	a5,20480
 118 00a4 9387F7E1 		addi	a5,a5,-481
 119 00a8 63CED700 		bgt	a3,a5,.L6
 120              	.LBB5:
  18:test/pingModif.cpp ****         for(int j = 0; j < 20000; j++);
 121              		.loc 1 18 17 is_stmt 0
 122 00ac 13070000 		li	a4,0
 123              	.L8:
 124              	.LVL12:
 125              		.loc 1 18 26 is_stmt 1 discriminator 3
 126 00b0 B7570000 		li	a5,20480
 127 00b4 9387F7E1 		addi	a5,a5,-481
 128 00b8 E3C2E7FE 		bgt	a4,a5,.L7
 129              		.loc 1 18 9 discriminator 2
 130 00bc 1B071700 		addiw	a4,a4,1
 131              	.LVL13:
 132 00c0 6FF01FFF 		j	.L8
 133              	.L6:
 134              	.LBE5:
 135              	.LBE4:
  19:test/pingModif.cpp ****     }
  20:test/pingModif.cpp ****     Thread::dispatch();
 136              		.loc 1 20 5
 137              		.loc 1 20 21 is_stmt 0
 138 00c4 97000000 		call	_ZN6Thread8dispatchEv@plt
 138      E7800000 
 139              	.LVL14:
  21:test/pingModif.cpp ****     t1->ping();
 140              		.loc 1 21 5 is_stmt 1
 141              		.loc 1 21 13 is_stmt 0
 142 00cc 13850400 		mv	a0,s1
 143 00d0 97000000 		call	_ZN6Thread4pingEv@plt
 143      E7800000 
GAS LISTING /tmp/ccmfkt3p.s 			page 4


 144              	.LVL15:
  22:test/pingModif.cpp ****     Thread::dispatch();
 145              		.loc 1 22 5 is_stmt 1
 146              		.loc 1 22 21 is_stmt 0
 147 00d8 97000000 		call	_ZN6Thread8dispatchEv@plt
 147      E7800000 
 148              	.LVL16:
 149              	.LEHE2:
  23:test/pingModif.cpp **** }...
 150              		.loc 1 23 1
 151 00e0 83308101 		ld	ra,24(sp)
 152              		.cfi_remember_state
 153              		.cfi_restore 1
 154 00e4 03340101 		ld	s0,16(sp)
 155              		.cfi_restore 8
 156              		.cfi_def_cfa 2, 32
 157 00e8 83348100 		ld	s1,8(sp)
 158              		.cfi_restore 9
 159              	.LVL17:
 160 00ec 03390100 		ld	s2,0(sp)
 161              		.cfi_restore 18
 162 00f0 13010102 		addi	sp,sp,32
 163              		.cfi_def_cfa_offset 0
 164 00f4 67800000 		jr	ra
 165              	.L11:
 166              		.cfi_restore_state
 167 00f8 13090500 		mv	s2,a0
  14:test/pingModif.cpp ****     Thread* t1 = new Thread(fja1,nullptr);
 168              		.loc 1 14 41
 169 00fc 13850400 		mv	a0,s1
 170 0100 97000000 		call	_ZdlPv@plt
 170      E7800000 
 171              	.LVL18:
 172 0108 13050900 		mv	a0,s2
 173              	.LEHB3:
 174 010c 97000000 		call	_Unwind_Resume@plt
 174      E7800000 
 175              	.LVL19:
 176              	.LEHE3:
 177              		.cfi_endproc
 178              	.LFE21:
 179              		.globl	__gxx_personality_v0
 180              		.section	.gcc_except_table,"a",@progbits
 181              	.LLSDA21:
 182 0000 FF       		.byte	0xff
 183 0001 FF       		.byte	0xff
 184 0002 03       		.byte	0x3
 185 0003 34       		.byte	0x34
 186 0004 00000000 		.4byte	.LEHB0-.LFB21
 187 0008 00000000 		.4byte	.LEHE0-.LEHB0
 188 000c 00000000 		.4byte	0
 189 0010 00       		.byte	0
 190 0011 00000000 		.4byte	.LEHB1-.LFB21
 191 0015 00000000 		.4byte	.LEHE1-.LEHB1
 192 0019 00000000 		.4byte	.L11-.LFB21
 193 001d 00       		.byte	0
 194 001e 00000000 		.4byte	.LEHB2-.LFB21
GAS LISTING /tmp/ccmfkt3p.s 			page 5


 195 0022 00000000 		.4byte	.LEHE2-.LEHB2
 196 0026 00000000 		.4byte	0
 197 002a 00       		.byte	0
 198 002b 00000000 		.4byte	.LEHB3-.LFB21
 199 002f 00000000 		.4byte	.LEHE3-.LEHB3
 200 0033 00000000 		.4byte	0
 201 0037 00       		.byte	0
 202              		.text
 204              	.Letext0:
 205              		.file 2 "test/../h/../lib/hw.h"
 206              		.file 3 "test/../h/syscall_c.hpp"
 207              		.file 4 "test/../h/syscall_cpp.hpp"
 1078              		.align	3
 1081              	DW.ref.__gxx_personality_v0:
 1082 0000 00000000 		.dword	__gxx_personality_v0
 1082      00000000 
 1083              		.ident	"GCC: (Ubuntu 9.4.0-1ubuntu1~20.04) 9.4.0"
 1084              		.section	.note.GNU-stack,"",@progbits
GAS LISTING /tmp/ccmfkt3p.s 			page 6


DEFINED SYMBOLS
                            *ABS*:0000000000000000 pingModif.cpp
     /tmp/ccmfkt3p.s:9      .text:0000000000000000 _Z4fja1Pv
     /tmp/ccmfkt3p.s:13     .text:0000000000000000 .L0 
     /tmp/ccmfkt3p.s:14     .text:0000000000000000 .L0 
     /tmp/ccmfkt3p.s:15     .text:0000000000000004 .L0 
     /tmp/ccmfkt3p.s:19     .text:0000000000000010 .L0 
     /tmp/ccmfkt3p.s:20     .text:0000000000000010 .L0 
     /tmp/ccmfkt3p.s:21     .text:0000000000000010 .L0 
     /tmp/ccmfkt3p.s:23     .text:0000000000000014 .L0 
     /tmp/ccmfkt3p.s:27     .text:0000000000000014 .L0 
     /tmp/ccmfkt3p.s:28     .text:0000000000000014 .L0 
     /tmp/ccmfkt3p.s:32     .text:0000000000000018 .L0 
     /tmp/ccmfkt3p.s:36     .text:0000000000000020 .L0 
     /tmp/ccmfkt3p.s:37     .text:0000000000000020 .L0 
     /tmp/ccmfkt3p.s:42     .text:000000000000002c .L0 
     /tmp/ccmfkt3p.s:43     .text:000000000000002c .L0 
     /tmp/ccmfkt3p.s:50     .text:0000000000000034 .L0 
     /tmp/ccmfkt3p.s:51     .text:0000000000000034 .L0 
     /tmp/ccmfkt3p.s:52     .text:0000000000000034 .L0 
     /tmp/ccmfkt3p.s:55     .text:000000000000003c .L0 
     /tmp/ccmfkt3p.s:56     .text:0000000000000040 .L0 
     /tmp/ccmfkt3p.s:62     .text:0000000000000040 _Z7pingModv
     /tmp/ccmfkt3p.s:65     .text:0000000000000040 .L0 
     /tmp/ccmfkt3p.s:1081   .data.rel.local.DW.ref.__gxx_personality_v0:0000000000000000 DW.ref.__gxx_personality_v0
     /tmp/ccmfkt3p.s:68     .text:0000000000000040 .L0 
     /tmp/ccmfkt3p.s:69     .text:0000000000000044 .L0 
     /tmp/ccmfkt3p.s:74     .text:0000000000000054 .L0 
     /tmp/ccmfkt3p.s:75     .text:0000000000000054 .L0 
     /tmp/ccmfkt3p.s:76     .text:0000000000000054 .L0 
     /tmp/ccmfkt3p.s:77     .text:0000000000000054 .L0 
     /tmp/ccmfkt3p.s:79     .text:0000000000000058 .L0 
     /tmp/ccmfkt3p.s:81     .text:0000000000000058 .L0 
     /tmp/ccmfkt3p.s:82     .text:0000000000000058 .L0 
     /tmp/ccmfkt3p.s:95     .text:000000000000007c .L0 
     /tmp/ccmfkt3p.s:96     .text:000000000000007c .L0 
     /tmp/ccmfkt3p.s:101    .text:0000000000000088 .L0 
     /tmp/ccmfkt3p.s:102    .text:0000000000000088 .L0 
     /tmp/ccmfkt3p.s:107    .text:0000000000000094 .L0 
     /tmp/ccmfkt3p.s:108    .text:0000000000000094 .L0 
     /tmp/ccmfkt3p.s:113    .text:000000000000009c .L0 
     /tmp/ccmfkt3p.s:117    .text:00000000000000a0 .L0 
     /tmp/ccmfkt3p.s:122    .text:00000000000000ac .L0 
     /tmp/ccmfkt3p.s:126    .text:00000000000000b0 .L0 
     /tmp/ccmfkt3p.s:130    .text:00000000000000bc .L0 
     /tmp/ccmfkt3p.s:137    .text:00000000000000c4 .L0 
     /tmp/ccmfkt3p.s:138    .text:00000000000000c4 .L0 
     /tmp/ccmfkt3p.s:141    .text:00000000000000cc .L0 
     /tmp/ccmfkt3p.s:142    .text:00000000000000cc .L0 
     /tmp/ccmfkt3p.s:146    .text:00000000000000d8 .L0 
     /tmp/ccmfkt3p.s:147    .text:00000000000000d8 .L0 
     /tmp/ccmfkt3p.s:151    .text:00000000000000e0 .L0 
     /tmp/ccmfkt3p.s:152    .text:00000000000000e4 .L0 
     /tmp/ccmfkt3p.s:153    .text:00000000000000e4 .L0 
     /tmp/ccmfkt3p.s:155    .text:00000000000000e8 .L0 
     /tmp/ccmfkt3p.s:156    .text:00000000000000e8 .L0 
     /tmp/ccmfkt3p.s:158    .text:00000000000000ec .L0 
GAS LISTING /tmp/ccmfkt3p.s 			page 7


     /tmp/ccmfkt3p.s:161    .text:00000000000000f0 .L0 
     /tmp/ccmfkt3p.s:163    .text:00000000000000f4 .L0 
     /tmp/ccmfkt3p.s:166    .text:00000000000000f8 .L0 
     /tmp/ccmfkt3p.s:169    .text:00000000000000fc .L0 
     /tmp/ccmfkt3p.s:177    .text:0000000000000114 .L0 
     /tmp/ccmfkt3p.s:208    .text:0000000000000114 .L0 
     /tmp/ccmfkt3p.s:89     .text:000000000000006c .L0 
     /tmp/ccmfkt3p.s:47     .text:0000000000000034 .L2
     /tmp/ccmfkt3p.s:30     .text:0000000000000018 .L3
     /tmp/ccmfkt3p.s:115    .text:00000000000000a0 .L9
     /tmp/ccmfkt3p.s:133    .text:00000000000000c4 .L6
     /tmp/ccmfkt3p.s:111    .text:000000000000009c .L7
     /tmp/ccmfkt3p.s:123    .text:00000000000000b0 .L8
     /tmp/ccmfkt3p.s:83     .text:000000000000005c .LEHB0
     /tmp/ccmfkt3p.s:63     .text:0000000000000040 .LFB21
     /tmp/ccmfkt3p.s:86     .text:0000000000000064 .LEHE0
     /tmp/ccmfkt3p.s:90     .text:0000000000000074 .LEHB1
     /tmp/ccmfkt3p.s:93     .text:000000000000007c .LEHE1
     /tmp/ccmfkt3p.s:165    .text:00000000000000f8 .L11
     /tmp/ccmfkt3p.s:97     .text:0000000000000080 .LEHB2
     /tmp/ccmfkt3p.s:149    .text:00000000000000e0 .LEHE2
     /tmp/ccmfkt3p.s:173    .text:000000000000010c .LEHB3
     /tmp/ccmfkt3p.s:176    .text:0000000000000114 .LEHE3
     /tmp/ccmfkt3p.s:592    .debug_abbrev:0000000000000000 .Ldebug_abbrev0
     /tmp/ccmfkt3p.s:1061   .debug_str:000000000000020c .LASF37
     /tmp/ccmfkt3p.s:1009   .debug_str:000000000000009d .LASF38
     /tmp/ccmfkt3p.s:1047   .debug_str:0000000000000191 .LASF39
     /tmp/ccmfkt3p.s:5      .text:0000000000000000 .Ltext0
     /tmp/ccmfkt3p.s:204    .text:0000000000000114 .Letext0
     /tmp/ccmfkt3p.s:987    .debug_line:0000000000000000 .Ldebug_line0
     /tmp/ccmfkt3p.s:1037   .debug_str:000000000000014f .LASF0
     /tmp/ccmfkt3p.s:1043   .debug_str:000000000000016b .LASF1
     /tmp/ccmfkt3p.s:1033   .debug_str:000000000000012e .LASF2
     /tmp/ccmfkt3p.s:1027   .debug_str:000000000000011a .LASF4
     /tmp/ccmfkt3p.s:1053   .debug_str:00000000000001d6 .LASF3
     /tmp/ccmfkt3p.s:993    .debug_str:0000000000000022 .LASF5
     /tmp/ccmfkt3p.s:1045   .debug_str:000000000000017e .LASF6
     /tmp/ccmfkt3p.s:1035   .debug_str:000000000000013c .LASF7
     /tmp/ccmfkt3p.s:1067   .debug_str:00000000000002e6 .LASF8
     /tmp/ccmfkt3p.s:1021   .debug_str:00000000000000f8 .LASF9
     /tmp/ccmfkt3p.s:1049   .debug_str:00000000000001b1 .LASF10
     /tmp/ccmfkt3p.s:1063   .debug_str:00000000000002d0 .LASF11
     /tmp/ccmfkt3p.s:995    .debug_str:0000000000000029 .LASF12
     /tmp/ccmfkt3p.s:989    .debug_str:0000000000000000 .LASF13
     /tmp/ccmfkt3p.s:999    .debug_str:0000000000000045 .LASF14
     /tmp/ccmfkt3p.s:1051   .debug_str:00000000000001c0 .LASF15
     /tmp/ccmfkt3p.s:1007   .debug_str:0000000000000087 .LASF16
     /tmp/ccmfkt3p.s:1023   .debug_str:0000000000000106 .LASF17
     /tmp/ccmfkt3p.s:1011   .debug_str:00000000000000b0 .LASF18
     /tmp/ccmfkt3p.s:1073   .debug_str:0000000000000308 .LASF25
     /tmp/ccmfkt3p.s:997    .debug_str:0000000000000039 .LASF27
     /tmp/ccmfkt3p.s:178    .text:0000000000000114 .LFE21
     /tmp/ccmfkt3p.s:928    .debug_loc:0000000000000000 .LLST1
     /tmp/ccmfkt3p.s:106    .text:0000000000000094 .LBB4
     /tmp/ccmfkt3p.s:135    .text:00000000000000c4 .LBE4
     /tmp/ccmfkt3p.s:935    .debug_loc:0000000000000023 .LLST2
     /tmp/ccmfkt3p.s:120    .text:00000000000000ac .LBB5
GAS LISTING /tmp/ccmfkt3p.s 			page 8


     /tmp/ccmfkt3p.s:134    .text:00000000000000c4 .LBE5
     /tmp/ccmfkt3p.s:947    .debug_loc:000000000000005a .LLST3
     /tmp/ccmfkt3p.s:85     .text:0000000000000064 .LVL6
     /tmp/ccmfkt3p.s:92     .text:000000000000007c .LVL7
     /tmp/ccmfkt3p.s:99     .text:0000000000000088 .LVL8
     /tmp/ccmfkt3p.s:104    .text:0000000000000094 .LVL9
     /tmp/ccmfkt3p.s:139    .text:00000000000000cc .LVL14
     /tmp/ccmfkt3p.s:144    .text:00000000000000d8 .LVL15
     /tmp/ccmfkt3p.s:148    .text:00000000000000e0 .LVL16
     /tmp/ccmfkt3p.s:171    .text:0000000000000108 .LVL18
     /tmp/ccmfkt3p.s:175    .text:0000000000000114 .LVL19
     /tmp/ccmfkt3p.s:1065   .debug_str:00000000000002df .LASF40
     /tmp/ccmfkt3p.s:1019   .debug_str:00000000000000e5 .LASF19
     /tmp/ccmfkt3p.s:1041   .debug_str:0000000000000165 .LASF21
     /tmp/ccmfkt3p.s:991    .debug_str:0000000000000010 .LASF20
     /tmp/ccmfkt3p.s:1017   .debug_str:00000000000000e0 .LASF22
     /tmp/ccmfkt3p.s:1015   .debug_str:00000000000000ca .LASF23
     /tmp/ccmfkt3p.s:1039   .debug_str:000000000000015c .LASF24
     /tmp/ccmfkt3p.s:1071   .debug_str:0000000000000303 .LASF26
     /tmp/ccmfkt3p.s:1059   .debug_str:0000000000000202 .LASF28
     /tmp/ccmfkt3p.s:10     .text:0000000000000000 .LFB20
     /tmp/ccmfkt3p.s:57     .text:0000000000000040 .LFE20
     /tmp/ccmfkt3p.s:26     .text:0000000000000014 .LBB2
     /tmp/ccmfkt3p.s:48     .text:0000000000000034 .LBE2
     /tmp/ccmfkt3p.s:958    .debug_loc:0000000000000090 .LLST0
     /tmp/ccmfkt3p.s:34     .text:0000000000000020 .LBB3
     /tmp/ccmfkt3p.s:41     .text:000000000000002c .LBE3
     /tmp/ccmfkt3p.s:39     .text:000000000000002c .LVL2
     /tmp/ccmfkt3p.s:53     .text:000000000000003c .LVL5
     /tmp/ccmfkt3p.s:1029   .debug_str:0000000000000121 .LASF29
     /tmp/ccmfkt3p.s:1069   .debug_str:00000000000002f6 .LASF30
     /tmp/ccmfkt3p.s:1031   .debug_str:0000000000000127 .LASF31
     /tmp/ccmfkt3p.s:1057   .debug_str:00000000000001f2 .LASF32
     /tmp/ccmfkt3p.s:1025   .debug_str:000000000000010b .LASF41
     /tmp/ccmfkt3p.s:1005   .debug_str:000000000000006f .LASF42
     /tmp/ccmfkt3p.s:1003   .debug_str:0000000000000061 .LASF33
     /tmp/ccmfkt3p.s:1055   .debug_str:00000000000001e8 .LASF34
     /tmp/ccmfkt3p.s:1013   .debug_str:00000000000000b5 .LASF35
     /tmp/ccmfkt3p.s:1001   .debug_str:0000000000000051 .LASF36
     /tmp/ccmfkt3p.s:159    .text:00000000000000ec .LVL17
     /tmp/ccmfkt3p.s:110    .text:000000000000009c .LVL10
     /tmp/ccmfkt3p.s:114    .text:00000000000000a0 .LVL11
     /tmp/ccmfkt3p.s:124    .text:00000000000000b0 .LVL12
     /tmp/ccmfkt3p.s:131    .text:00000000000000c0 .LVL13
     /tmp/ccmfkt3p.s:25     .text:0000000000000014 .LVL0
     /tmp/ccmfkt3p.s:29     .text:0000000000000018 .LVL1
     /tmp/ccmfkt3p.s:44     .text:0000000000000030 .LVL3
     /tmp/ccmfkt3p.s:46     .text:0000000000000034 .LVL4
     /tmp/ccmfkt3p.s:209    .debug_info:0000000000000000 .Ldebug_info0
     /tmp/ccmfkt3p.s:181    .gcc_except_table:0000000000000000 .LLSDA21

UNDEFINED SYMBOLS
_Z9mem_allocm
_Z15thread_dispatchv
_Znwm
_ZN6ThreadC1EPFvPvES0_
_ZN6Thread5startEv
GAS LISTING /tmp/ccmfkt3p.s 			page 9


_ZN6Thread4pingEv
_ZN6Thread8dispatchEv
_ZdlPv
_Unwind_Resume
__gxx_personality_v0
