GAS LISTING /tmp/ccIZTTdk.s 			page 1


   1              		.file	"semPriorMod.cpp"
   2              		.option pic
   3              		.option norelax
   4              		.text
   5              	.Ltext0:
   6              		.section	.text._ZN10UdjeIzadjeD2Ev,"axG",@progbits,_ZN10UdjeIzadjeD5Ev,comdat
   7              		.align	2
   8              		.weak	_ZN10UdjeIzadjeD2Ev
  10              	_ZN10UdjeIzadjeD2Ev:
  11              	.LFB27:
  12              		.file 1 "test/semPriorMod.cpp"
   1:test/semPriorMod.cpp **** #include "semPriorMod.hpp"
   2:test/semPriorMod.cpp **** #include "printing.hpp"
   3:test/semPriorMod.cpp **** #include "../h/syscall_c.hpp"
   4:test/semPriorMod.cpp **** 
   5:test/semPriorMod.cpp **** Semaphore* semP;
   6:test/semPriorMod.cpp **** Semaphore* globS;
   7:test/semPriorMod.cpp **** Thread* threadsPrior[50];
   8:test/semPriorMod.cpp **** 
   9:test/semPriorMod.cpp **** class UdjeIzadje : public Thread{
  13              		.loc 1 9 7
  14              		.cfi_startproc
  15              	.LVL0:
  16 0000 130101FF 		addi	sp,sp,-16
  17              		.cfi_def_cfa_offset 16
  18 0004 23341100 		sd	ra,8(sp)
  19 0008 23308100 		sd	s0,0(sp)
  20              		.cfi_offset 1, -8
  21              		.cfi_offset 8, -16
  22 000c 13040101 		addi	s0,sp,16
  23              		.cfi_def_cfa 8, 0
  24              	.LBB11:
  25              		.loc 1 9 7 is_stmt 0
  26 0010 97070000 		lla	a5,_ZTV10UdjeIzadje+16
  26      93870700 
  27 0018 2330F500 		sd	a5,0(a0)
  28 001c 97000000 		call	_ZN6ThreadD2Ev@plt
  28      E7800000 
  29              	.LVL1:
  30              	.LBE11:
  31 0024 83308100 		ld	ra,8(sp)
  32              		.cfi_restore 1
  33 0028 03340100 		ld	s0,0(sp)
  34              		.cfi_restore 8
  35              		.cfi_def_cfa 2, 16
  36 002c 13010101 		addi	sp,sp,16
  37              		.cfi_def_cfa_offset 0
  38 0030 67800000 		jr	ra
  39              		.cfi_endproc
  40              	.LFE27:
  42              		.weak	_ZN10UdjeIzadjeD1Ev
  43              		.set	_ZN10UdjeIzadjeD1Ev,_ZN10UdjeIzadjeD2Ev
  44              		.section	.text._ZN10UdjeIzadjeD0Ev,"axG",@progbits,_ZN10UdjeIzadjeD5Ev,comdat
  45              		.align	2
  46              		.weak	_ZN10UdjeIzadjeD0Ev
  48              	_ZN10UdjeIzadjeD0Ev:
  49              	.LFB29:
GAS LISTING /tmp/ccIZTTdk.s 			page 2


  50              		.loc 1 9 7 is_stmt 1
  51              		.cfi_startproc
  52              	.LVL2:
  53 0000 130101FE 		addi	sp,sp,-32
  54              		.cfi_def_cfa_offset 32
  55 0004 233C1100 		sd	ra,24(sp)
  56 0008 23388100 		sd	s0,16(sp)
  57 000c 23349100 		sd	s1,8(sp)
  58              		.cfi_offset 1, -8
  59              		.cfi_offset 8, -16
  60              		.cfi_offset 9, -24
  61 0010 13040102 		addi	s0,sp,32
  62              		.cfi_def_cfa 8, 0
  63 0014 93040500 		mv	s1,a0
  64              	.LVL3:
  65              	.LBB12:
  66              	.LBB13:
  67              		.loc 1 9 7 is_stmt 0
  68 0018 97070000 		lla	a5,_ZTV10UdjeIzadje+16
  68      93870700 
  69 0020 2330F500 		sd	a5,0(a0)
  70 0024 97000000 		call	_ZN6ThreadD2Ev@plt
  70      E7800000 
  71              	.LVL4:
  72              	.LBE13:
  73              	.LBE12:
  74 002c 13850400 		mv	a0,s1
  75 0030 97000000 		call	_ZdlPv@plt
  75      E7800000 
  76              	.LVL5:
  77 0038 83308101 		ld	ra,24(sp)
  78              		.cfi_restore 1
  79 003c 03340101 		ld	s0,16(sp)
  80              		.cfi_restore 8
  81              		.cfi_def_cfa 2, 32
  82 0040 83348100 		ld	s1,8(sp)
  83              		.cfi_restore 9
  84              	.LVL6:
  85 0044 13010102 		addi	sp,sp,32
  86              		.cfi_def_cfa_offset 0
  87 0048 67800000 		jr	ra
  88              		.cfi_endproc
  89              	.LFE29:
  91              		.section	.rodata.str1.8,"aMS",@progbits,1
  92              		.align	3
  93              	.LC0:
  94 0000 5573616F 		.string	"Usao u kriticnu sekciju\n"
  94      2075206B 
  94      72697469 
  94      636E7520 
  94      73656B63 
  95 0019 00000000 		.align	3
  95      000000
  96              	.LC1:
  97 0020 497A6173 		.string	"Izasao iz kriticne sekcije\n"
  97      616F2069 
  97      7A206B72 
GAS LISTING /tmp/ccIZTTdk.s 			page 3


  97      69746963 
  97      6E652073 
  98              		.text
  99              		.align	2
 100              		.globl	_ZN10UdjeIzadje7workerAEPv
 102              	_ZN10UdjeIzadje7workerAEPv:
 103              	.LFB24:
  10:test/semPriorMod.cpp **** public:
  11:test/semPriorMod.cpp ****     UdjeIzadje(){}
  12:test/semPriorMod.cpp ****     void workerA(void* arg);
  13:test/semPriorMod.cpp **** protected:
  14:test/semPriorMod.cpp ****     void run() override{
  15:test/semPriorMod.cpp ****         workerA(nullptr);
  16:test/semPriorMod.cpp ****     }
  17:test/semPriorMod.cpp **** };
  18:test/semPriorMod.cpp **** 
  19:test/semPriorMod.cpp **** void UdjeIzadje::workerA(void* arg){
 104              		.loc 1 19 36 is_stmt 1
 105              		.cfi_startproc
 106              	.LVL7:
 107 0000 130101FE 		addi	sp,sp,-32
 108              		.cfi_def_cfa_offset 32
 109 0004 233C1100 		sd	ra,24(sp)
 110 0008 23388100 		sd	s0,16(sp)
 111 000c 23349100 		sd	s1,8(sp)
 112              		.cfi_offset 1, -8
 113              		.cfi_offset 8, -16
 114              		.cfi_offset 9, -24
 115 0010 13040102 		addi	s0,sp,32
 116              		.cfi_def_cfa 8, 0
  20:test/semPriorMod.cpp ****     semP->wait();
 117              		.loc 1 20 5
 118              		.loc 1 20 15 is_stmt 0
 119 0014 17050000 		ld	a0,.LANCHOR0
 119      03350500 
 120              	.LVL8:
 121 001c 97000000 		call	_ZN9Semaphore4waitEv@plt
 121      E7800000 
 122              	.LVL9:
  21:test/semPriorMod.cpp ****     printString("Usao u kriticnu sekciju\n");
 123              		.loc 1 21 5 is_stmt 1
 124              		.loc 1 21 16 is_stmt 0
 125 0024 17050000 		lla	a0,.LC0
 125      13050500 
 126 002c 97000000 		call	_Z11printStringPKc@plt
 126      E7800000 
 127              	.LVL10:
  22:test/semPriorMod.cpp ****     for(int i=0;i<10000;i++){
 128              		.loc 1 22 5 is_stmt 1
 129              	.LBB14:
 130              		.loc 1 22 13 is_stmt 0
 131 0034 93040000 		li	s1,0
 132 0038 6F000001 		j	.L9
 133              	.LVL11:
 134              	.L7:
 135              	.LBB15:
  23:test/semPriorMod.cpp ****         for(int j=0;j<3000;j++);
GAS LISTING /tmp/ccIZTTdk.s 			page 4


  24:test/semPriorMod.cpp ****         thread_dispatch();
 136              		.loc 1 24 9 is_stmt 1 discriminator 2
 137              		.loc 1 24 24 is_stmt 0 discriminator 2
 138 003c 97000000 		call	_Z15thread_dispatchv@plt
 138      E7800000 
 139              	.LVL12:
 140              	.LBE15:
  22:test/semPriorMod.cpp ****     for(int i=0;i<10000;i++){
 141              		.loc 1 22 5 is_stmt 1 discriminator 2
 142 0044 9B841400 		addiw	s1,s1,1
 143              	.LVL13:
 144              	.L9:
  22:test/semPriorMod.cpp ****     for(int i=0;i<10000;i++){
 145              		.loc 1 22 18 discriminator 1
 146 0048 B7270000 		li	a5,8192
 147 004c 9387F770 		addi	a5,a5,1807
 148 0050 63CE9700 		bgt	s1,a5,.L6
 149              	.LBB17:
 150              	.LBB16:
  23:test/semPriorMod.cpp ****         for(int j=0;j<3000;j++);
 151              		.loc 1 23 17 is_stmt 0
 152 0054 13070000 		li	a4,0
 153              	.L8:
 154              	.LVL14:
  23:test/semPriorMod.cpp ****         for(int j=0;j<3000;j++);
 155              		.loc 1 23 22 is_stmt 1 discriminator 3
 156 0058 B7170000 		li	a5,4096
 157 005c 938777BB 		addi	a5,a5,-1097
 158 0060 E3CEE7FC 		bgt	a4,a5,.L7
  23:test/semPriorMod.cpp ****         for(int j=0;j<3000;j++);
 159              		.loc 1 23 9 discriminator 2
 160 0064 1B071700 		addiw	a4,a4,1
 161              	.LVL15:
 162 0068 6FF01FFF 		j	.L8
 163              	.L6:
 164              	.LBE16:
 165              	.LBE17:
 166              	.LBE14:
  25:test/semPriorMod.cpp ****     }
  26:test/semPriorMod.cpp **** 
  27:test/semPriorMod.cpp ****     semP->signal();
 167              		.loc 1 27 5
 168              		.loc 1 27 17 is_stmt 0
 169 006c 97040000 		lla	s1,.LANCHOR0
 169      93840400 
 170              	.LVL16:
 171 0074 03B50400 		ld	a0,0(s1)
 172 0078 97000000 		call	_ZN9Semaphore6signalEv@plt
 172      E7800000 
 173              	.LVL17:
  28:test/semPriorMod.cpp ****     globS->signal();
 174              		.loc 1 28 5 is_stmt 1
 175              		.loc 1 28 18 is_stmt 0
 176 0080 03B58400 		ld	a0,8(s1)
 177 0084 97000000 		call	_ZN9Semaphore6signalEv@plt
 177      E7800000 
 178              	.LVL18:
GAS LISTING /tmp/ccIZTTdk.s 			page 5


  29:test/semPriorMod.cpp ****     printString("Izasao iz kriticne sekcije\n");
 179              		.loc 1 29 5 is_stmt 1
 180              		.loc 1 29 16 is_stmt 0
 181 008c 17050000 		lla	a0,.LC1
 181      13050500 
 182 0094 97000000 		call	_Z11printStringPKc@plt
 182      E7800000 
 183              	.LVL19:
  30:test/semPriorMod.cpp **** }
 184              		.loc 1 30 1
 185 009c 83308101 		ld	ra,24(sp)
 186              		.cfi_restore 1
 187 00a0 03340101 		ld	s0,16(sp)
 188              		.cfi_restore 8
 189              		.cfi_def_cfa 2, 32
 190 00a4 83348100 		ld	s1,8(sp)
 191              		.cfi_restore 9
 192 00a8 13010102 		addi	sp,sp,32
 193              		.cfi_def_cfa_offset 0
 194 00ac 67800000 		jr	ra
 195              		.cfi_endproc
 196              	.LFE24:
 198              		.section	.text._ZN10UdjeIzadje3runEv,"axG",@progbits,_ZN10UdjeIzadje3runEv,comdat
 199              		.align	2
 200              		.weak	_ZN10UdjeIzadje3runEv
 202              	_ZN10UdjeIzadje3runEv:
 203              	.LFB23:
  14:test/semPriorMod.cpp ****         workerA(nullptr);
 204              		.loc 1 14 10 is_stmt 1
 205              		.cfi_startproc
 206              	.LVL20:
 207 0000 130101FF 		addi	sp,sp,-16
 208              		.cfi_def_cfa_offset 16
 209 0004 23341100 		sd	ra,8(sp)
 210 0008 23308100 		sd	s0,0(sp)
 211              		.cfi_offset 1, -8
 212              		.cfi_offset 8, -16
 213 000c 13040101 		addi	s0,sp,16
 214              		.cfi_def_cfa 8, 0
  15:test/semPriorMod.cpp ****     }
 215              		.loc 1 15 9
  15:test/semPriorMod.cpp ****     }
 216              		.loc 1 15 16 is_stmt 0
 217 0010 93050000 		li	a1,0
 218 0014 97000000 		call	_ZN10UdjeIzadje7workerAEPv
 218      E7800000 
 219              	.LVL21:
  16:test/semPriorMod.cpp **** };
 220              		.loc 1 16 5
 221 001c 83308100 		ld	ra,8(sp)
 222              		.cfi_restore 1
 223 0020 03340100 		ld	s0,0(sp)
 224              		.cfi_restore 8
 225              		.cfi_def_cfa 2, 16
 226 0024 13010101 		addi	sp,sp,16
 227              		.cfi_def_cfa_offset 0
 228 0028 67800000 		jr	ra
GAS LISTING /tmp/ccIZTTdk.s 			page 6


 229              		.cfi_endproc
 230              	.LFE23:
 232              		.text
 233              		.align	2
 234              		.globl	_Z13semPriorModifv
 236              	_Z13semPriorModifv:
 237              	.LFB25:
  31:test/semPriorMod.cpp **** 
  32:test/semPriorMod.cpp **** void semPriorModif(){
 238              		.loc 1 32 21 is_stmt 1
 239              		.cfi_startproc
 240              		.cfi_personality 0x9b,DW.ref.__gxx_personality_v0
 241              		.cfi_lsda 0x1b,.LLSDA25
 242 00b0 130101FE 		addi	sp,sp,-32
 243              		.cfi_def_cfa_offset 32
 244 00b4 233C1100 		sd	ra,24(sp)
 245 00b8 23388100 		sd	s0,16(sp)
 246 00bc 23349100 		sd	s1,8(sp)
 247 00c0 23302101 		sd	s2,0(sp)
 248              		.cfi_offset 1, -8
 249              		.cfi_offset 8, -16
 250              		.cfi_offset 9, -24
 251              		.cfi_offset 18, -32
 252 00c4 13040102 		addi	s0,sp,32
 253              		.cfi_def_cfa 8, 0
  33:test/semPriorMod.cpp ****     semP = new Semaphore(5);
 254              		.loc 1 33 5
 255              		.loc 1 33 27 is_stmt 0
 256 00c8 13050002 		li	a0,32
 257              	.LEHB0:
 258 00cc 97000000 		call	_Znwm@plt
 258      E7800000 
 259              	.LVL22:
 260              	.LEHE0:
 261 00d4 93040500 		mv	s1,a0
 262 00d8 93055000 		li	a1,5
 263              	.LEHB1:
 264 00dc 97000000 		call	_ZN9SemaphoreC1Ej@plt
 264      E7800000 
 265              	.LVL23:
 266              	.LEHE1:
 267              		.loc 1 33 10 discriminator 2
 268 00e4 97070000 		sd	s1,.LANCHOR0,a5
 268      23B09700 
  34:test/semPriorMod.cpp ****     semP->turnOnPriorities();
 269              		.loc 1 34 5 is_stmt 1 discriminator 2
 270              		.loc 1 34 27 is_stmt 0 discriminator 2
 271 00ec 13850400 		mv	a0,s1
 272              	.LEHB2:
 273 00f0 97000000 		call	_ZN9Semaphore16turnOnPrioritiesEv@plt
 273      E7800000 
 274              	.LVL24:
  35:test/semPriorMod.cpp **** 
  36:test/semPriorMod.cpp ****     for(int i=0;i<50;i++){
 275              		.loc 1 36 5 is_stmt 1 discriminator 2
 276              	.LBB18:
 277              		.loc 1 36 13 is_stmt 0 discriminator 2
GAS LISTING /tmp/ccIZTTdk.s 			page 7


 278 00f8 13090000 		li	s2,0
 279 00fc 6F008002 		j	.L15
 280              	.LVL25:
 281              	.L29:
 282              	.LBB19:
 283              	.LBB20:
  11:test/semPriorMod.cpp ****     void workerA(void* arg);
 284              		.loc 1 11 17
 285 0100 97070000 		lla	a5,_ZTV10UdjeIzadje+16
 285      93870700 
 286 0108 23B0F400 		sd	a5,0(s1)
 287              	.LVL26:
 288              	.LBE20:
 289              	.LBE19:
  37:test/semPriorMod.cpp ****         threadsPrior[i] = new UdjeIzadje();
 290              		.loc 1 37 25
 291 010c 13173900 		slli	a4,s2,3
 292 0110 97070000 		lla	a5,.LANCHOR0
 292      93870700 
 293 0118 B387E700 		add	a5,a5,a4
 294 011c 23B89700 		sd	s1,16(a5)
  36:test/semPriorMod.cpp ****         threadsPrior[i] = new UdjeIzadje();
 295              		.loc 1 36 5 is_stmt 1
 296 0120 1B091900 		addiw	s2,s2,1
 297              	.LVL27:
 298              	.L15:
  36:test/semPriorMod.cpp ****         threadsPrior[i] = new UdjeIzadje();
 299              		.loc 1 36 18 discriminator 1
 300 0124 93071003 		li	a5,49
 301 0128 63C02703 		bgt	s2,a5,.L14
 302              		.loc 1 37 9
 303              		.loc 1 37 42 is_stmt 0
 304 012c 13050002 		li	a0,32
 305 0130 97000000 		call	_Znwm@plt
 305      E7800000 
 306              	.LVL28:
 307              	.LEHE2:
 308 0138 93040500 		mv	s1,a0
 309              	.LVL29:
 310              	.LEHB3:
 311              	.LBB22:
 312              	.LBB21:
  11:test/semPriorMod.cpp ****     void workerA(void* arg);
 313              		.loc 1 11 17
 314 013c 97000000 		call	_ZN6ThreadC2Ev@plt
 314      E7800000 
 315              	.LVL30:
 316              	.LEHE3:
 317 0144 6FF0DFFB 		j	.L29
 318              	.LVL31:
 319              	.L14:
 320              	.LBE21:
 321              	.LBE22:
 322              	.LBE18:
  38:test/semPriorMod.cpp ****     }
  39:test/semPriorMod.cpp ****     globS = new Semaphore(0);
 323              		.loc 1 39 5 is_stmt 1
GAS LISTING /tmp/ccIZTTdk.s 			page 8


 324              		.loc 1 39 28 is_stmt 0
 325 0148 13050002 		li	a0,32
 326              	.LEHB4:
 327 014c 97000000 		call	_Znwm@plt
 327      E7800000 
 328              	.LVL32:
 329              	.LEHE4:
 330 0154 93040500 		mv	s1,a0
 331 0158 93050000 		li	a1,0
 332              	.LEHB5:
 333 015c 97000000 		call	_ZN9SemaphoreC1Ej@plt
 333      E7800000 
 334              	.LVL33:
 335              	.LEHE5:
 336              		.loc 1 39 11 discriminator 2
 337 0164 97070000 		sd	s1,.LANCHOR0+8,a5
 337      23B09700 
  40:test/semPriorMod.cpp ****     for(int i=0;i<50;i++){
 338              		.loc 1 40 5 is_stmt 1 discriminator 2
 339              	.LVL34:
 340              	.LBB23:
 341              		.loc 1 40 13 is_stmt 0 discriminator 2
 342 016c 93040000 		li	s1,0
 343              	.LVL35:
 344              	.L17:
 345              		.loc 1 40 18 is_stmt 1 discriminator 3
 346 0170 93071003 		li	a5,49
 347 0174 63C49702 		bgt	s1,a5,.L24
  41:test/semPriorMod.cpp ****         threadsPrior[i]->start();
 348              		.loc 1 41 9 discriminator 2
 349              		.loc 1 41 23 is_stmt 0 discriminator 2
 350 0178 13973400 		slli	a4,s1,3
 351 017c 97070000 		lla	a5,.LANCHOR0
 351      93870700 
 352 0184 B387E700 		add	a5,a5,a4
 353              		.loc 1 41 31 discriminator 2
 354 0188 03B50701 		ld	a0,16(a5)
 355              	.LEHB6:
 356 018c 97000000 		call	_ZN6Thread5startEv@plt
 356      E7800000 
 357              	.LVL36:
  40:test/semPriorMod.cpp ****     for(int i=0;i<50;i++){
 358              		.loc 1 40 5 is_stmt 1 discriminator 2
 359 0194 9B841400 		addiw	s1,s1,1
 360              	.LVL37:
 361 0198 6FF09FFD 		j	.L17
 362              	.LVL38:
 363              	.L24:
 364              	.LBE23:
 365              	.LBB24:
  42:test/semPriorMod.cpp ****     }
  43:test/semPriorMod.cpp **** 
  44:test/semPriorMod.cpp ****     for(int i=0;i<50;i++){
 366              		.loc 1 44 13 is_stmt 0
 367 019c 93040000 		li	s1,0
 368              	.LVL39:
 369              	.L16:
GAS LISTING /tmp/ccIZTTdk.s 			page 9


 370              		.loc 1 44 18 is_stmt 1 discriminator 3
 371 01a0 93071003 		li	a5,49
 372 01a4 63CE9700 		bgt	s1,a5,.L18
  45:test/semPriorMod.cpp ****         globS->wait();
 373              		.loc 1 45 9 discriminator 2
 374              		.loc 1 45 20 is_stmt 0 discriminator 2
 375 01a8 17050000 		ld	a0,.LANCHOR0+8
 375      03350500 
 376 01b0 97000000 		call	_ZN9Semaphore4waitEv@plt
 376      E7800000 
 377              	.LVL40:
 378              	.LEHE6:
  44:test/semPriorMod.cpp ****         globS->wait();
 379              		.loc 1 44 5 is_stmt 1 discriminator 2
 380 01b8 9B841400 		addiw	s1,s1,1
 381              	.LVL41:
 382 01bc 6FF05FFE 		j	.L16
 383              	.LVL42:
 384              	.L18:
 385              	.LBE24:
  46:test/semPriorMod.cpp ****     }
  47:test/semPriorMod.cpp **** 
  48:test/semPriorMod.cpp ****     delete globS;
 386              		.loc 1 48 5
 387              		.loc 1 48 12 is_stmt 0
 388 01c0 17050000 		ld	a0,.LANCHOR0+8
 388      03350500 
 389              		.loc 1 48 17
 390 01c8 63080500 		beqz	a0,.L19
 391              		.loc 1 48 12 discriminator 1
 392 01cc 83370500 		ld	a5,0(a0)
 393 01d0 83B78700 		ld	a5,8(a5)
 394 01d4 E7800700 		jalr	a5
 395              	.LVL43:
 396              	.L19:
  49:test/semPriorMod.cpp ****     delete semP;
 397              		.loc 1 49 5 is_stmt 1
 398              		.loc 1 49 12 is_stmt 0
 399 01d8 17050000 		ld	a0,.LANCHOR0
 399      03350500 
 400              		.loc 1 49 16
 401 01e0 63080500 		beqz	a0,.L13
 402              		.loc 1 49 12 discriminator 1
 403 01e4 83370500 		ld	a5,0(a0)
 404 01e8 83B78700 		ld	a5,8(a5)
 405 01ec E7800700 		jalr	a5
 406              	.LVL44:
 407              	.L13:
  50:test/semPriorMod.cpp **** 
  51:test/semPriorMod.cpp **** }...
 408              		.loc 1 51 1
 409 01f0 83308101 		ld	ra,24(sp)
 410              		.cfi_remember_state
 411              		.cfi_restore 1
 412 01f4 03340101 		ld	s0,16(sp)
 413              		.cfi_restore 8
 414              		.cfi_def_cfa 2, 32
GAS LISTING /tmp/ccIZTTdk.s 			page 10


 415 01f8 83348100 		ld	s1,8(sp)
 416              		.cfi_restore 9
 417              	.LVL45:
 418 01fc 03390100 		ld	s2,0(sp)
 419              		.cfi_restore 18
 420              	.LVL46:
 421 0200 13010102 		addi	sp,sp,32
 422              		.cfi_def_cfa_offset 0
 423 0204 67800000 		jr	ra
 424              	.L25:
 425              		.cfi_restore_state
 426 0208 13090500 		mv	s2,a0
  33:test/semPriorMod.cpp ****     semP = new Semaphore(5);
 427              		.loc 1 33 27
 428 020c 13850400 		mv	a0,s1
 429 0210 97000000 		call	_ZdlPv@plt
 429      E7800000 
 430              	.LVL47:
 431 0218 13050900 		mv	a0,s2
 432              	.LEHB7:
 433 021c 97000000 		call	_Unwind_Resume@plt
 433      E7800000 
 434              	.LVL48:
 435              	.LEHE7:
 436              	.L26:
 437 0224 13090500 		mv	s2,a0
 438              	.LVL49:
 439              	.LBB25:
  37:test/semPriorMod.cpp ****         threadsPrior[i] = new UdjeIzadje();
 440              		.loc 1 37 42
 441 0228 13850400 		mv	a0,s1
 442 022c 97000000 		call	_ZdlPv@plt
 442      E7800000 
 443              	.LVL50:
 444 0234 13050900 		mv	a0,s2
 445              	.LEHB8:
 446 0238 97000000 		call	_Unwind_Resume@plt
 446      E7800000 
 447              	.LVL51:
 448              	.LEHE8:
 449              	.L27:
 450 0240 13090500 		mv	s2,a0
 451              	.LVL52:
 452              	.LBE25:
  39:test/semPriorMod.cpp ****     globS = new Semaphore(0);
 453              		.loc 1 39 28
 454 0244 13850400 		mv	a0,s1
 455 0248 97000000 		call	_ZdlPv@plt
 455      E7800000 
 456              	.LVL53:
 457 0250 13050900 		mv	a0,s2
 458              	.LEHB9:
 459 0254 97000000 		call	_Unwind_Resume@plt
 459      E7800000 
 460              	.LVL54:
 461              	.LEHE9:
 462              		.cfi_endproc
GAS LISTING /tmp/ccIZTTdk.s 			page 11


 463              	.LFE25:
 464              		.globl	__gxx_personality_v0
 465              		.section	.gcc_except_table,"a",@progbits
 466              	.LLSDA25:
 467 0000 FF       		.byte	0xff
 468 0001 FF       		.byte	0xff
 469 0002 03       		.byte	0x3
 470 0003 8201     		.byte	0x82,0x1
 471 0005 00000000 		.4byte	.LEHB0-.LFB25
 472 0009 00000000 		.4byte	.LEHE0-.LEHB0
 473 000d 00000000 		.4byte	0
 474 0011 00       		.byte	0
 475 0012 00000000 		.4byte	.LEHB1-.LFB25
 476 0016 00000000 		.4byte	.LEHE1-.LEHB1
 477 001a 00000000 		.4byte	.L25-.LFB25
 478 001e 00       		.byte	0
 479 001f 00000000 		.4byte	.LEHB2-.LFB25
 480 0023 00000000 		.4byte	.LEHE2-.LEHB2
 481 0027 00000000 		.4byte	0
 482 002b 00       		.byte	0
 483 002c 00000000 		.4byte	.LEHB3-.LFB25
 484 0030 00000000 		.4byte	.LEHE3-.LEHB3
 485 0034 00000000 		.4byte	.L26-.LFB25
 486 0038 00       		.byte	0
 487 0039 00000000 		.4byte	.LEHB4-.LFB25
 488 003d 00000000 		.4byte	.LEHE4-.LEHB4
 489 0041 00000000 		.4byte	0
 490 0045 00       		.byte	0
 491 0046 00000000 		.4byte	.LEHB5-.LFB25
 492 004a 00000000 		.4byte	.LEHE5-.LEHB5
 493 004e 00000000 		.4byte	.L27-.LFB25
 494 0052 00       		.byte	0
 495 0053 00000000 		.4byte	.LEHB6-.LFB25
 496 0057 00000000 		.4byte	.LEHE6-.LEHB6
 497 005b 00000000 		.4byte	0
 498 005f 00       		.byte	0
 499 0060 00000000 		.4byte	.LEHB7-.LFB25
 500 0064 00000000 		.4byte	.LEHE7-.LEHB7
 501 0068 00000000 		.4byte	0
 502 006c 00       		.byte	0
 503 006d 00000000 		.4byte	.LEHB8-.LFB25
 504 0071 00000000 		.4byte	.LEHE8-.LEHB8
 505 0075 00000000 		.4byte	0
 506 0079 00       		.byte	0
 507 007a 00000000 		.4byte	.LEHB9-.LFB25
 508 007e 00000000 		.4byte	.LEHE9-.LEHB9
 509 0082 00000000 		.4byte	0
 510 0086 00       		.byte	0
 511              		.text
 513              		.weak	_ZTV10UdjeIzadje
 514              		.section	.data.rel.ro.local._ZTV10UdjeIzadje,"awG",@progbits,_ZTV10UdjeIzadje,comdat
 515              		.align	3
 518              	_ZTV10UdjeIzadje:
 519 0000 00000000 		.dword	0
 519      00000000 
 520 0008 00000000 		.dword	0
 520      00000000 
GAS LISTING /tmp/ccIZTTdk.s 			page 12


 521 0010 00000000 		.dword	_ZN10UdjeIzadjeD1Ev
 521      00000000 
 522 0018 00000000 		.dword	_ZN10UdjeIzadjeD0Ev
 522      00000000 
 523 0020 00000000 		.dword	_ZN10UdjeIzadje3runEv
 523      00000000 
 524              		.globl	threadsPrior
 525              		.globl	globS
 526              		.globl	semP
 527              		.bss
 528              		.align	3
 529              		.set	.LANCHOR0,. + 0
 532              	semP:
 533 0000 00000000 		.zero	8
 533      00000000 
 536              	globS:
 537 0008 00000000 		.zero	8
 537      00000000 
 540              	threadsPrior:
 541 0010 00000000 		.zero	400
 541      00000000 
 541      00000000 
 541      00000000 
 541      00000000 
 542              		.text
 543              	.Letext0:
 544              		.file 2 "test/../h/../lib/hw.h"
 545              		.file 3 "test/../h/syscall_cpp.hpp"
 546              		.file 4 "test/../h/syscall_c.hpp"
 547              		.file 5 "test/printing.hpp"
 2354              		.align	3
 2357              	DW.ref.__gxx_personality_v0:
 2358 0000 00000000 		.dword	__gxx_personality_v0
 2358      00000000 
 2359              		.ident	"GCC: (Ubuntu 9.4.0-1ubuntu1~20.04) 9.4.0"
 2360              		.section	.note.GNU-stack,"",@progbits
GAS LISTING /tmp/ccIZTTdk.s 			page 13


DEFINED SYMBOLS
                            *ABS*:0000000000000000 semPriorMod.cpp
     /tmp/ccIZTTdk.s:10     .text._ZN10UdjeIzadjeD2Ev:0000000000000000 _ZN10UdjeIzadjeD2Ev
     /tmp/ccIZTTdk.s:14     .text._ZN10UdjeIzadjeD2Ev:0000000000000000 .L0 
     /tmp/ccIZTTdk.s:16     .text._ZN10UdjeIzadjeD2Ev:0000000000000000 .L0 
     /tmp/ccIZTTdk.s:17     .text._ZN10UdjeIzadjeD2Ev:0000000000000004 .L0 
     /tmp/ccIZTTdk.s:20     .text._ZN10UdjeIzadjeD2Ev:000000000000000c .L0 
     /tmp/ccIZTTdk.s:21     .text._ZN10UdjeIzadjeD2Ev:000000000000000c .L0 
     /tmp/ccIZTTdk.s:23     .text._ZN10UdjeIzadjeD2Ev:0000000000000010 .L0 
     /tmp/ccIZTTdk.s:518    .data.rel.ro.local._ZTV10UdjeIzadje:0000000000000000 _ZTV10UdjeIzadje
     /tmp/ccIZTTdk.s:26     .text._ZN10UdjeIzadjeD2Ev:0000000000000010 .L0 
     /tmp/ccIZTTdk.s:32     .text._ZN10UdjeIzadjeD2Ev:0000000000000028 .L0 
     /tmp/ccIZTTdk.s:34     .text._ZN10UdjeIzadjeD2Ev:000000000000002c .L0 
     /tmp/ccIZTTdk.s:35     .text._ZN10UdjeIzadjeD2Ev:000000000000002c .L0 
     /tmp/ccIZTTdk.s:37     .text._ZN10UdjeIzadjeD2Ev:0000000000000030 .L0 
     /tmp/ccIZTTdk.s:39     .text._ZN10UdjeIzadjeD2Ev:0000000000000034 .L0 
     /tmp/ccIZTTdk.s:10     .text._ZN10UdjeIzadjeD2Ev:0000000000000000 _ZN10UdjeIzadjeD1Ev
     /tmp/ccIZTTdk.s:48     .text._ZN10UdjeIzadjeD0Ev:0000000000000000 _ZN10UdjeIzadjeD0Ev
     /tmp/ccIZTTdk.s:51     .text._ZN10UdjeIzadjeD0Ev:0000000000000000 .L0 
     /tmp/ccIZTTdk.s:53     .text._ZN10UdjeIzadjeD0Ev:0000000000000000 .L0 
     /tmp/ccIZTTdk.s:54     .text._ZN10UdjeIzadjeD0Ev:0000000000000004 .L0 
     /tmp/ccIZTTdk.s:58     .text._ZN10UdjeIzadjeD0Ev:0000000000000010 .L0 
     /tmp/ccIZTTdk.s:59     .text._ZN10UdjeIzadjeD0Ev:0000000000000010 .L0 
     /tmp/ccIZTTdk.s:60     .text._ZN10UdjeIzadjeD0Ev:0000000000000010 .L0 
     /tmp/ccIZTTdk.s:62     .text._ZN10UdjeIzadjeD0Ev:0000000000000014 .L0 
     /tmp/ccIZTTdk.s:68     .text._ZN10UdjeIzadjeD0Ev:0000000000000018 .L0 
     /tmp/ccIZTTdk.s:78     .text._ZN10UdjeIzadjeD0Ev:000000000000003c .L0 
     /tmp/ccIZTTdk.s:80     .text._ZN10UdjeIzadjeD0Ev:0000000000000040 .L0 
     /tmp/ccIZTTdk.s:81     .text._ZN10UdjeIzadjeD0Ev:0000000000000040 .L0 
     /tmp/ccIZTTdk.s:83     .text._ZN10UdjeIzadjeD0Ev:0000000000000044 .L0 
     /tmp/ccIZTTdk.s:86     .text._ZN10UdjeIzadjeD0Ev:0000000000000048 .L0 
     /tmp/ccIZTTdk.s:88     .text._ZN10UdjeIzadjeD0Ev:000000000000004c .L0 
     /tmp/ccIZTTdk.s:102    .text:0000000000000000 _ZN10UdjeIzadje7workerAEPv
     /tmp/ccIZTTdk.s:105    .text:0000000000000000 .L0 
     /tmp/ccIZTTdk.s:107    .text:0000000000000000 .L0 
     /tmp/ccIZTTdk.s:108    .text:0000000000000004 .L0 
     /tmp/ccIZTTdk.s:112    .text:0000000000000010 .L0 
     /tmp/ccIZTTdk.s:113    .text:0000000000000010 .L0 
     /tmp/ccIZTTdk.s:114    .text:0000000000000010 .L0 
     /tmp/ccIZTTdk.s:116    .text:0000000000000014 .L0 
     /tmp/ccIZTTdk.s:118    .text:0000000000000014 .L0 
     /tmp/ccIZTTdk.s:119    .text:0000000000000014 .L0 
     /tmp/ccIZTTdk.s:124    .text:0000000000000024 .L0 
     /tmp/ccIZTTdk.s:125    .text:0000000000000024 .L0 
     /tmp/ccIZTTdk.s:130    .text:0000000000000034 .L0 
     /tmp/ccIZTTdk.s:131    .text:0000000000000034 .L0 
     /tmp/ccIZTTdk.s:137    .text:000000000000003c .L0 
     /tmp/ccIZTTdk.s:138    .text:000000000000003c .L0 
     /tmp/ccIZTTdk.s:142    .text:0000000000000044 .L0 
     /tmp/ccIZTTdk.s:146    .text:0000000000000048 .L0 
     /tmp/ccIZTTdk.s:152    .text:0000000000000054 .L0 
     /tmp/ccIZTTdk.s:156    .text:0000000000000058 .L0 
     /tmp/ccIZTTdk.s:160    .text:0000000000000064 .L0 
     /tmp/ccIZTTdk.s:168    .text:000000000000006c .L0 
     /tmp/ccIZTTdk.s:169    .text:000000000000006c .L0 
     /tmp/ccIZTTdk.s:175    .text:0000000000000080 .L0 
     /tmp/ccIZTTdk.s:176    .text:0000000000000080 .L0 
GAS LISTING /tmp/ccIZTTdk.s 			page 14


     /tmp/ccIZTTdk.s:180    .text:000000000000008c .L0 
     /tmp/ccIZTTdk.s:181    .text:000000000000008c .L0 
     /tmp/ccIZTTdk.s:185    .text:000000000000009c .L0 
     /tmp/ccIZTTdk.s:186    .text:00000000000000a0 .L0 
     /tmp/ccIZTTdk.s:188    .text:00000000000000a4 .L0 
     /tmp/ccIZTTdk.s:189    .text:00000000000000a4 .L0 
     /tmp/ccIZTTdk.s:191    .text:00000000000000a8 .L0 
     /tmp/ccIZTTdk.s:193    .text:00000000000000ac .L0 
     /tmp/ccIZTTdk.s:195    .text:00000000000000b0 .L0 
     /tmp/ccIZTTdk.s:202    .text._ZN10UdjeIzadje3runEv:0000000000000000 _ZN10UdjeIzadje3runEv
     /tmp/ccIZTTdk.s:205    .text._ZN10UdjeIzadje3runEv:0000000000000000 .L0 
     /tmp/ccIZTTdk.s:207    .text._ZN10UdjeIzadje3runEv:0000000000000000 .L0 
     /tmp/ccIZTTdk.s:208    .text._ZN10UdjeIzadje3runEv:0000000000000004 .L0 
     /tmp/ccIZTTdk.s:211    .text._ZN10UdjeIzadje3runEv:000000000000000c .L0 
     /tmp/ccIZTTdk.s:212    .text._ZN10UdjeIzadje3runEv:000000000000000c .L0 
     /tmp/ccIZTTdk.s:214    .text._ZN10UdjeIzadje3runEv:0000000000000010 .L0 
     /tmp/ccIZTTdk.s:216    .text._ZN10UdjeIzadje3runEv:0000000000000010 .L0 
     /tmp/ccIZTTdk.s:217    .text._ZN10UdjeIzadje3runEv:0000000000000010 .L0 
     /tmp/ccIZTTdk.s:221    .text._ZN10UdjeIzadje3runEv:000000000000001c .L0 
     /tmp/ccIZTTdk.s:222    .text._ZN10UdjeIzadje3runEv:0000000000000020 .L0 
     /tmp/ccIZTTdk.s:224    .text._ZN10UdjeIzadje3runEv:0000000000000024 .L0 
     /tmp/ccIZTTdk.s:225    .text._ZN10UdjeIzadje3runEv:0000000000000024 .L0 
     /tmp/ccIZTTdk.s:227    .text._ZN10UdjeIzadje3runEv:0000000000000028 .L0 
     /tmp/ccIZTTdk.s:229    .text._ZN10UdjeIzadje3runEv:000000000000002c .L0 
     /tmp/ccIZTTdk.s:236    .text:00000000000000b0 _Z13semPriorModifv
     /tmp/ccIZTTdk.s:239    .text:00000000000000b0 .L0 
     /tmp/ccIZTTdk.s:2357   .data.rel.local.DW.ref.__gxx_personality_v0:0000000000000000 DW.ref.__gxx_personality_v0
     /tmp/ccIZTTdk.s:242    .text:00000000000000b0 .L0 
     /tmp/ccIZTTdk.s:243    .text:00000000000000b4 .L0 
     /tmp/ccIZTTdk.s:248    .text:00000000000000c4 .L0 
     /tmp/ccIZTTdk.s:249    .text:00000000000000c4 .L0 
     /tmp/ccIZTTdk.s:250    .text:00000000000000c4 .L0 
     /tmp/ccIZTTdk.s:251    .text:00000000000000c4 .L0 
     /tmp/ccIZTTdk.s:253    .text:00000000000000c8 .L0 
     /tmp/ccIZTTdk.s:255    .text:00000000000000c8 .L0 
     /tmp/ccIZTTdk.s:256    .text:00000000000000c8 .L0 
     /tmp/ccIZTTdk.s:268    .text:00000000000000e4 .L0 
     /tmp/ccIZTTdk.s:270    .text:00000000000000ec .L0 
     /tmp/ccIZTTdk.s:271    .text:00000000000000ec .L0 
     /tmp/ccIZTTdk.s:277    .text:00000000000000f8 .L0 
     /tmp/ccIZTTdk.s:278    .text:00000000000000f8 .L0 
     /tmp/ccIZTTdk.s:285    .text:0000000000000100 .L0 
     /tmp/ccIZTTdk.s:291    .text:000000000000010c .L0 
     /tmp/ccIZTTdk.s:296    .text:0000000000000120 .L0 
     /tmp/ccIZTTdk.s:300    .text:0000000000000124 .L0 
     /tmp/ccIZTTdk.s:303    .text:000000000000012c .L0 
     /tmp/ccIZTTdk.s:304    .text:000000000000012c .L0 
     /tmp/ccIZTTdk.s:314    .text:000000000000013c .L0 
     /tmp/ccIZTTdk.s:324    .text:0000000000000148 .L0 
     /tmp/ccIZTTdk.s:325    .text:0000000000000148 .L0 
     /tmp/ccIZTTdk.s:337    .text:0000000000000164 .L0 
     /tmp/ccIZTTdk.s:341    .text:000000000000016c .L0 
     /tmp/ccIZTTdk.s:342    .text:000000000000016c .L0 
     /tmp/ccIZTTdk.s:346    .text:0000000000000170 .L0 
     /tmp/ccIZTTdk.s:349    .text:0000000000000178 .L0 
     /tmp/ccIZTTdk.s:350    .text:0000000000000178 .L0 
     /tmp/ccIZTTdk.s:354    .text:0000000000000188 .L0 
GAS LISTING /tmp/ccIZTTdk.s 			page 15


     /tmp/ccIZTTdk.s:359    .text:0000000000000194 .L0 
     /tmp/ccIZTTdk.s:367    .text:000000000000019c .L0 
     /tmp/ccIZTTdk.s:371    .text:00000000000001a0 .L0 
     /tmp/ccIZTTdk.s:374    .text:00000000000001a8 .L0 
     /tmp/ccIZTTdk.s:375    .text:00000000000001a8 .L0 
     /tmp/ccIZTTdk.s:380    .text:00000000000001b8 .L0 
     /tmp/ccIZTTdk.s:387    .text:00000000000001c0 .L0 
     /tmp/ccIZTTdk.s:388    .text:00000000000001c0 .L0 
     /tmp/ccIZTTdk.s:390    .text:00000000000001c8 .L0 
     /tmp/ccIZTTdk.s:392    .text:00000000000001cc .L0 
     /tmp/ccIZTTdk.s:398    .text:00000000000001d8 .L0 
     /tmp/ccIZTTdk.s:399    .text:00000000000001d8 .L0 
     /tmp/ccIZTTdk.s:401    .text:00000000000001e0 .L0 
     /tmp/ccIZTTdk.s:403    .text:00000000000001e4 .L0 
     /tmp/ccIZTTdk.s:409    .text:00000000000001f0 .L0 
     /tmp/ccIZTTdk.s:410    .text:00000000000001f4 .L0 
     /tmp/ccIZTTdk.s:411    .text:00000000000001f4 .L0 
     /tmp/ccIZTTdk.s:413    .text:00000000000001f8 .L0 
     /tmp/ccIZTTdk.s:414    .text:00000000000001f8 .L0 
     /tmp/ccIZTTdk.s:416    .text:00000000000001fc .L0 
     /tmp/ccIZTTdk.s:419    .text:0000000000000200 .L0 
     /tmp/ccIZTTdk.s:422    .text:0000000000000204 .L0 
     /tmp/ccIZTTdk.s:425    .text:0000000000000208 .L0 
     /tmp/ccIZTTdk.s:428    .text:000000000000020c .L0 
     /tmp/ccIZTTdk.s:441    .text:0000000000000228 .L0 
     /tmp/ccIZTTdk.s:454    .text:0000000000000244 .L0 
     /tmp/ccIZTTdk.s:462    .text:000000000000025c .L0 
     /tmp/ccIZTTdk.s:540    .bss:0000000000000010 threadsPrior
     /tmp/ccIZTTdk.s:536    .bss:0000000000000008 globS
     /tmp/ccIZTTdk.s:532    .bss:0000000000000000 semP
     /tmp/ccIZTTdk.s:529    .bss:0000000000000000 .LANCHOR0
     /tmp/ccIZTTdk.s:44     .text._ZN10UdjeIzadjeD2Ev:0000000000000034 .L0 
     /tmp/ccIZTTdk.s:91     .text._ZN10UdjeIzadjeD0Ev:000000000000004c .L0 
     /tmp/ccIZTTdk.s:548    .text:000000000000025c .L0 
     /tmp/ccIZTTdk.s:232    .text._ZN10UdjeIzadje3runEv:000000000000002c .L0 
     /tmp/ccIZTTdk.s:119    .text:0000000000000014 .L0 
     /tmp/ccIZTTdk.s:93     .rodata.str1.8:0000000000000000 .LC0
     /tmp/ccIZTTdk.s:125    .text:0000000000000024 .L0 
     /tmp/ccIZTTdk.s:169    .text:000000000000006c .L0 
     /tmp/ccIZTTdk.s:96     .rodata.str1.8:0000000000000020 .LC1
     /tmp/ccIZTTdk.s:181    .text:000000000000008c .L0 
     /tmp/ccIZTTdk.s:268    .text:00000000000000e4 .L0 
     /tmp/ccIZTTdk.s:285    .text:0000000000000100 .L0 
     /tmp/ccIZTTdk.s:292    .text:0000000000000110 .L0 
     /tmp/ccIZTTdk.s:337    .text:0000000000000164 .L0 
     /tmp/ccIZTTdk.s:351    .text:000000000000017c .L0 
     /tmp/ccIZTTdk.s:375    .text:00000000000001a8 .L0 
     /tmp/ccIZTTdk.s:388    .text:00000000000001c0 .L0 
     /tmp/ccIZTTdk.s:399    .text:00000000000001d8 .L0 
     /tmp/ccIZTTdk.s:144    .text:0000000000000048 .L9
     /tmp/ccIZTTdk.s:163    .text:000000000000006c .L6
     /tmp/ccIZTTdk.s:134    .text:000000000000003c .L7
     /tmp/ccIZTTdk.s:153    .text:0000000000000058 .L8
     /tmp/ccIZTTdk.s:298    .text:0000000000000124 .L15
     /tmp/ccIZTTdk.s:319    .text:0000000000000148 .L14
     /tmp/ccIZTTdk.s:281    .text:0000000000000100 .L29
     /tmp/ccIZTTdk.s:363    .text:000000000000019c .L24
GAS LISTING /tmp/ccIZTTdk.s 			page 16


     /tmp/ccIZTTdk.s:344    .text:0000000000000170 .L17
     /tmp/ccIZTTdk.s:384    .text:00000000000001c0 .L18
     /tmp/ccIZTTdk.s:369    .text:00000000000001a0 .L16
     /tmp/ccIZTTdk.s:396    .text:00000000000001d8 .L19
     /tmp/ccIZTTdk.s:407    .text:00000000000001f0 .L13
     /tmp/ccIZTTdk.s:26     .text._ZN10UdjeIzadjeD2Ev:0000000000000010 .L0 
     /tmp/ccIZTTdk.s:68     .text._ZN10UdjeIzadjeD0Ev:0000000000000018 .L0 
     /tmp/ccIZTTdk.s:257    .text:00000000000000cc .LEHB0
     /tmp/ccIZTTdk.s:237    .text:00000000000000b0 .LFB25
     /tmp/ccIZTTdk.s:260    .text:00000000000000d4 .LEHE0
     /tmp/ccIZTTdk.s:263    .text:00000000000000dc .LEHB1
     /tmp/ccIZTTdk.s:266    .text:00000000000000e4 .LEHE1
     /tmp/ccIZTTdk.s:424    .text:0000000000000208 .L25
     /tmp/ccIZTTdk.s:272    .text:00000000000000f0 .LEHB2
     /tmp/ccIZTTdk.s:307    .text:0000000000000138 .LEHE2
     /tmp/ccIZTTdk.s:310    .text:000000000000013c .LEHB3
     /tmp/ccIZTTdk.s:316    .text:0000000000000144 .LEHE3
     /tmp/ccIZTTdk.s:436    .text:0000000000000224 .L26
     /tmp/ccIZTTdk.s:326    .text:000000000000014c .LEHB4
     /tmp/ccIZTTdk.s:329    .text:0000000000000154 .LEHE4
     /tmp/ccIZTTdk.s:332    .text:000000000000015c .LEHB5
     /tmp/ccIZTTdk.s:335    .text:0000000000000164 .LEHE5
     /tmp/ccIZTTdk.s:449    .text:0000000000000240 .L27
     /tmp/ccIZTTdk.s:355    .text:000000000000018c .LEHB6
     /tmp/ccIZTTdk.s:378    .text:00000000000001b8 .LEHE6
     /tmp/ccIZTTdk.s:432    .text:000000000000021c .LEHB7
     /tmp/ccIZTTdk.s:435    .text:0000000000000224 .LEHE7
     /tmp/ccIZTTdk.s:445    .text:0000000000000238 .LEHB8
     /tmp/ccIZTTdk.s:448    .text:0000000000000240 .LEHE8
     /tmp/ccIZTTdk.s:458    .text:0000000000000254 .LEHB9
     /tmp/ccIZTTdk.s:461    .text:000000000000025c .LEHE9
     /tmp/ccIZTTdk.s:1314   .debug_abbrev:0000000000000000 .Ldebug_abbrev0
     /tmp/ccIZTTdk.s:2331   .debug_str:0000000000000309 .LASF50
     /tmp/ccIZTTdk.s:2345   .debug_str:0000000000000429 .LASF51
     /tmp/ccIZTTdk.s:2307   .debug_str:0000000000000255 .LASF52
     /tmp/ccIZTTdk.s:2203   .debug_ranges:0000000000000000 .Ldebug_ranges0
     /tmp/ccIZTTdk.s:2227   .debug_line:0000000000000000 .Ldebug_line0
     /tmp/ccIZTTdk.s:2291   .debug_str:00000000000001bd .LASF0
     /tmp/ccIZTTdk.s:2299   .debug_str:00000000000001ff .LASF1
     /tmp/ccIZTTdk.s:2285   .debug_str:0000000000000189 .LASF2
     /tmp/ccIZTTdk.s:2271   .debug_str:0000000000000137 .LASF4
     /tmp/ccIZTTdk.s:2325   .debug_str:00000000000002e1 .LASF3
     /tmp/ccIZTTdk.s:2237   .debug_str:0000000000000036 .LASF5
     /tmp/ccIZTTdk.s:2303   .debug_str:0000000000000234 .LASF6
     /tmp/ccIZTTdk.s:2289   .debug_str:00000000000001aa .LASF7
     /tmp/ccIZTTdk.s:2337   .debug_str:00000000000003e3 .LASF8
     /tmp/ccIZTTdk.s:2261   .debug_str:00000000000000e8 .LASF9
     /tmp/ccIZTTdk.s:2311   .debug_str:000000000000027c .LASF10
     /tmp/ccIZTTdk.s:2333   .debug_str:00000000000003cd .LASF11
     /tmp/ccIZTTdk.s:2239   .debug_str:000000000000003d .LASF12
     /tmp/ccIZTTdk.s:2235   .debug_str:0000000000000026 .LASF13
     /tmp/ccIZTTdk.s:2241   .debug_str:000000000000004d .LASF14
     /tmp/ccIZTTdk.s:2323   .debug_str:00000000000002cb .LASF15
     /tmp/ccIZTTdk.s:2247   .debug_str:0000000000000081 .LASF16
     /tmp/ccIZTTdk.s:2263   .debug_str:00000000000000f6 .LASF17
     /tmp/ccIZTTdk.s:2255   .debug_str:00000000000000bb .LASF18
     /tmp/ccIZTTdk.s:2229   .debug_str:0000000000000000 .LASF27
GAS LISTING /tmp/ccIZTTdk.s 			page 17


     /tmp/ccIZTTdk.s:2319   .debug_str:000000000000029f .LASF19
     /tmp/ccIZTTdk.s:2253   .debug_str:00000000000000b6 .LASF21
     /tmp/ccIZTTdk.s:2301   .debug_str:0000000000000212 .LASF20
     /tmp/ccIZTTdk.s:2273   .debug_str:000000000000013e .LASF22
     /tmp/ccIZTTdk.s:2321   .debug_str:00000000000002b4 .LASF23
     /tmp/ccIZTTdk.s:2309   .debug_str:0000000000000275 .LASF24
     /tmp/ccIZTTdk.s:2317   .debug_str:000000000000029a .LASF25
     /tmp/ccIZTTdk.s:2329   .debug_str:0000000000000303 .LASF26
     /tmp/ccIZTTdk.s:2335   .debug_str:00000000000003dc .LASF28
     /tmp/ccIZTTdk.s:2259   .debug_str:00000000000000d5 .LASF29
     /tmp/ccIZTTdk.s:2297   .debug_str:00000000000001f9 .LASF30
     /tmp/ccIZTTdk.s:2279   .debug_str:0000000000000161 .LASF31
     /tmp/ccIZTTdk.s:2251   .debug_str:00000000000000ab .LASF32
     /tmp/ccIZTTdk.s:2269   .debug_str:0000000000000121 .LASF33
     /tmp/ccIZTTdk.s:2267   .debug_str:000000000000010a .LASF34
     /tmp/ccIZTTdk.s:2249   .debug_str:0000000000000097 .LASF36
     /tmp/ccIZTTdk.s:2233   .debug_str:000000000000001e .LASF35
     /tmp/ccIZTTdk.s:2295   .debug_str:00000000000001de .LASF37
     /tmp/ccIZTTdk.s:2339   .debug_str:00000000000003f3 .LASF53
     /tmp/ccIZTTdk.s:2349   .debug_str:0000000000000452 .LASF54
     /tmp/ccIZTTdk.s:2231   .debug_str:000000000000000a .LASF55
     /tmp/ccIZTTdk.s:2315   .debug_str:0000000000000295 .LASF38
     /tmp/ccIZTTdk.s:2313   .debug_str:000000000000028b .LASF39
     /tmp/ccIZTTdk.s:2281   .debug_str:000000000000016e .LASF40
     /tmp/ccIZTTdk.s:49     .text._ZN10UdjeIzadjeD0Ev:0000000000000000 .LFB29
     /tmp/ccIZTTdk.s:89     .text._ZN10UdjeIzadjeD0Ev:000000000000004c .LFE29
     /tmp/ccIZTTdk.s:2014   .debug_loc:0000000000000000 .LLST1
     /tmp/ccIZTTdk.s:65     .text._ZN10UdjeIzadjeD0Ev:0000000000000018 .LBB12
     /tmp/ccIZTTdk.s:73     .text._ZN10UdjeIzadjeD0Ev:000000000000002c .LBE12
     /tmp/ccIZTTdk.s:2032   .debug_loc:000000000000004c .LLST2
     /tmp/ccIZTTdk.s:71     .text._ZN10UdjeIzadjeD0Ev:000000000000002c .LVL4
     /tmp/ccIZTTdk.s:76     .text._ZN10UdjeIzadjeD0Ev:0000000000000038 .LVL5
     /tmp/ccIZTTdk.s:2293   .debug_str:00000000000001ca .LASF41
     /tmp/ccIZTTdk.s:11     .text._ZN10UdjeIzadjeD2Ev:0000000000000000 .LFB27
     /tmp/ccIZTTdk.s:40     .text._ZN10UdjeIzadjeD2Ev:0000000000000034 .LFE27
     /tmp/ccIZTTdk.s:2043   .debug_loc:0000000000000082 .LLST0
     /tmp/ccIZTTdk.s:29     .text._ZN10UdjeIzadjeD2Ev:0000000000000024 .LVL1
     /tmp/ccIZTTdk.s:2305   .debug_str:0000000000000247 .LASF56
     /tmp/ccIZTTdk.s:2287   .debug_str:0000000000000197 .LASF57
     /tmp/ccIZTTdk.s:463    .text:000000000000025c .LFE25
     /tmp/ccIZTTdk.s:2057   .debug_loc:00000000000000bb .LLST8
     /tmp/ccIZTTdk.s:282    .text:0000000000000100 .LBB19
     /tmp/ccIZTTdk.s:2077   .debug_loc:0000000000000118 .LLST9
     /tmp/ccIZTTdk.s:315    .text:0000000000000144 .LVL30
     /tmp/ccIZTTdk.s:306    .text:0000000000000138 .LVL28
     /tmp/ccIZTTdk.s:443    .text:0000000000000234 .LVL50
     /tmp/ccIZTTdk.s:340    .text:000000000000016c .LBB23
     /tmp/ccIZTTdk.s:364    .text:000000000000019c .LBE23
     /tmp/ccIZTTdk.s:2092   .debug_loc:0000000000000161 .LLST10
     /tmp/ccIZTTdk.s:357    .text:0000000000000194 .LVL36
     /tmp/ccIZTTdk.s:365    .text:000000000000019c .LBB24
     /tmp/ccIZTTdk.s:385    .text:00000000000001c0 .LBE24
     /tmp/ccIZTTdk.s:2108   .debug_loc:00000000000001ab .LLST11
     /tmp/ccIZTTdk.s:377    .text:00000000000001b8 .LVL40
     /tmp/ccIZTTdk.s:259    .text:00000000000000d4 .LVL22
     /tmp/ccIZTTdk.s:265    .text:00000000000000e4 .LVL23
     /tmp/ccIZTTdk.s:274    .text:00000000000000f8 .LVL24
GAS LISTING /tmp/ccIZTTdk.s 			page 18


     /tmp/ccIZTTdk.s:328    .text:0000000000000154 .LVL32
     /tmp/ccIZTTdk.s:334    .text:0000000000000164 .LVL33
     /tmp/ccIZTTdk.s:430    .text:0000000000000218 .LVL47
     /tmp/ccIZTTdk.s:434    .text:0000000000000224 .LVL48
     /tmp/ccIZTTdk.s:447    .text:0000000000000240 .LVL51
     /tmp/ccIZTTdk.s:456    .text:0000000000000250 .LVL53
     /tmp/ccIZTTdk.s:460    .text:000000000000025c .LVL54
     /tmp/ccIZTTdk.s:103    .text:0000000000000000 .LFB24
     /tmp/ccIZTTdk.s:196    .text:00000000000000b0 .LFE24
     /tmp/ccIZTTdk.s:2119   .debug_loc:00000000000001e1 .LLST3
     /tmp/ccIZTTdk.s:2133   .debug_loc:000000000000021a .LLST4
     /tmp/ccIZTTdk.s:129    .text:0000000000000034 .LBB14
     /tmp/ccIZTTdk.s:166    .text:000000000000006c .LBE14
     /tmp/ccIZTTdk.s:2147   .debug_loc:0000000000000253 .LLST5
     /tmp/ccIZTTdk.s:150    .text:0000000000000054 .LBB16
     /tmp/ccIZTTdk.s:164    .text:000000000000006c .LBE16
     /tmp/ccIZTTdk.s:2159   .debug_loc:000000000000028a .LLST6
     /tmp/ccIZTTdk.s:139    .text:0000000000000044 .LVL12
     /tmp/ccIZTTdk.s:122    .text:0000000000000024 .LVL9
     /tmp/ccIZTTdk.s:127    .text:0000000000000034 .LVL10
     /tmp/ccIZTTdk.s:173    .text:0000000000000080 .LVL17
     /tmp/ccIZTTdk.s:178    .text:000000000000008c .LVL18
     /tmp/ccIZTTdk.s:183    .text:000000000000009c .LVL19
     /tmp/ccIZTTdk.s:203    .text._ZN10UdjeIzadje3runEv:0000000000000000 .LFB23
     /tmp/ccIZTTdk.s:230    .text._ZN10UdjeIzadje3runEv:000000000000002c .LFE23
     /tmp/ccIZTTdk.s:2170   .debug_loc:00000000000002c0 .LLST7
     /tmp/ccIZTTdk.s:219    .text._ZN10UdjeIzadje3runEv:000000000000001c .LVL21
     /tmp/ccIZTTdk.s:2347   .debug_str:000000000000043e .LASF58
     /tmp/ccIZTTdk.s:2283   .debug_str:0000000000000182 .LASF42
     /tmp/ccIZTTdk.s:2327   .debug_str:00000000000002f3 .LASF43
     /tmp/ccIZTTdk.s:2277   .debug_str:000000000000015b .LASF44
     /tmp/ccIZTTdk.s:2341   .debug_str:0000000000000409 .LASF45
     /tmp/ccIZTTdk.s:2265   .debug_str:00000000000000fb .LASF59
     /tmp/ccIZTTdk.s:2245   .debug_str:0000000000000069 .LASF60
     /tmp/ccIZTTdk.s:2257   .debug_str:00000000000000c0 .LASF46
     /tmp/ccIZTTdk.s:2243   .debug_str:0000000000000059 .LASF47
     /tmp/ccIZTTdk.s:2343   .debug_str:0000000000000416 .LASF48
     /tmp/ccIZTTdk.s:2275   .debug_str:000000000000014f .LASF49
     /tmp/ccIZTTdk.s:52     .text._ZN10UdjeIzadjeD0Ev:0000000000000000 .LVL2
     /tmp/ccIZTTdk.s:84     .text._ZN10UdjeIzadjeD0Ev:0000000000000044 .LVL6
     /tmp/ccIZTTdk.s:64     .text._ZN10UdjeIzadjeD0Ev:0000000000000018 .LVL3
     /tmp/ccIZTTdk.s:15     .text._ZN10UdjeIzadjeD2Ev:0000000000000000 .LVL0
     /tmp/ccIZTTdk.s:280    .text:0000000000000100 .LVL25
     /tmp/ccIZTTdk.s:420    .text:0000000000000200 .LVL46
     /tmp/ccIZTTdk.s:438    .text:0000000000000228 .LVL49
     /tmp/ccIZTTdk.s:451    .text:0000000000000244 .LVL52
     /tmp/ccIZTTdk.s:287    .text:000000000000010c .LVL26
     /tmp/ccIZTTdk.s:309    .text:000000000000013c .LVL29
     /tmp/ccIZTTdk.s:318    .text:0000000000000148 .LVL31
     /tmp/ccIZTTdk.s:339    .text:000000000000016c .LVL34
     /tmp/ccIZTTdk.s:343    .text:0000000000000170 .LVL35
     /tmp/ccIZTTdk.s:360    .text:0000000000000198 .LVL37
     /tmp/ccIZTTdk.s:362    .text:000000000000019c .LVL38
     /tmp/ccIZTTdk.s:368    .text:00000000000001a0 .LVL39
     /tmp/ccIZTTdk.s:381    .text:00000000000001bc .LVL41
     /tmp/ccIZTTdk.s:383    .text:00000000000001c0 .LVL42
     /tmp/ccIZTTdk.s:417    .text:00000000000001fc .LVL45
GAS LISTING /tmp/ccIZTTdk.s 			page 19


     /tmp/ccIZTTdk.s:106    .text:0000000000000000 .LVL7
     /tmp/ccIZTTdk.s:120    .text:000000000000001c .LVL8
     /tmp/ccIZTTdk.s:133    .text:000000000000003c .LVL11
     /tmp/ccIZTTdk.s:170    .text:0000000000000074 .LVL16
     /tmp/ccIZTTdk.s:154    .text:0000000000000058 .LVL14
     /tmp/ccIZTTdk.s:161    .text:0000000000000068 .LVL15
     /tmp/ccIZTTdk.s:206    .text._ZN10UdjeIzadje3runEv:0000000000000000 .LVL20
     /tmp/ccIZTTdk.s:549    .debug_info:0000000000000000 .Ldebug_info0
     /tmp/ccIZTTdk.s:5      .text:0000000000000000 .Ltext0
     /tmp/ccIZTTdk.s:543    .text:000000000000025c .Letext0
     /tmp/ccIZTTdk.s:276    .text:00000000000000f8 .LBB18
     /tmp/ccIZTTdk.s:322    .text:0000000000000148 .LBE18
     /tmp/ccIZTTdk.s:439    .text:0000000000000228 .LBB25
     /tmp/ccIZTTdk.s:452    .text:0000000000000244 .LBE25
     /tmp/ccIZTTdk.s:289    .text:000000000000010c .LBE19
     /tmp/ccIZTTdk.s:311    .text:000000000000013c .LBB22
     /tmp/ccIZTTdk.s:321    .text:0000000000000148 .LBE22
     /tmp/ccIZTTdk.s:466    .gcc_except_table:0000000000000000 .LLSDA25
                           .group:0000000000000000 _ZN10UdjeIzadjeD5Ev

UNDEFINED SYMBOLS
_ZN6ThreadD2Ev
_ZdlPv
_ZN9Semaphore4waitEv
_Z11printStringPKc
_Z15thread_dispatchv
_ZN9Semaphore6signalEv
_Znwm
_ZN9SemaphoreC1Ej
_ZN9Semaphore16turnOnPrioritiesEv
_ZN6ThreadC2Ev
_ZN6Thread5startEv
_Unwind_Resume
__gxx_personality_v0
