GAS LISTING /tmp/ccIZTTdk.s 			page 1


   1              		.file	"semPriorMod.cpp"
   2              		.option pic
   3              		.option norelax
   4              		.text
   5              	.Ltext0:
   6              		.section	.text._ZN10UdjeIzadjeD2Ev,"axG",@progbits,_ZN10UdjeIzadjeD5Ev,comdat
   7              		.align	2
   8              		.weak	_ZN10UdjeIzadjeD2Ev
  10              	_ZN10UdjeIzadjeD2Ev:
  11              	.LFB27:
  12              		.file 1 "test/semPriorMod.cpp"
   1:test/semPriorMod.cpp **** #include "semPriorMod.hpp"
   2:test/semPriorMod.cpp **** #include "printing.hpp"
   3:test/semPriorMod.cpp **** #include "../h/syscall_c.hpp"
   4:test/semPriorMod.cpp **** 
   5:test/semPriorMod.cpp **** Semaphore* semP;
   6:test/semPriorMod.cpp **** Semaphore* globS;
   7:test/semPriorMod.cpp **** Thread* threadsPrior[50];
   8:test/semPriorMod.cpp **** 
   9:test/semPriorMod.cpp **** class UdjeIzadje : public Thread{
  13              		.loc 1 9 7
  14              		.cfi_startproc
  15              	.LVL0:
  16 0000 130101FF 		addi	sp,sp,-16
  17              		.cfi_def_cfa_offset 16
  18 0004 23341100 		sd	ra,8(sp)
  19 0008 23308100 		sd	s0,0(sp)
  20              		.cfi_offset 1, -8
  21              		.cfi_offset 8, -16
  22 000c 13040101 		addi	s0,sp,16
  23              		.cfi_def_cfa 8, 0
  24              	.LBB11:
  25              		.loc 1 9 7 is_stmt 0
  26 0010 97070000 		lla	a5,_ZTV10UdjeIzadje+16
  26      93870700 
  27 0018 2330F500 		sd	a5,0(a0)
  28 001c 97000000 		call	_ZN6ThreadD2Ev@plt
  28      E7800000 
  29              	.LVL1:
  30              	.LBE11:
  31 0024 83308100 		ld	ra,8(sp)
  32              		.cfi_restore 1
  33 0028 03340100 		ld	s0,0(sp)
  34              		.cfi_restore 8
  35              		.cfi_def_cfa 2, 16
  36 002c 13010101 		addi	sp,sp,16
  37              		.cfi_def_cfa_offset 0
  38 0030 67800000 		jr	ra
  39              		.cfi_endproc
  40              	.LFE27:
  42              		.weak	_ZN10UdjeIzadjeD1Ev
  43              		.set	_ZN10UdjeIzadjeD1Ev,_ZN10UdjeIzadjeD2Ev
  44              		.section	.text._ZN10UdjeIzadjeD0Ev,"axG",@progbits,_ZN10UdjeIzadjeD5Ev,comdat
  45              		.align	2
  46              		.weak	_ZN10UdjeIzadjeD0Ev
  48              	_ZN10UdjeIzadjeD0Ev:
  49              	.LFB29:
GAS LISTING /tmp/ccIZTTdk.s 			page 2


  50              		.loc 1 9 7 is_stmt 1
  51              		.cfi_startproc
  52              	.LVL2:
  53 0000 130101FE 		addi	sp,sp,-32
  54              		.cfi_def_cfa_offset 32
  55 0004 233C1100 		sd	ra,24(sp)
  56 0008 23388100 		sd	s0,16(sp)
  57 000c 23349100 		sd	s1,8(sp)
  58              		.cfi_offset 1, -8
  59              		.cfi_offset 8, -16
  60              		.cfi_offset 9, -24
  61 0010 13040102 		addi	s0,sp,32
  62              		.cfi_def_cfa 8, 0
  63 0014 93040500 		mv	s1,a0
  64              	.LVL3:
  65              	.LBB12:
  66              	.LBB13:
  67              		.loc 1 9 7 is_stmt 0
  68 0018 97070000 		lla	a5,_ZTV10UdjeIzadje+16
  68      93870700 
  69 0020 2330F500 		sd	a5,0(a0)
  70 0024 97000000 		call	_ZN6ThreadD2Ev@plt
  70      E7800000 
  71              	.LVL4:
  72              	.LBE13:
  73              	.LBE12:
  74 002c 13850400 		mv	a0,s1
  75 0030 97000000 		call	_ZdlPv@plt
  75      E7800000 
  76              	.LVL5:
  77 0038 83308101 		ld	ra,24(sp)
  78              		.cfi_restore 1
  79 003c 03340101 		ld	s0,16(sp)
  80              		.cfi_restore 8
  81              		.cfi_def_cfa 2, 32
  82 0040 83348100 		ld	s1,8(sp)
  83              		.cfi_restore 9
  84              	.LVL6:
  85 0044 13010102 		addi	sp,sp,32
  86              		.cfi_def_cfa_offset 0
  87 0048 67800000 		jr	ra
  88              		.cfi_endproc
  89              	.LFE29:
  91              		.section	.rodata.str1.8,"aMS",@progbits,1
  92              		.align	3
  93              	.LC0:
  94 0000 5573616F 		.string	"Usao u kriticnu sekciju\n"
  94      2075206B 
  94      72697469 
  94      636E7520 
  94      73656B63 
  95 0019 00000000 		.align	3
  95      000000
  96              	.LC1:
  97 0020 497A6173 		.string	"Izasao iz kriticne sekcije\n"
  97      616F2069 
  97      7A206B72 
GAS LISTING /tmp/ccIZTTdk.s 			page 3


  97      69746963 
  97      6E652073 
  98              		.text
  99              		.align	2
 100              		.globl	_ZN10UdjeIzadje7workerAEPv
 102              	_ZN10UdjeIzadje7workerAEPv:
 103              	.LFB24:
  10:test/semPriorMod.cpp **** public:
  11:test/semPriorMod.cpp ****     UdjeIzadje(){}
  12:test/semPriorMod.cpp ****     void workerA(void* arg);
  13:test/semPriorMod.cpp **** protected:
  14:test/semPriorMod.cpp ****     void run() override{
  15:test/semPriorMod.cpp ****         workerA(nullptr);
  16:test/semPriorMod.cpp ****     }
  17:test/semPriorMod.cpp **** };
  18:test/semPriorMod.cpp **** 
  19:test/semPriorMod.cpp **** void UdjeIzadje::workerA(void* arg){
 104              		.loc 1 19 36 is_stmt 1
 105              		.cfi_startproc
 106              	.LVL7:
 107 0000 130101FE 		addi	sp,sp,-32
 108              		.cfi_def_cfa_offset 32
 109 0004 233C1100 		sd	ra,24(sp)
 110 0008 23388100 		sd	s0,16(sp)
 111 000c 23349100 		sd	s1,8(sp)
 112              		.cfi_offset 1, -8
 113              		.cfi_offset 8, -16
 114              		.cfi_offset 9, -24
 115 0010 13040102 		addi	s0,sp,32
 116              		.cfi_def_cfa 8, 0
  20:test/semPriorMod.cpp ****     semP->wait();
 117              		.loc 1 20 5
 118              		.loc 1 20 15 is_stmt 0
 119 0014 17050000 		ld	a0,.LANCHOR0
 119      03350500 
 120              	.LVL8:
 121 001c 97000000 		call	_ZN9Semaphore4waitEv@plt
 121      E7800000 
 122              	.LVL9:
  21:test/semPriorMod.cpp ****     printString("Usao u kriticnu sekciju\n");
 123              		.loc 1 21 5 is_stmt 1
 124              		.loc 1 21 16 is_stmt 0
 125 0024 17050000 		lla	a0,.LC0
 125      13050500 
 126 002c 97000000 		call	_Z11printStringPKc@plt
 126      E7800000 
 127              	.LVL10:
  22:test/semPriorMod.cpp ****     for(int i=0;i<10000;i++){
 128              		.loc 1 22 5 is_stmt 1
 129              	.LBB14:
 130              		.loc 1 22 13 is_stmt 0
 131 0034 93040000 		li	s1,0
 132 0038 6F000001 		j	.L9
 133              	.LVL11:
 134              	.L7:
 135              	.LBB15:
  23:test/semPriorMod.cpp ****         for(int j=0;j<3000;j++);
GAS LISTING /tmp/ccIZTTdk.s 			page 4


  24:test/semPriorMod.cpp ****         thread_dispatch();
 136              		.loc 1 24 9 is_stmt 1 discriminator 2
 137              		.loc 1 24 24 is_stmt 0 discriminator 2
 138 003c 97000000 		call	_Z15thread_dispatchv@plt
 138      E7800000 
 139              	.LVL12:
 140              	.LBE15:
  22:test/semPriorMod.cpp ****     for(int i=0;i<10000;i++){
 141              		.loc 1 22 5 is_stmt 1 discriminator 2
 142 0044 9B841400 		addiw	s1,s1,1
 143              	.LVL13:
 144              	.L9:
  22:test/semPriorMod.cpp ****     for(int i=0;i<10000;i++){
 145              		.loc 1 22 18 discriminator 1
 146 0048 B7270000 		li	a5,8192
 147 004c 9387F770 		addi	a5,a5,1807
 148 0050 63CE9700 		bgt	s1,a5,.L6
 149              	.LBB17:
 150              	.LBB16:
  23:test/semPriorMod.cpp ****         for(int j=0;j<3000;j++);
 151              		.loc 1 23 17 is_stmt 0
 152 0054 13070000 		li	a4,0
 153              	.L8:
 154              	.LVL14:
  23:test/semPriorMod.cpp ****         for(int j=0;j<3000;j++);
 155              		.loc 1 23 22 is_stmt 1 discriminator 3
 156 0058 B7170000 		li	a5,4096
 157 005c 938777BB 		addi	a5,a5,-1097
 158 0060 E3CEE7FC 		bgt	a4,a5,.L7
  23:test/semPriorMod.cpp ****         for(int j=0;j<3000;j++);
 159              		.loc 1 23 9 discriminator 2
 160 0064 1B071700 		addiw	a4,a4,1
 161              	.LVL15:
 162 0068 6FF01FFF 		j	.L8
 163              	.L6:
 164              	.LBE16:
 165              	.LBE17:
 166              	.LBE14:
  25:test/semPriorMod.cpp ****     }
  26:test/semPriorMod.cpp **** 
  27:test/semPriorMod.cpp ****     semP->signal();
 167              		.loc 1 27 5
 168              		.loc 1 27 17 is_stmt 0
 169 006c 97040000 		lla	s1,.LANCHOR0
 169      93840400 
 170              	.LVL16:
 171 0074 03B50400 		ld	a0,0(s1)
 172 0078 97000000 		call	_ZN9Semaphore6signalEv@plt
 172      E7800000 
 173              	.LVL17:
  28:test/semPriorMod.cpp ****     globS->signal();
 174              		.loc 1 28 5 is_stmt 1
 175              		.loc 1 28 18 is_stmt 0
 176 0080 03B58400 		ld	a0,8(s1)
 177 0084 97000000 		call	_ZN9Semaphore6signalEv@plt
 177      E7800000 
 178              	.LVL18:
GAS LISTING /tmp/ccIZTTdk.s 			page 5


  29:test/semPriorMod.cpp ****     printString("Izasao iz kriticne sekcije\n");
 179              		.loc 1 29 5 is_stmt 1
 180              		.loc 1 29 16 is_stmt 0
 181 008c 17050000 		lla	a0,.LC1
 181      13050500 
 182 0094 97000000 		call	_Z11printStringPKc@plt
 182      E7800000 
 183              	.LVL19:
  30:test/semPriorMod.cpp **** }
 184              		.loc 1 30 1
 185 009c 83308101 		ld	ra,24(sp)
 186              		.cfi_restore 1
 187 00a0 03340101 		ld	s0,16(sp)
 188              		.cfi_restore 8
 189              		.cfi_def_cfa 2, 32
 190 00a4 83348100 		ld	s1,8(sp)
 191              		.cfi_restore 9
 192 00a8 13010102 		addi	sp,sp,32
 193              		.cfi_def_cfa_offset 0
 194 00ac 67800000 		jr	ra
 195              		.cfi_endproc
 196              	.LFE24:
 198              		.section	.text._ZN10UdjeIzadje3runEv,"axG",@progbits,_ZN10UdjeIzadje3runEv,comdat
 199              		.align	2
 200              		.weak	_ZN10UdjeIzadje3runEv
 202              	_ZN10UdjeIzadje3runEv:
 203              	.LFB23:
  14:test/semPriorMod.cpp ****         workerA(nullptr);
 204              		.loc 1 14 10 is_stmt 1
 205              		.cfi_startproc
 206              	.LVL20:
 207 0000 130101FF 		addi	sp,sp,-16
 208              		.cfi_def_cfa_offset 16
 209 0004 23341100 		sd	ra,8(sp)
 210 0008 23308100 		sd	s0,0(sp)
 211              		.cfi_offset 1, -8
 212              		.cfi_offset 8, -16
 213 000c 13040101 		addi	s0,sp,16
 214              		.cfi_def_cfa 8, 0
  15:test/semPriorMod.cpp ****     }
 215              		.loc 1 15 9
  15:test/semPriorMod.cpp ****     }
 216              		.loc 1 15 16 is_stmt 0
 217 0010 93050000 		li	a1,0
 218 0014 97000000 		call	_ZN10UdjeIzadje7workerAEPv
 218      E7800000 
 219              	.LVL21:
  16:test/semPriorMod.cpp **** };
 220              		.loc 1 16 5
 221 001c 83308100 		ld	ra,8(sp)
 222              		.cfi_restore 1
 223 0020 03340100 		ld	s0,0(sp)
 224              		.cfi_restore 8
 225              		.cfi_def_cfa 2, 16
 226 0024 13010101 		addi	sp,sp,16
 227              		.cfi_def_cfa_offset 0
 228 0028 67800000 		jr	ra
GAS LISTING /tmp/ccIZTTdk.s 			page 6


 229              		.cfi_endproc
 230              	.LFE23:
 232              		.text
 233              		.align	2
 234              		.globl	_Z13semPriorModifv
 236              	_Z13semPriorModifv:
 237              	.LFB25:
  31:test/semPriorMod.cpp **** 
  32:test/semPriorMod.cpp **** void semPriorModif(){
 238              		.loc 1 32 21 is_stmt 1
 239              		.cfi_startproc
 240              		.cfi_personality 0x9b,DW.ref.__gxx_personality_v0
 241              		.cfi_lsda 0x1b,.LLSDA25
 242 00b0 130101FE 		addi	sp,sp,-32
 243              		.cfi_def_cfa_offset 32
 244 00b4 233C1100 		sd	ra,24(sp)
 245 00b8 23388100 		sd	s0,16(sp)
 246 00bc 23349100 		sd	s1,8(sp)
 247 00c0 23302101 		sd	s2,0(sp)
 248              		.cfi_offset 1, -8
 249              		.cfi_offset 8, -16
 250              		.cfi_offset 9, -24
 251              		.cfi_offset 18, -32
 252 00c4 13040102 		addi	s0,sp,32
 253              		.cfi_def_cfa 8, 0
  33:test/semPriorMod.cpp ****     semP = new Semaphore(5);
 254              		.loc 1 33 5
 255              		.loc 1 33 27 is_stmt 0
 256 00c8 13050002 		li	a0,32
 257              	.LEHB0:
 258 00cc 97000000 		call	_Znwm@plt
 258      E7800000 
 259              	.LVL22:
 260              	.LEHE0:
 261 00d4 93040500 		mv	s1,a0
 262 00d8 93055000 		li	a1,5
 263              	.LEHB1:
 264 00dc 97000000 		call	_ZN9SemaphoreC1Ej@plt
 264      E7800000 
 265              	.LVL23:
 266              	.LEHE1:
 267              		.loc 1 33 10 discriminator 2
 268 00e4 97070000 		sd	s1,.LANCHOR0,a5
 268      23B09700 
  34:test/semPriorMod.cpp ****     semP->turnOnPriorities();
 269              		.loc 1 34 5 is_stmt 1 discriminator 2
 270              		.loc 1 34 27 is_stmt 0 discriminator 2
 271 00ec 13850400 		mv	a0,s1
 272              	.LEHB2:
 273 00f0 97000000 		call	_ZN9Semaphore16turnOnPrioritiesEv@plt
 273      E7800000 
 274              	.LVL24:
  35:test/semPriorMod.cpp **** 
  36:test/semPriorMod.cpp ****     for(int i=0;i<50;i++){
 275              		.loc 1 36 5 is_stmt 1 discriminator 2
 276              	.LBB18:
 277              		.loc 1 36 13 is_stmt 0 discriminator 2
GAS LISTING /tmp/ccIZTTdk.s 			page 7


 278 00f8 13090000 		li	s2,0
 279 00fc 6F008002 		j	.L15
 280              	.LVL25:
 281              	.L29:
 282              	.LBB19:
 283              	.LBB20:
  11:test/semPriorMod.cpp ****     void workerA(void* arg);
 284              		.loc 1 11 17
 285 0100 97070000 		lla	a5,_ZTV10UdjeIzadje+16
 285      93870700 
 286 0108 23B0F400 		sd	a5,0(s1)
 287              	.LVL26:
 288              	.LBE20:
 289              	.LBE19:
  37:test/semPriorMod.cpp ****         threadsPrior[i] = new UdjeIzadje();
 290              		.loc 1 37 25
 291 010c 13173900 		slli	a4,s2,3
 292 0110 97070000 		lla	a5,.LANCHOR0
 292      93870700 
 293 0118 B387E700 		add	a5,a5,a4
 294 011c 23B89700 		sd	s1,16(a5)
  36:test/semPriorMod.cpp ****         threadsPrior[i] = new UdjeIzadje();
 295              		.loc 1 36 5 is_stmt 1
 296 0120 1B091900 		addiw	s2,s2,1
 297              	.LVL27:
 298              	.L15:
  36:test/semPriorMod.cpp ****         threadsPrior[i] = new UdjeIzadje();
 299              		.loc 1 36 18 discriminator 1
 300 0124 93071003 		li	a5,49
 301 0128 63C02703 		bgt	s2,a5,.L14
 302              		.loc 1 37 9
 303              		.loc 1 37 42 is_stmt 0
 304 012c 13050002 		li	a0,32
 305 0130 97000000 		call	_Znwm@plt
 305      E7800000 
 306              	.LVL28:
 307              	.LEHE2:
 308 0138 93040500 		mv	s1,a0
 309              	.LVL29:
 310              	.LEHB3:
 311              	.LBB22:
 312              	.LBB21:
  11:test/semPriorMod.cpp ****     void workerA(void* arg);
 313              		.loc 1 11 17
 314 013c 97000000 		call	_ZN6ThreadC2Ev@plt
 314      E7800000 
 315              	.LVL30:
 316              	.LEHE3:
 317 0144 6FF0DFFB 		j	.L29
 318              	.LVL31:
 319              	.L14:
 320              	.LBE21:
 321              	.LBE22:
 322              	.LBE18:
  38:test/semPriorMod.cpp ****     }
  39:test/semPriorMod.cpp ****     globS = new Semaphore(0);
 323              		.loc 1 39 5 is_stmt 1
GAS LISTING /tmp/ccIZTTdk.s 			page 8


 324              		.loc 1 39 28 is_stmt 0
 325 0148 13050002 		li	a0,32
 326              	.LEHB4:
 327 014c 97000000 		call	_Znwm@plt
 327      E7800000 
 328              	.LVL32:
 329              	.LEHE4:
 330 0154 93040500 		mv	s1,a0
 331 0158 93050000 		li	a1,0
 332              	.LEHB5:
 333 015c 97000000 		call	_ZN9SemaphoreC1Ej@plt
 333      E7800000 
 334              	.LVL33:
 335              	.LEHE5:
 336              		.loc 1 39 11 discriminator 2
 337 0164 97070000 		sd	s1,.LANCHOR0+8,a5
 337      23B09700 
  40:test/semPriorMod.cpp ****     for(int i=0;i<50;i++){
 338              		.loc 1 40 5 is_stmt 1 discriminator 2
 339              	.LVL34:
 340              	.LBB23:
 341              		.loc 1 40 13 is_stmt 0 discriminator 2
 342 016c 93040000 		li	s1,0
 343              	.LVL35:
 344              	.L17:
 345              		.loc 1 40 18 is_stmt 1 discriminator 3
 346 0170 93071003 		li	a5,49
 347 0174 63C49702 		bgt	s1,a5,.L24
  41:test/semPriorMod.cpp ****         threadsPrior[i]->start();
 348              		.loc 1 41 9 discriminator 2
 349              		.loc 1 41 23 is_stmt 0 discriminator 2
 350 0178 13973400 		slli	a4,s1,3
 351 017c 97070000 		lla	a5,.LANCHOR0
 351      93870700 
 352 0184 B387E700 		add	a5,a5,a4
 353              		.loc 1 41 31 discriminator 2
 354 0188 03B50701 		ld	a0,16(a5)
 355              	.LEHB6:
 356 018c 97000000 		call	_ZN6Thread5startEv@plt
 356      E7800000 
 357              	.LVL36:
  40:test/semPriorMod.cpp ****     for(int i=0;i<50;i++){
 358              		.loc 1 40 5 is_stmt 1 discriminator 2
 359 0194 9B841400 		addiw	s1,s1,1
 360              	.LVL37:
 361 0198 6FF09FFD 		j	.L17
 362              	.LVL38:
 363              	.L24:
 364              	.LBE23:
 365              	.LBB24:
  42:test/semPriorMod.cpp ****     }
  43:test/semPriorMod.cpp **** 
  44:test/semPriorMod.cpp ****     for(int i=0;i<50;i++){
 366              		.loc 1 44 13 is_stmt 0
 367 019c 93040000 		li	s1,0
 368              	.LVL39:
 369              	.L16:
GAS LISTING /tmp/ccIZTTdk.s 			page 9


 370              		.loc 1 44 18 is_stmt 1 discriminator 3
 371 01a0 93071003 		li	a5,49
 372 01a4 63CE9700 		bgt	s1,a5,.L18
  45:test/semPriorMod.cpp ****         globS->wait();
 373              		.loc 1 45 9 discriminator 2
 374              		.loc 1 45 20 is_stmt 0 discriminator 2
 375 01a8 17050000 		ld	a0,.LANCHOR0+8
 375      03350500 
 376 01b0 97000000 		call	_ZN9Semaphore4waitEv@plt
 376      E7800000 
 377              	.LVL40:
 378              	.LEHE6:
  44:test/semPriorMod.cpp ****         globS->wait();
 379              		.loc 1 44 5 is_stmt 1 discriminator 2
 380 01b8 9B841400 		addiw	s1,s1,1
 381              	.LVL41:
 382 01bc 6FF05FFE 		j	.L16
 383              	.LVL42:
 384              	.L18:
 385              	.LBE24:
  46:test/semPriorMod.cpp ****     }
  47:test/semPriorMod.cpp **** 
  48:test/semPriorMod.cpp ****     delete globS;
 386              		.loc 1 48 5
 387              		.loc 1 48 12 is_stmt 0
 388 01c0 17050000 		ld	a0,.LANCHOR0+8
 388      03350500 
 389              		.loc 1 48 17
 390 01c8 63080500 		beqz	a0,.L19
 391              		.loc 1 48 12 discriminator 1
 392 01cc 83370500 		ld	a5,0(a0)
 393 01d0 83B78700 		ld	a5,8(a5)
 394 01d4 E7800700 		jalr	a5
 395              	.LVL43:
 396              	.L19:
  49:test/semPriorMod.cpp ****     delete semP;
 397              		.loc 1 49 5 is_stmt 1
 398              		.loc 1 49 12 is_stmt 0
 399 01d8 17050000 		ld	a0,.LANCHOR0
 399      03350500 
 400              		.loc 1 49 16
 401 01e0 63080500 		beqz	a0,.L13
 402              		.loc 1 49 12 discriminator 1
 403 01e4 83370500 		ld	a5,0(a0)
 404 01e8 83B78700 		ld	a5,8(a5)
 405 01ec E7800700 		jalr	a5
 406              	.LVL44:
 407              	.L13:
  50:test/semPriorMod.cpp **** 
  51:test/semPriorMod.cpp **** }...
 408              		.loc 1 51 1
 409 01f0 83308101 		ld	ra,24(sp)
 410              		.cfi_remember_state
 411              		.cfi_restore 1
 412 01f4 03340101 		ld	s0,16(sp)
 413              		.cfi_restore 8
 414              		.cfi_def_cfa 2, 32
GAS LISTING /tmp/ccIZTTdk.s 			page 10


 415 01f8 83348100 		ld	s1,8(sp)
 416              		.cfi_restore 9
 417              	.LVL45:
 418 01fc 03390100 		ld	s2,0(sp)
 419              		.cfi_restore 18
 420              	.LVL46:
 421 0200 13010102 		addi	sp,sp,32
 422              		.cfi_def_cfa_offset 0
 423 0204 67800000 		jr	ra
 424              	.L25:
 425              		.cfi_restore_state
 426 0208 13090500 		mv	s2,a0
  33:test/semPriorMod.cpp ****     semP = new Semaphore(5);
 427              		.loc 1 33 27
 428 020c 13850400 		mv	a0,s1
 429 0210 97000000 		call	_ZdlPv@plt
 429      E7800000 
 430              	.LVL47:
 431 0218 13050900 		mv	a0,s2
 432              	.LEHB7:
 433 021c 97000000 		call	_Unwind_Resume@plt
 433      E7800000 
 434              	.LVL48:
 435              	.LEHE7:
 436              	.L26:
 437 0224 13090500 		mv	s2,a0
 438              	.LVL49:
 439              	.LBB25:
  37:test/semPriorMod.cpp ****         threadsPrior[i] = new UdjeIzadje();
 440              		.loc 1 37 42
 441 0228 13850400 		mv	a0,s1
 442 022c 97000000 		call	_ZdlPv@plt
 442      E7800000 
 443              	.LVL50:
 444 0234 13050900 		mv	a0,s2
 445              	.LEHB8:
 446 0238 97000000 		call	_Unwind_Resume@plt
 446      E7800000 
 447              	.LVL51:
 448              	.LEHE8:
 449              	.L27:
 450 0240 13090500 		mv	s2,a0
 451              	.LVL52:
 452              	.LBE25:
  39:test/semPriorMod.cpp ****     globS = new Semaphore(0);
 453              		.loc 1 39 28
 454 0244 13850400 		mv	a0,s1
 455 0248 97000000 		call	_ZdlPv@plt
 455      E7800000 
 456              	.LVL53:
 457 0250 13050900 		mv	a0,s2
 458              	.LEHB9:
 459 0254 97000000 		call	_Unwind_Resume@plt
 459      E7800000 
 460              	.LVL54:
 461              	.LEHE9:
 462              		.cfi_endproc
GAS LISTING /tmp/ccIZTTdk.s 			page 11


 463              	.LFE25:
 464              		.globl	__gxx_personality_v0
 465              		.section	.gcc_except_table,"a",@progbits
 466              	.LLSDA25:
 467 0000 FF       		.byte	0xff
 468 0001 FF       		.byte	0xff
 469 0002 03       		.byte	0x3
 470 0003 8201     		.byte	0x82,0x1
 471 0005 00000000 		.4byte	.LEHB0-.LFB25
 472 0009 00000000 		.4byte	.LEHE0-.LEHB0
 473 000d 00000000 		.4byte	0
 474 0011 00       		.byte	0
 475 0012 00000000 		.4byte	.LEHB1-.LFB25
 476 0016 00000000 		.4byte	.LEHE1-.LEHB1
 477 001a 00000000 		.4byte	.L25-.LFB25
 478 001e 00       		.byte	0
 479 001f 00000000 		.4byte	.LEHB2-.LFB25
 480 0023 00000000 		.4byte	.LEHE2-.LEHB2
 481 0027 00000000 		.4byte	0
 482 002b 00       		.byte	0
 483 002c 00000000 		.4byte	.LEHB3-.LFB25
 484 0030 00000000 		.4byte	.LEHE3-.LEHB3
 485 0034 00000000 		.4byte	.L26-.LFB25
 486 0038 00       		.byte	0
 487 0039 00000000 		.4byte	.LEHB4-.LFB25
 488 003d 00000000 		.4byte	.LEHE4-.LEHB4
 489 0041 00000000 		.4byte	0
 490 0045 00       		.byte	0
 491 0046 00000000 		.4byte	.LEHB5-.LFB25
 492 004a 00000000 		.4byte	.LEHE5-.LEHB5
 493 004e 00000000 		.4byte	.L27-.LFB25
 494 0052 00       		.byte	0
 495 0053 00000000 		.4byte	.LEHB6-.LFB25
 496 0057 00000000 		.4byte	.LEHE6-.LEHB6
 497 005b 00000000 		.4byte	0
 498 005f 00       		.byte	0
 499 0060 00000000 		.4byte	.LEHB7-.LFB25
 500 0064 00000000 		.4byte	.LEHE7-.LEHB7
 501 0068 00000000 		.4byte	0
 502 006c 00       		.byte	0
 503 006d 00000000 		.4byte	.LEHB8-.LFB25
 504 0071 00000000 		.4byte	.LEHE8-.LEHB8
 505 0075 00000000 		.4byte	0
 506 0079 00       		.byte	0
 507 007a 00000000 		.4byte	.LEHB9-.LFB25
 508 007e 00000000 		.4byte	.LEHE9-.LEHB9
 509 0082 00000000 		.4byte	0
 510 0086 00       		.byte	0
 511              		.text
 513              		.weak	_ZTV10UdjeIzadje
 514              		.section	.data.rel.ro.local._ZTV10UdjeIzadje,"awG",@progbits,_ZTV10UdjeIzadje,comdat
 515              		.align	3
 518              	_ZTV10UdjeIzadje:
 519 0000 00000000 		.dword	0
 519      00000000 
 520 0008 00000000 		.dword	0
 520      00000000 
GAS LISTING /tmp/ccIZTTdk.s 			page 12


 521 0010 00000000 		.dword	_ZN10UdjeIzadjeD1Ev
 521      00000000 
 522 0018 00000000 		.dword	_ZN10UdjeIzadjeD0Ev
 522      00000000 
 523 0020 00000000 		.dword	_ZN10UdjeIzadje3runEv
 523      00000000 
 524              		.globl	threadsPrior
 525              		.globl	globS
 526              		.globl	semP
 527              		.bss
 528              		.align	3
 529              		.set	.LANCHOR0,. + 0
 532              	semP:
 533 0000 00000000 		.zero	8
 533      00000000 
 536              	globS:
 537 0008 00000000 		.zero	8
 537      00000000 
 540              	threadsPrior:
 541 0010 00000000 		.zero	400
 541      00000000 
 541      00000000 
 541      00000000 
 541      00000000 
 542              		.text
 543              	.Letext0:
 544              		.file 2 "test/../h/../lib/hw.h"
 545              		.file 3 "test/../h/syscall_cpp.hpp"
 546              		.file 4 "test/../h/syscall_c.hpp"
 547              		.file 5 "test/printing.hpp"
 2354              		.align	3
 2357              	DW.ref.__gxx_personality_v0:
 2358 0000 00000000 		.dword	__gxx_personality_v0
 2358      00000000 
 2359              		.ident	"GCC: (Ubuntu 9.4.0-1ubuntu1~20.04) 9.4.0"
 2360              		.section	.note.GNU-stack,"",@progbits
GAS LISTING /tmp/ccIZTTdk.s 			page 13

