GAS LISTING /tmp/cczCQNHn.s 			page 1


   1              		.file	"SetMaximumThread.cpp"
   2              		.option pic
   3              		.option norelax
   4              		.text
   5              	.Ltext0:
   6              		.section	.rodata.str1.8,"aMS",@progbits,1
   7              		.align	3
   8              	.LC0:
   9 0000 54687265 		.string	"ThreadId: "
   9      61644964 
   9      3A2000
  10 000b 00000000 		.align	3
  10      00
  11              	.LC1:
  12 0010 200A00   		.string	" \n"
  13              		.text
  14              		.align	2
  16              	_ZL11workerBodyAPv:
  17              	.LFB20:
  18              		.file 1 "test/SetMaximumThread.cpp"
   1:test/SetMaximumThread.cpp **** #include "printing.hpp"
   2:test/SetMaximumThread.cpp **** #include "../h/syscall_c.hpp"
   3:test/SetMaximumThread.cpp **** 
   4:test/SetMaximumThread.cpp **** sem_t globSem;
   5:test/SetMaximumThread.cpp **** static void workerBodyA(void* arg) {
  19              		.loc 1 5 36
  20              		.cfi_startproc
  21              	.LVL0:
  22 0000 130101FE 		addi	sp,sp,-32
  23              		.cfi_def_cfa_offset 32
  24 0004 233C1100 		sd	ra,24(sp)
  25 0008 23388100 		sd	s0,16(sp)
  26 000c 23349100 		sd	s1,8(sp)
  27 0010 23302101 		sd	s2,0(sp)
  28              		.cfi_offset 1, -8
  29              		.cfi_offset 8, -16
  30              		.cfi_offset 9, -24
  31              		.cfi_offset 18, -32
  32 0014 13040102 		addi	s0,sp,32
  33              		.cfi_def_cfa 8, 0
   6:test/SetMaximumThread.cpp ****     for (uint64 i = 0; i < 5; i++) {
  34              		.loc 1 6 5
  35              	.LVL1:
  36              	.LBB2:
  37              		.loc 1 6 17 is_stmt 0
  38 0018 13090000 		li	s2,0
  39              	.LVL2:
  40              	.L3:
  41              		.loc 1 6 26 is_stmt 1 discriminator 3
  42 001c 93074000 		li	a5,4
  43 0020 63EA2705 		bgtu	s2,a5,.L2
  44              	.LBB3:
   7:test/SetMaximumThread.cpp ****         int tmp = getThreadId();
  45              		.loc 1 7 9 discriminator 2
  46              		.loc 1 7 30 is_stmt 0 discriminator 2
  47 0024 97000000 		call	_Z11getThreadIdv@plt
  47      E7800000 
GAS LISTING /tmp/cczCQNHn.s 			page 2


  48              	.LVL3:
  49 002c 93040500 		mv	s1,a0
  50              	.LVL4:
   8:test/SetMaximumThread.cpp ****         printString("ThreadId: "); printInt(tmp); printString(" \n");
  51              		.loc 1 8 9 is_stmt 1 discriminator 2
  52              		.loc 1 8 20 is_stmt 0 discriminator 2
  53 0030 17050000 		lla	a0,.LC0
  53      13050500 
  54 0038 97000000 		call	_Z11printStringPKc@plt
  54      E7800000 
  55              	.LVL5:
  56              		.loc 1 8 36 is_stmt 1 discriminator 2
  57              		.loc 1 8 44 is_stmt 0 discriminator 2
  58 0040 13060000 		li	a2,0
  59 0044 9305A000 		li	a1,10
  60 0048 13850400 		mv	a0,s1
  61 004c 97000000 		call	_Z8printIntiii@plt
  61      E7800000 
  62              	.LVL6:
  63              		.loc 1 8 51 is_stmt 1 discriminator 2
  64              		.loc 1 8 62 is_stmt 0 discriminator 2
  65 0054 17050000 		lla	a0,.LC1
  65      13050500 
  66 005c 97000000 		call	_Z11printStringPKc@plt
  66      E7800000 
  67              	.LVL7:
   9:test/SetMaximumThread.cpp **** //        for (uint64 j = 0; j < 10000; j++) {
  10:test/SetMaximumThread.cpp **** //            for (uint64 k = 0; k < 30000; k++) { /* busy wait */ }
  11:test/SetMaximumThread.cpp **** //
  12:test/SetMaximumThread.cpp **** //        }
  13:test/SetMaximumThread.cpp ****         thread_dispatch();
  68              		.loc 1 13 9 is_stmt 1 discriminator 2
  69              		.loc 1 13 24 is_stmt 0 discriminator 2
  70 0064 97000000 		call	_Z15thread_dispatchv@plt
  70      E7800000 
  71              	.LVL8:
  72              	.LBE3:
   6:test/SetMaximumThread.cpp ****         int tmp = getThreadId();
  73              		.loc 1 6 5 is_stmt 1 discriminator 2
  74 006c 13091900 		addi	s2,s2,1
  75              	.LVL9:
  76 0070 6FF0DFFA 		j	.L3
  77              	.LVL10:
  78              	.L2:
  79              	.LBE2:
  14:test/SetMaximumThread.cpp ****     }
  15:test/SetMaximumThread.cpp ****     sem_signal(globSem);
  80              		.loc 1 15 5
  81              		.loc 1 15 15 is_stmt 0
  82 0074 17050000 		ld	a0,.LANCHOR0
  82      03350500 
  83 007c 97000000 		call	_Z10sem_signalP3Sem@plt
  83      E7800000 
  84              	.LVL11:
  16:test/SetMaximumThread.cpp **** }
  85              		.loc 1 16 1
  86 0084 83308101 		ld	ra,24(sp)
GAS LISTING /tmp/cczCQNHn.s 			page 3


  87              		.cfi_restore 1
  88 0088 03340101 		ld	s0,16(sp)
  89              		.cfi_restore 8
  90              		.cfi_def_cfa 2, 32
  91 008c 83348100 		ld	s1,8(sp)
  92              		.cfi_restore 9
  93 0090 03390100 		ld	s2,0(sp)
  94              		.cfi_restore 18
  95              	.LVL12:
  96 0094 13010102 		addi	sp,sp,32
  97              		.cfi_def_cfa_offset 0
  98 0098 67800000 		jr	ra
  99              		.cfi_endproc
 100              	.LFE20:
 102              		.section	.rodata.str1.8
 103 0013 00000000 		.align	3
 103      00
 104              	.LC2:
 105 0018 45207A61 		.string	"E zavrsio zadatak!\n"
 105      76727369 
 105      6F207A61 
 105      64617461 
 105      6B210A00 
 106              		.text
 107              		.align	2
 108              		.globl	_Z16setMaximumThreadv
 110              	_Z16setMaximumThreadv:
 111              	.LFB21:
  17:test/SetMaximumThread.cpp **** 
  18:test/SetMaximumThread.cpp **** 
  19:test/SetMaximumThread.cpp **** 
  20:test/SetMaximumThread.cpp **** void setMaximumThread(){
 112              		.loc 1 20 24 is_stmt 1
 113              		.cfi_startproc
 114 009c 130101F4 		addi	sp,sp,-192
 115              		.cfi_def_cfa_offset 192
 116 00a0 233C110A 		sd	ra,184(sp)
 117 00a4 2338810A 		sd	s0,176(sp)
 118 00a8 2334910A 		sd	s1,168(sp)
 119              		.cfi_offset 1, -8
 120              		.cfi_offset 8, -16
 121              		.cfi_offset 9, -24
 122 00ac 1304010C 		addi	s0,sp,192
 123              		.cfi_def_cfa 8, 0
  21:test/SetMaximumThread.cpp ****     thread_t threads[20];
 124              		.loc 1 21 5
  22:test/SetMaximumThread.cpp ****     sem_open(&globSem,0);
 125              		.loc 1 22 5
 126              		.loc 1 22 13 is_stmt 0
 127 00b0 93050000 		li	a1,0
 128 00b4 17050000 		lla	a0,.LANCHOR0
 128      13050500 
 129 00bc 97000000 		call	_Z8sem_openPP3Semj@plt
 129      E7800000 
 130              	.LVL13:
  23:test/SetMaximumThread.cpp ****     SetMaxThreads();
 131              		.loc 1 23 5 is_stmt 1
GAS LISTING /tmp/cczCQNHn.s 			page 4


 132              		.loc 1 23 18 is_stmt 0
 133 00c4 13055000 		li	a0,5
 134 00c8 97000000 		call	_Z13SetMaxThreadsi@plt
 134      E7800000 
 135              	.LVL14:
 136              	.LBB4:
  24:test/SetMaximumThread.cpp ****     for(int i=0;i<20;i++){
 137              		.loc 1 24 13
 138 00d0 93040000 		li	s1,0
 139              	.L7:
 140              	.LVL15:
 141              		.loc 1 24 18 is_stmt 1 discriminator 1
 142 00d4 93073001 		li	a5,19
 143 00d8 63C69702 		bgt	s1,a5,.L6
  25:test/SetMaximumThread.cpp ****         thread_create(&threads[i], workerBodyA, nullptr);
 144              		.loc 1 25 9
 145              		.loc 1 25 22 is_stmt 0
 146 00dc 93973400 		slli	a5,s1,3
 147 00e0 13060000 		li	a2,0
 148 00e4 97050000 		lla	a1,_ZL11workerBodyAPv
 148      93850500 
 149 00ec 130504F4 		addi	a0,s0,-192
 150 00f0 3305F500 		add	a0,a0,a5
 151 00f4 97000000 		call	_Z13thread_createPP3TCBPFvPvES2_@plt
 151      E7800000 
 152              	.LVL16:
  24:test/SetMaximumThread.cpp ****     for(int i=0;i<20;i++){
 153              		.loc 1 24 5 is_stmt 1
 154 00fc 9B841400 		addiw	s1,s1,1
 155              	.LVL17:
 156 0100 6FF05FFD 		j	.L7
 157              	.LVL18:
 158              	.L6:
 159              	.LBE4:
  26:test/SetMaximumThread.cpp ****     }
  27:test/SetMaximumThread.cpp **** 
  28:test/SetMaximumThread.cpp ****     thread_dispatch();
 160              		.loc 1 28 5
 161              		.loc 1 28 20 is_stmt 0
 162 0104 97000000 		call	_Z15thread_dispatchv@plt
 162      E7800000 
 163              	.LVL19:
 164              	.LBB5:
  29:test/SetMaximumThread.cpp ****     for(int i=0;i<20;i++)
 165              		.loc 1 29 13
 166 010c 93040000 		li	s1,0
 167              	.LVL20:
 168 0110 6F008001 		j	.L9
 169              	.LVL21:
 170              	.L11:
  30:test/SetMaximumThread.cpp ****         sem_wait(globSem);
 171              		.loc 1 30 9 is_stmt 1
 172              		.loc 1 30 17 is_stmt 0
 173 0114 17050000 		ld	a0,.LANCHOR0
 173      03350500 
 174 011c 97000000 		call	_Z8sem_waitP3Sem@plt
 174      E7800000 
GAS LISTING /tmp/cczCQNHn.s 			page 5


 175              	.LVL22:
  29:test/SetMaximumThread.cpp ****     for(int i=0;i<20;i++)
 176              		.loc 1 29 5 is_stmt 1
 177 0124 9B841400 		addiw	s1,s1,1
 178              	.LVL23:
 179              	.L9:
  29:test/SetMaximumThread.cpp ****     for(int i=0;i<20;i++)
 180              		.loc 1 29 18 discriminator 1
 181 0128 93073001 		li	a5,19
 182 012c E3D497FE 		ble	s1,a5,.L11
 183              	.LBE5:
  31:test/SetMaximumThread.cpp **** 
  32:test/SetMaximumThread.cpp ****     printString("E zavrsio zadatak!\n");
 184              		.loc 1 32 5
 185              		.loc 1 32 16 is_stmt 0
 186 0130 17050000 		lla	a0,.LC2
 186      13050500 
 187 0138 97000000 		call	_Z11printStringPKc@plt
 187      E7800000 
 188              	.LVL24:
  33:test/SetMaximumThread.cpp ****     sem_close(globSem);
 189              		.loc 1 33 5 is_stmt 1
 190              		.loc 1 33 14 is_stmt 0
 191 0140 17050000 		ld	a0,.LANCHOR0
 191      03350500 
 192 0148 97000000 		call	_Z9sem_closeP3Sem@plt
 192      E7800000 
 193              	.LVL25:
  34:test/SetMaximumThread.cpp **** }...
 194              		.loc 1 34 1
 195 0150 8330810B 		ld	ra,184(sp)
 196              		.cfi_restore 1
 197 0154 0334010B 		ld	s0,176(sp)
 198              		.cfi_restore 8
 199              		.cfi_def_cfa 2, 192
 200 0158 8334810A 		ld	s1,168(sp)
 201              		.cfi_restore 9
 202              	.LVL26:
 203 015c 1301010C 		addi	sp,sp,192
 204              		.cfi_def_cfa_offset 0
 205 0160 67800000 		jr	ra
 206              		.cfi_endproc
 207              	.LFE21:
 209              		.globl	globSem
 210              		.bss
 211              		.align	3
 212              		.set	.LANCHOR0,. + 0
 215              	globSem:
 216 0000 00000000 		.zero	8
 216      00000000 
 217              		.text
 218              	.Letext0:
 219              		.file 2 "test/../h/../lib/hw.h"
 220              		.file 3 "test/../h/queue.hpp"
 221              		.file 4 "test/../h/tcb.hpp"
 222              		.file 5 "test/../h/syscall_cpp.hpp"
 223              		.file 6 "test/../h/sem.hpp"
GAS LISTING /tmp/cczCQNHn.s 			page 6


 224              		.file 7 "test/../h/syscall_c.hpp"
 225              		.file 8 "test/printing.hpp"
GAS LISTING /tmp/cczCQNHn.s 			page 7


DEFINED SYMBOLS
                            *ABS*:0000000000000000 SetMaximumThread.cpp
     /tmp/cczCQNHn.s:16     .text:0000000000000000 _ZL11workerBodyAPv
     /tmp/cczCQNHn.s:20     .text:0000000000000000 .L0 
     /tmp/cczCQNHn.s:22     .text:0000000000000000 .L0 
     /tmp/cczCQNHn.s:23     .text:0000000000000004 .L0 
     /tmp/cczCQNHn.s:28     .text:0000000000000014 .L0 
     /tmp/cczCQNHn.s:29     .text:0000000000000014 .L0 
     /tmp/cczCQNHn.s:30     .text:0000000000000014 .L0 
     /tmp/cczCQNHn.s:31     .text:0000000000000014 .L0 
     /tmp/cczCQNHn.s:33     .text:0000000000000018 .L0 
     /tmp/cczCQNHn.s:37     .text:0000000000000018 .L0 
     /tmp/cczCQNHn.s:38     .text:0000000000000018 .L0 
     /tmp/cczCQNHn.s:42     .text:000000000000001c .L0 
     /tmp/cczCQNHn.s:46     .text:0000000000000024 .L0 
     /tmp/cczCQNHn.s:47     .text:0000000000000024 .L0 
     /tmp/cczCQNHn.s:52     .text:0000000000000030 .L0 
     /tmp/cczCQNHn.s:53     .text:0000000000000030 .L0 
     /tmp/cczCQNHn.s:57     .text:0000000000000040 .L0 
     /tmp/cczCQNHn.s:58     .text:0000000000000040 .L0 
     /tmp/cczCQNHn.s:64     .text:0000000000000054 .L0 
     /tmp/cczCQNHn.s:65     .text:0000000000000054 .L0 
     /tmp/cczCQNHn.s:69     .text:0000000000000064 .L0 
     /tmp/cczCQNHn.s:70     .text:0000000000000064 .L0 
     /tmp/cczCQNHn.s:74     .text:000000000000006c .L0 
     /tmp/cczCQNHn.s:81     .text:0000000000000074 .L0 
     /tmp/cczCQNHn.s:82     .text:0000000000000074 .L0 
     /tmp/cczCQNHn.s:86     .text:0000000000000084 .L0 
     /tmp/cczCQNHn.s:87     .text:0000000000000088 .L0 
     /tmp/cczCQNHn.s:89     .text:000000000000008c .L0 
     /tmp/cczCQNHn.s:90     .text:000000000000008c .L0 
     /tmp/cczCQNHn.s:92     .text:0000000000000090 .L0 
     /tmp/cczCQNHn.s:94     .text:0000000000000094 .L0 
     /tmp/cczCQNHn.s:97     .text:0000000000000098 .L0 
     /tmp/cczCQNHn.s:99     .text:000000000000009c .L0 
     /tmp/cczCQNHn.s:110    .text:000000000000009c _Z16setMaximumThreadv
     /tmp/cczCQNHn.s:113    .text:000000000000009c .L0 
     /tmp/cczCQNHn.s:114    .text:000000000000009c .L0 
     /tmp/cczCQNHn.s:115    .text:00000000000000a0 .L0 
     /tmp/cczCQNHn.s:119    .text:00000000000000ac .L0 
     /tmp/cczCQNHn.s:120    .text:00000000000000ac .L0 
     /tmp/cczCQNHn.s:121    .text:00000000000000ac .L0 
     /tmp/cczCQNHn.s:123    .text:00000000000000b0 .L0 
     /tmp/cczCQNHn.s:125    .text:00000000000000b0 .L0 
     /tmp/cczCQNHn.s:126    .text:00000000000000b0 .L0 
     /tmp/cczCQNHn.s:127    .text:00000000000000b0 .L0 
     /tmp/cczCQNHn.s:132    .text:00000000000000c4 .L0 
     /tmp/cczCQNHn.s:133    .text:00000000000000c4 .L0 
     /tmp/cczCQNHn.s:138    .text:00000000000000d0 .L0 
     /tmp/cczCQNHn.s:142    .text:00000000000000d4 .L0 
     /tmp/cczCQNHn.s:145    .text:00000000000000dc .L0 
     /tmp/cczCQNHn.s:146    .text:00000000000000dc .L0 
     /tmp/cczCQNHn.s:154    .text:00000000000000fc .L0 
     /tmp/cczCQNHn.s:161    .text:0000000000000104 .L0 
     /tmp/cczCQNHn.s:162    .text:0000000000000104 .L0 
     /tmp/cczCQNHn.s:166    .text:000000000000010c .L0 
     /tmp/cczCQNHn.s:172    .text:0000000000000114 .L0 
GAS LISTING /tmp/cczCQNHn.s 			page 8


     /tmp/cczCQNHn.s:173    .text:0000000000000114 .L0 
     /tmp/cczCQNHn.s:177    .text:0000000000000124 .L0 
     /tmp/cczCQNHn.s:181    .text:0000000000000128 .L0 
     /tmp/cczCQNHn.s:185    .text:0000000000000130 .L0 
     /tmp/cczCQNHn.s:186    .text:0000000000000130 .L0 
     /tmp/cczCQNHn.s:190    .text:0000000000000140 .L0 
     /tmp/cczCQNHn.s:191    .text:0000000000000140 .L0 
     /tmp/cczCQNHn.s:195    .text:0000000000000150 .L0 
     /tmp/cczCQNHn.s:196    .text:0000000000000154 .L0 
     /tmp/cczCQNHn.s:198    .text:0000000000000158 .L0 
     /tmp/cczCQNHn.s:199    .text:0000000000000158 .L0 
     /tmp/cczCQNHn.s:201    .text:000000000000015c .L0 
     /tmp/cczCQNHn.s:204    .text:0000000000000160 .L0 
     /tmp/cczCQNHn.s:206    .text:0000000000000164 .L0 
     /tmp/cczCQNHn.s:215    .bss:0000000000000000 globSem
     /tmp/cczCQNHn.s:212    .bss:0000000000000000 .LANCHOR0
     /tmp/cczCQNHn.s:226    .text:0000000000000164 .L0 
     /tmp/cczCQNHn.s:8      .rodata.str1.8:0000000000000000 .LC0
     /tmp/cczCQNHn.s:53     .text:0000000000000030 .L0 
     /tmp/cczCQNHn.s:11     .rodata.str1.8:0000000000000010 .LC1
     /tmp/cczCQNHn.s:65     .text:0000000000000054 .L0 
     /tmp/cczCQNHn.s:82     .text:0000000000000074 .L0 
     /tmp/cczCQNHn.s:128    .text:00000000000000b4 .L0 
     /tmp/cczCQNHn.s:148    .text:00000000000000e4 .L0 
     /tmp/cczCQNHn.s:173    .text:0000000000000114 .L0 
     /tmp/cczCQNHn.s:104    .rodata.str1.8:0000000000000018 .LC2
     /tmp/cczCQNHn.s:186    .text:0000000000000130 .L0 
     /tmp/cczCQNHn.s:191    .text:0000000000000140 .L0 
     /tmp/cczCQNHn.s:78     .text:0000000000000074 .L2
     /tmp/cczCQNHn.s:40     .text:000000000000001c .L3
     /tmp/cczCQNHn.s:158    .text:0000000000000104 .L6
     /tmp/cczCQNHn.s:139    .text:00000000000000d4 .L7
     /tmp/cczCQNHn.s:179    .text:0000000000000128 .L9
     /tmp/cczCQNHn.s:170    .text:0000000000000114 .L11
     /tmp/cczCQNHn.s:1367   .debug_abbrev:0000000000000000 .Ldebug_abbrev0
     /tmp/cczCQNHn.s:2503   .debug_str:0000000000000673 .LASF124
     /tmp/cczCQNHn.s:2307   .debug_str:00000000000000ff .LASF125
     /tmp/cczCQNHn.s:2463   .debug_str:0000000000000531 .LASF126
     /tmp/cczCQNHn.s:5      .text:0000000000000000 .Ltext0
     /tmp/cczCQNHn.s:218    .text:0000000000000164 .Letext0
     /tmp/cczCQNHn.s:2271   .debug_line:0000000000000000 .Ldebug_line0
     /tmp/cczCQNHn.s:2441   .debug_str:0000000000000493 .LASF0
     /tmp/cczCQNHn.s:2453   .debug_str:00000000000004d0 .LASF1
     /tmp/cczCQNHn.s:2421   .debug_str:0000000000000404 .LASF2
     /tmp/cczCQNHn.s:2383   .debug_str:0000000000000321 .LASF4
     /tmp/cczCQNHn.s:2489   .debug_str:00000000000005e9 .LASF3
     /tmp/cczCQNHn.s:2303   .debug_str:00000000000000e7 .LASF5
     /tmp/cczCQNHn.s:2459   .debug_str:0000000000000513 .LASF6
     /tmp/cczCQNHn.s:2439   .debug_str:0000000000000480 .LASF7
     /tmp/cczCQNHn.s:2519   .debug_str:00000000000007a1 .LASF8
     /tmp/cczCQNHn.s:2365   .debug_str:0000000000000292 .LASF9
     /tmp/cczCQNHn.s:2469   .debug_str:000000000000056f .LASF10
     /tmp/cczCQNHn.s:2505   .debug_str:0000000000000737 .LASF11
     /tmp/cczCQNHn.s:2403   .debug_str:000000000000038e .LASF12
     /tmp/cczCQNHn.s:2283   .debug_str:0000000000000043 .LASF13
     /tmp/cczCQNHn.s:2315   .debug_str:0000000000000142 .LASF14
     /tmp/cczCQNHn.s:2485   .debug_str:00000000000005bf .LASF15
GAS LISTING /tmp/cczCQNHn.s 			page 9


     /tmp/cczCQNHn.s:2333   .debug_str:00000000000001c6 .LASF16
     /tmp/cczCQNHn.s:2397   .debug_str:0000000000000369 .LASF19
     /tmp/cczCQNHn.s:2481   .debug_str:00000000000005ae .LASF17
     /tmp/cczCQNHn.s:2535   .debug_str:000000000000081e .LASF18
     /tmp/cczCQNHn.s:2289   .debug_str:0000000000000077 .LASF20
     /tmp/cczCQNHn.s:2341   .debug_str:00000000000001f7 .LASF21
     /tmp/cczCQNHn.s:2477   .debug_str:000000000000059d .LASF23
     /tmp/cczCQNHn.s:2461   .debug_str:0000000000000526 .LASF25
     /tmp/cczCQNHn.s:2363   .debug_str:000000000000027b .LASF27
     /tmp/cczCQNHn.s:2423   .debug_str:0000000000000412 .LASF22
     /tmp/cczCQNHn.s:2377   .debug_str:00000000000002dd .LASF24
     /tmp/cczCQNHn.s:2343   .debug_str:00000000000001fc .LASF26
     /tmp/cczCQNHn.s:2437   .debug_str:0000000000000468 .LASF28
     /tmp/cczCQNHn.s:2471   .debug_str:000000000000057e .LASF29
     /tmp/cczCQNHn.s:2493   .debug_str:000000000000060c .LASF30
     /tmp/cczCQNHn.s:2297   .debug_str:00000000000000ae .LASF31
     /tmp/cczCQNHn.s:2285   .debug_str:0000000000000053 .LASF32
     /tmp/cczCQNHn.s:2287   .debug_str:000000000000006d .LASF33
     /tmp/cczCQNHn.s:2399   .debug_str:000000000000036e .LASF34
     /tmp/cczCQNHn.s:2387   .debug_str:000000000000033b .LASF35
     /tmp/cczCQNHn.s:2509   .debug_str:0000000000000754 .LASF36
     /tmp/cczCQNHn.s:2411   .debug_str:00000000000003b7 .LASF37
     /tmp/cczCQNHn.s:2301   .debug_str:00000000000000ce .LASF38
     /tmp/cczCQNHn.s:2445   .debug_str:00000000000004ac .LASF45
     /tmp/cczCQNHn.s:2353   .debug_str:0000000000000232 .LASF47
     /tmp/cczCQNHn.s:2293   .debug_str:0000000000000090 .LASF41
     /tmp/cczCQNHn.s:2329   .debug_str:00000000000001a7 .LASF43
     /tmp/cczCQNHn.s:2501   .debug_str:0000000000000667 .LASF49
     /tmp/cczCQNHn.s:2529   .debug_str:00000000000007e1 .LASF51
     /tmp/cczCQNHn.s:2395   .debug_str:000000000000035c .LASF39
     /tmp/cczCQNHn.s:2497   .debug_str:000000000000062e .LASF40
     /tmp/cczCQNHn.s:2479   .debug_str:00000000000005a9 .LASF127
     /tmp/cczCQNHn.s:2361   .debug_str:000000000000026f .LASF42
     /tmp/cczCQNHn.s:2277   .debug_str:0000000000000011 .LASF44
     /tmp/cczCQNHn.s:2331   .debug_str:00000000000001be .LASF46
     /tmp/cczCQNHn.s:2515   .debug_str:0000000000000784 .LASF48
     /tmp/cczCQNHn.s:2513   .debug_str:0000000000000772 .LASF50
     /tmp/cczCQNHn.s:2415   .debug_str:00000000000003d7 .LASF52
     /tmp/cczCQNHn.s:2347   .debug_str:000000000000020e .LASF53
     /tmp/cczCQNHn.s:2507   .debug_str:0000000000000746 .LASF54
     /tmp/cczCQNHn.s:2321   .debug_str:0000000000000166 .LASF75
     /tmp/cczCQNHn.s:2391   .debug_str:000000000000034f .LASF55
     /tmp/cczCQNHn.s:2319   .debug_str:0000000000000160 .LASF56
     /tmp/cczCQNHn.s:2393   .debug_str:0000000000000354 .LASF57
     /tmp/cczCQNHn.s:2449   .debug_str:00000000000004be .LASF58
     /tmp/cczCQNHn.s:2389   .debug_str:0000000000000346 .LASF59
     /tmp/cczCQNHn.s:2427   .debug_str:0000000000000427 .LASF60
     /tmp/cczCQNHn.s:2275   .debug_str:0000000000000009 .LASF61
     /tmp/cczCQNHn.s:2447   .debug_str:00000000000004b5 .LASF62
     /tmp/cczCQNHn.s:2339   .debug_str:00000000000001f0 .LASF63
     /tmp/cczCQNHn.s:2499   .debug_str:0000000000000654 .LASF64
     /tmp/cczCQNHn.s:2281   .debug_str:0000000000000034 .LASF65
     /tmp/cczCQNHn.s:2443   .debug_str:00000000000004a0 .LASF66
     /tmp/cczCQNHn.s:2409   .debug_str:00000000000003ae .LASF67
     /tmp/cczCQNHn.s:2369   .debug_str:00000000000002a6 .LASF128
     /tmp/cczCQNHn.s:2371   .debug_str:00000000000002b4 .LASF129
     /tmp/cczCQNHn.s:2525   .debug_str:00000000000007c2 .LASF130
GAS LISTING /tmp/cczCQNHn.s 			page 10


     /tmp/cczCQNHn.s:2379   .debug_str:00000000000002f4 .LASF131
     /tmp/cczCQNHn.s:2491   .debug_str:00000000000005fb .LASF132
     /tmp/cczCQNHn.s:2375   .debug_str:00000000000002d2 .LASF68
     /tmp/cczCQNHn.s:2401   .debug_str:0000000000000383 .LASF69
     /tmp/cczCQNHn.s:2405   .debug_str:000000000000039e .LASF70
     /tmp/cczCQNHn.s:2367   .debug_str:00000000000002a0 .LASF71
     /tmp/cczCQNHn.s:2381   .debug_str:000000000000031c .LASF72
     /tmp/cczCQNHn.s:2435   .debug_str:0000000000000463 .LASF73
     /tmp/cczCQNHn.s:2345   .debug_str:0000000000000208 .LASF74
     /tmp/cczCQNHn.s:2327   .debug_str:000000000000019b .LASF76
     /tmp/cczCQNHn.s:2539   .debug_str:0000000000000832 .LASF77
     /tmp/cczCQNHn.s:2537   .debug_str:0000000000000823 .LASF78
     /tmp/cczCQNHn.s:2465   .debug_str:0000000000000551 .LASF79
     /tmp/cczCQNHn.s:2305   .debug_str:00000000000000ee .LASF80
     /tmp/cczCQNHn.s:2417   .debug_str:00000000000003f4 .LASF81
     /tmp/cczCQNHn.s:2385   .debug_str:0000000000000328 .LASF82
     /tmp/cczCQNHn.s:2325   .debug_str:0000000000000190 .LASF83
     /tmp/cczCQNHn.s:2433   .debug_str:000000000000044d .LASF84
     /tmp/cczCQNHn.s:2511   .debug_str:000000000000076a .LASF85
     /tmp/cczCQNHn.s:2317   .debug_str:000000000000014e .LASF86
     /tmp/cczCQNHn.s:2425   .debug_str:000000000000041e .LASF87
     /tmp/cczCQNHn.s:2429   .debug_str:0000000000000432 .LASF88
     /tmp/cczCQNHn.s:2335   .debug_str:00000000000001dc .LASF89
     /tmp/cczCQNHn.s:2527   .debug_str:00000000000007d0 .LASF90
     /tmp/cczCQNHn.s:2475   .debug_str:0000000000000597 .LASF91
     /tmp/cczCQNHn.s:2323   .debug_str:0000000000000180 .LASF92
     /tmp/cczCQNHn.s:2483   .debug_str:00000000000005b3 .LASF93
     /tmp/cczCQNHn.s:2467   .debug_str:0000000000000558 .LASF94
     /tmp/cczCQNHn.s:2431   .debug_str:0000000000000445 .LASF95
     /tmp/cczCQNHn.s:2295   .debug_str:000000000000009c .LASF96
     /tmp/cczCQNHn.s:2419   .debug_str:00000000000003fd .LASF97
     /tmp/cczCQNHn.s:2373   .debug_str:00000000000002cd .LASF98
     /tmp/cczCQNHn.s:2355   .debug_str:0000000000000245 .LASF99
     /tmp/cczCQNHn.s:2407   .debug_str:00000000000003a4 .LASF133
     /tmp/cczCQNHn.s:2273   .debug_str:0000000000000000 .LASF100
     /tmp/cczCQNHn.s:2451   .debug_str:00000000000004c8 .LASF101
     /tmp/cczCQNHn.s:2299   .debug_str:00000000000000bd .LASF102
     /tmp/cczCQNHn.s:2541   .debug_str:0000000000000837 .LASF103
     /tmp/cczCQNHn.s:111    .text:000000000000009c .LFB21
     /tmp/cczCQNHn.s:207    .text:0000000000000164 .LFE21
     /tmp/cczCQNHn.s:2521   .debug_str:00000000000007b1 .LASF104
     /tmp/cczCQNHn.s:136    .text:00000000000000d0 .LBB4
     /tmp/cczCQNHn.s:159    .text:0000000000000104 .LBE4
     /tmp/cczCQNHn.s:2207   .debug_loc:0000000000000000 .LLST3
     /tmp/cczCQNHn.s:152    .text:00000000000000fc .LVL16
     /tmp/cczCQNHn.s:164    .text:000000000000010c .LBB5
     /tmp/cczCQNHn.s:183    .text:0000000000000130 .LBE5
     /tmp/cczCQNHn.s:2218   .debug_loc:0000000000000036 .LLST4
     /tmp/cczCQNHn.s:175    .text:0000000000000124 .LVL22
     /tmp/cczCQNHn.s:130    .text:00000000000000c4 .LVL13
     /tmp/cczCQNHn.s:135    .text:00000000000000d0 .LVL14
     /tmp/cczCQNHn.s:163    .text:000000000000010c .LVL19
     /tmp/cczCQNHn.s:188    .text:0000000000000140 .LVL24
     /tmp/cczCQNHn.s:193    .text:0000000000000150 .LVL25
     /tmp/cczCQNHn.s:2279   .debug_str:0000000000000028 .LASF134
     /tmp/cczCQNHn.s:17     .text:0000000000000000 .LFB20
     /tmp/cczCQNHn.s:100    .text:000000000000009c .LFE20
GAS LISTING /tmp/cczCQNHn.s 			page 11


     /tmp/cczCQNHn.s:2225   .debug_loc:0000000000000059 .LLST0
     /tmp/cczCQNHn.s:36     .text:0000000000000018 .LBB2
     /tmp/cczCQNHn.s:79     .text:0000000000000074 .LBE2
     /tmp/cczCQNHn.s:2239   .debug_loc:0000000000000092 .LLST1
     /tmp/cczCQNHn.s:44     .text:0000000000000024 .LBB3
     /tmp/cczCQNHn.s:72     .text:000000000000006c .LBE3
     /tmp/cczCQNHn.s:2251   .debug_loc:00000000000000c9 .LLST2
     /tmp/cczCQNHn.s:48     .text:000000000000002c .LVL3
     /tmp/cczCQNHn.s:55     .text:0000000000000040 .LVL5
     /tmp/cczCQNHn.s:62     .text:0000000000000054 .LVL6
     /tmp/cczCQNHn.s:67     .text:0000000000000064 .LVL7
     /tmp/cczCQNHn.s:71     .text:000000000000006c .LVL8
     /tmp/cczCQNHn.s:84     .text:0000000000000084 .LVL11
     /tmp/cczCQNHn.s:2457   .debug_str:00000000000004f2 .LASF105
     /tmp/cczCQNHn.s:2337   .debug_str:00000000000001e2 .LASF107
     /tmp/cczCQNHn.s:2291   .debug_str:000000000000007f .LASF106
     /tmp/cczCQNHn.s:2523   .debug_str:00000000000007b9 .LASF108
     /tmp/cczCQNHn.s:2349   .debug_str:0000000000000216 .LASF109
     /tmp/cczCQNHn.s:2351   .debug_str:0000000000000229 .LASF110
     /tmp/cczCQNHn.s:2413   .debug_str:00000000000003c4 .LASF111
     /tmp/cczCQNHn.s:2311   .debug_str:000000000000012b .LASF112
     /tmp/cczCQNHn.s:2357   .debug_str:000000000000024a .LASF113
     /tmp/cczCQNHn.s:2359   .debug_str:000000000000025f .LASF114
     /tmp/cczCQNHn.s:2531   .debug_str:00000000000007fa .LASF115
     /tmp/cczCQNHn.s:2473   .debug_str:000000000000058b .LASF116
     /tmp/cczCQNHn.s:2309   .debug_str:0000000000000119 .LASF117
     /tmp/cczCQNHn.s:2495   .debug_str:0000000000000624 .LASF118
     /tmp/cczCQNHn.s:2533   .debug_str:000000000000080d .LASF119
     /tmp/cczCQNHn.s:2455   .debug_str:00000000000004e3 .LASF120
     /tmp/cczCQNHn.s:2313   .debug_str:0000000000000139 .LASF121
     /tmp/cczCQNHn.s:2487   .debug_str:00000000000005d5 .LASF122
     /tmp/cczCQNHn.s:2517   .debug_str:0000000000000796 .LASF123
     /tmp/cczCQNHn.s:140    .text:00000000000000d4 .LVL15
     /tmp/cczCQNHn.s:155    .text:0000000000000100 .LVL17
     /tmp/cczCQNHn.s:157    .text:0000000000000104 .LVL18
     /tmp/cczCQNHn.s:167    .text:0000000000000110 .LVL20
     /tmp/cczCQNHn.s:169    .text:0000000000000114 .LVL21
     /tmp/cczCQNHn.s:202    .text:000000000000015c .LVL26
     /tmp/cczCQNHn.s:21     .text:0000000000000000 .LVL0
     /tmp/cczCQNHn.s:39     .text:000000000000001c .LVL2
     /tmp/cczCQNHn.s:35     .text:0000000000000018 .LVL1
     /tmp/cczCQNHn.s:95     .text:0000000000000094 .LVL12
     /tmp/cczCQNHn.s:50     .text:0000000000000030 .LVL4
     /tmp/cczCQNHn.s:77     .text:0000000000000074 .LVL10
     /tmp/cczCQNHn.s:227    .debug_info:0000000000000000 .Ldebug_info0

UNDEFINED SYMBOLS
_Z11getThreadIdv
_Z11printStringPKc
_Z8printIntiii
_Z15thread_dispatchv
_Z10sem_signalP3Sem
_Z8sem_openPP3Semj
_Z13SetMaxThreadsi
_Z13thread_createPP3TCBPFvPvES2_
_Z8sem_waitP3Sem
_Z9sem_closeP3Sem
GAS LISTING /tmp/cczCQNHn.s 			page 12


