GAS LISTING /tmp/cczCQNHn.s 			page 1


   1              		.file	"SetMaximumThread.cpp"
   2              		.option pic
   3              		.option norelax
   4              		.text
   5              	.Ltext0:
   6              		.section	.rodata.str1.8,"aMS",@progbits,1
   7              		.align	3
   8              	.LC0:
   9 0000 54687265 		.string	"ThreadId: "
   9      61644964 
   9      3A2000
  10 000b 00000000 		.align	3
  10      00
  11              	.LC1:
  12 0010 200A00   		.string	" \n"
  13              		.text
  14              		.align	2
  16              	_ZL11workerBodyAPv:
  17              	.LFB20:
  18              		.file 1 "test/SetMaximumThread.cpp"
   1:test/SetMaximumThread.cpp **** #include "printing.hpp"
   2:test/SetMaximumThread.cpp **** #include "../h/syscall_c.hpp"
   3:test/SetMaximumThread.cpp **** 
   4:test/SetMaximumThread.cpp **** sem_t globSem;
   5:test/SetMaximumThread.cpp **** static void workerBodyA(void* arg) {
  19              		.loc 1 5 36
  20              		.cfi_startproc
  21              	.LVL0:
  22 0000 130101FE 		addi	sp,sp,-32
  23              		.cfi_def_cfa_offset 32
  24 0004 233C1100 		sd	ra,24(sp)
  25 0008 23388100 		sd	s0,16(sp)
  26 000c 23349100 		sd	s1,8(sp)
  27 0010 23302101 		sd	s2,0(sp)
  28              		.cfi_offset 1, -8
  29              		.cfi_offset 8, -16
  30              		.cfi_offset 9, -24
  31              		.cfi_offset 18, -32
  32 0014 13040102 		addi	s0,sp,32
  33              		.cfi_def_cfa 8, 0
   6:test/SetMaximumThread.cpp ****     for (uint64 i = 0; i < 5; i++) {
  34              		.loc 1 6 5
  35              	.LVL1:
  36              	.LBB2:
  37              		.loc 1 6 17 is_stmt 0
  38 0018 13090000 		li	s2,0
  39              	.LVL2:
  40              	.L3:
  41              		.loc 1 6 26 is_stmt 1 discriminator 3
  42 001c 93074000 		li	a5,4
  43 0020 63EA2705 		bgtu	s2,a5,.L2
  44              	.LBB3:
   7:test/SetMaximumThread.cpp ****         int tmp = getThreadId();
  45              		.loc 1 7 9 discriminator 2
  46              		.loc 1 7 30 is_stmt 0 discriminator 2
  47 0024 97000000 		call	_Z11getThreadIdv@plt
  47      E7800000 
GAS LISTING /tmp/cczCQNHn.s 			page 2


  48              	.LVL3:
  49 002c 93040500 		mv	s1,a0
  50              	.LVL4:
   8:test/SetMaximumThread.cpp ****         printString("ThreadId: "); printInt(tmp); printString(" \n");
  51              		.loc 1 8 9 is_stmt 1 discriminator 2
  52              		.loc 1 8 20 is_stmt 0 discriminator 2
  53 0030 17050000 		lla	a0,.LC0
  53      13050500 
  54 0038 97000000 		call	_Z11printStringPKc@plt
  54      E7800000 
  55              	.LVL5:
  56              		.loc 1 8 36 is_stmt 1 discriminator 2
  57              		.loc 1 8 44 is_stmt 0 discriminator 2
  58 0040 13060000 		li	a2,0
  59 0044 9305A000 		li	a1,10
  60 0048 13850400 		mv	a0,s1
  61 004c 97000000 		call	_Z8printIntiii@plt
  61      E7800000 
  62              	.LVL6:
  63              		.loc 1 8 51 is_stmt 1 discriminator 2
  64              		.loc 1 8 62 is_stmt 0 discriminator 2
  65 0054 17050000 		lla	a0,.LC1
  65      13050500 
  66 005c 97000000 		call	_Z11printStringPKc@plt
  66      E7800000 
  67              	.LVL7:
   9:test/SetMaximumThread.cpp **** //        for (uint64 j = 0; j < 10000; j++) {
  10:test/SetMaximumThread.cpp **** //            for (uint64 k = 0; k < 30000; k++) { /* busy wait */ }
  11:test/SetMaximumThread.cpp **** //
  12:test/SetMaximumThread.cpp **** //        }
  13:test/SetMaximumThread.cpp ****         thread_dispatch();
  68              		.loc 1 13 9 is_stmt 1 discriminator 2
  69              		.loc 1 13 24 is_stmt 0 discriminator 2
  70 0064 97000000 		call	_Z15thread_dispatchv@plt
  70      E7800000 
  71              	.LVL8:
  72              	.LBE3:
   6:test/SetMaximumThread.cpp ****         int tmp = getThreadId();
  73              		.loc 1 6 5 is_stmt 1 discriminator 2
  74 006c 13091900 		addi	s2,s2,1
  75              	.LVL9:
  76 0070 6FF0DFFA 		j	.L3
  77              	.LVL10:
  78              	.L2:
  79              	.LBE2:
  14:test/SetMaximumThread.cpp ****     }
  15:test/SetMaximumThread.cpp ****     sem_signal(globSem);
  80              		.loc 1 15 5
  81              		.loc 1 15 15 is_stmt 0
  82 0074 17050000 		ld	a0,.LANCHOR0
  82      03350500 
  83 007c 97000000 		call	_Z10sem_signalP3Sem@plt
  83      E7800000 
  84              	.LVL11:
  16:test/SetMaximumThread.cpp **** }
  85              		.loc 1 16 1
  86 0084 83308101 		ld	ra,24(sp)
GAS LISTING /tmp/cczCQNHn.s 			page 3


  87              		.cfi_restore 1
  88 0088 03340101 		ld	s0,16(sp)
  89              		.cfi_restore 8
  90              		.cfi_def_cfa 2, 32
  91 008c 83348100 		ld	s1,8(sp)
  92              		.cfi_restore 9
  93 0090 03390100 		ld	s2,0(sp)
  94              		.cfi_restore 18
  95              	.LVL12:
  96 0094 13010102 		addi	sp,sp,32
  97              		.cfi_def_cfa_offset 0
  98 0098 67800000 		jr	ra
  99              		.cfi_endproc
 100              	.LFE20:
 102              		.section	.rodata.str1.8
 103 0013 00000000 		.align	3
 103      00
 104              	.LC2:
 105 0018 45207A61 		.string	"E zavrsio zadatak!\n"
 105      76727369 
 105      6F207A61 
 105      64617461 
 105      6B210A00 
 106              		.text
 107              		.align	2
 108              		.globl	_Z16setMaximumThreadv
 110              	_Z16setMaximumThreadv:
 111              	.LFB21:
  17:test/SetMaximumThread.cpp **** 
  18:test/SetMaximumThread.cpp **** 
  19:test/SetMaximumThread.cpp **** 
  20:test/SetMaximumThread.cpp **** void setMaximumThread(){
 112              		.loc 1 20 24 is_stmt 1
 113              		.cfi_startproc
 114 009c 130101F4 		addi	sp,sp,-192
 115              		.cfi_def_cfa_offset 192
 116 00a0 233C110A 		sd	ra,184(sp)
 117 00a4 2338810A 		sd	s0,176(sp)
 118 00a8 2334910A 		sd	s1,168(sp)
 119              		.cfi_offset 1, -8
 120              		.cfi_offset 8, -16
 121              		.cfi_offset 9, -24
 122 00ac 1304010C 		addi	s0,sp,192
 123              		.cfi_def_cfa 8, 0
  21:test/SetMaximumThread.cpp ****     thread_t threads[20];
 124              		.loc 1 21 5
  22:test/SetMaximumThread.cpp ****     sem_open(&globSem,0);
 125              		.loc 1 22 5
 126              		.loc 1 22 13 is_stmt 0
 127 00b0 93050000 		li	a1,0
 128 00b4 17050000 		lla	a0,.LANCHOR0
 128      13050500 
 129 00bc 97000000 		call	_Z8sem_openPP3Semj@plt
 129      E7800000 
 130              	.LVL13:
  23:test/SetMaximumThread.cpp ****     SetMaxThreads();
 131              		.loc 1 23 5 is_stmt 1
GAS LISTING /tmp/cczCQNHn.s 			page 4


 132              		.loc 1 23 18 is_stmt 0
 133 00c4 13055000 		li	a0,5
 134 00c8 97000000 		call	_Z13SetMaxThreadsi@plt
 134      E7800000 
 135              	.LVL14:
 136              	.LBB4:
  24:test/SetMaximumThread.cpp ****     for(int i=0;i<20;i++){
 137              		.loc 1 24 13
 138 00d0 93040000 		li	s1,0
 139              	.L7:
 140              	.LVL15:
 141              		.loc 1 24 18 is_stmt 1 discriminator 1
 142 00d4 93073001 		li	a5,19
 143 00d8 63C69702 		bgt	s1,a5,.L6
  25:test/SetMaximumThread.cpp ****         thread_create(&threads[i], workerBodyA, nullptr);
 144              		.loc 1 25 9
 145              		.loc 1 25 22 is_stmt 0
 146 00dc 93973400 		slli	a5,s1,3
 147 00e0 13060000 		li	a2,0
 148 00e4 97050000 		lla	a1,_ZL11workerBodyAPv
 148      93850500 
 149 00ec 130504F4 		addi	a0,s0,-192
 150 00f0 3305F500 		add	a0,a0,a5
 151 00f4 97000000 		call	_Z13thread_createPP3TCBPFvPvES2_@plt
 151      E7800000 
 152              	.LVL16:
  24:test/SetMaximumThread.cpp ****     for(int i=0;i<20;i++){
 153              		.loc 1 24 5 is_stmt 1
 154 00fc 9B841400 		addiw	s1,s1,1
 155              	.LVL17:
 156 0100 6FF05FFD 		j	.L7
 157              	.LVL18:
 158              	.L6:
 159              	.LBE4:
  26:test/SetMaximumThread.cpp ****     }
  27:test/SetMaximumThread.cpp **** 
  28:test/SetMaximumThread.cpp ****     thread_dispatch();
 160              		.loc 1 28 5
 161              		.loc 1 28 20 is_stmt 0
 162 0104 97000000 		call	_Z15thread_dispatchv@plt
 162      E7800000 
 163              	.LVL19:
 164              	.LBB5:
  29:test/SetMaximumThread.cpp ****     for(int i=0;i<20;i++)
 165              		.loc 1 29 13
 166 010c 93040000 		li	s1,0
 167              	.LVL20:
 168 0110 6F008001 		j	.L9
 169              	.LVL21:
 170              	.L11:
  30:test/SetMaximumThread.cpp ****         sem_wait(globSem);
 171              		.loc 1 30 9 is_stmt 1
 172              		.loc 1 30 17 is_stmt 0
 173 0114 17050000 		ld	a0,.LANCHOR0
 173      03350500 
 174 011c 97000000 		call	_Z8sem_waitP3Sem@plt
 174      E7800000 
GAS LISTING /tmp/cczCQNHn.s 			page 5


 175              	.LVL22:
  29:test/SetMaximumThread.cpp ****     for(int i=0;i<20;i++)
 176              		.loc 1 29 5 is_stmt 1
 177 0124 9B841400 		addiw	s1,s1,1
 178              	.LVL23:
 179              	.L9:
  29:test/SetMaximumThread.cpp ****     for(int i=0;i<20;i++)
 180              		.loc 1 29 18 discriminator 1
 181 0128 93073001 		li	a5,19
 182 012c E3D497FE 		ble	s1,a5,.L11
 183              	.LBE5:
  31:test/SetMaximumThread.cpp **** 
  32:test/SetMaximumThread.cpp ****     printString("E zavrsio zadatak!\n");
 184              		.loc 1 32 5
 185              		.loc 1 32 16 is_stmt 0
 186 0130 17050000 		lla	a0,.LC2
 186      13050500 
 187 0138 97000000 		call	_Z11printStringPKc@plt
 187      E7800000 
 188              	.LVL24:
  33:test/SetMaximumThread.cpp ****     sem_close(globSem);
 189              		.loc 1 33 5 is_stmt 1
 190              		.loc 1 33 14 is_stmt 0
 191 0140 17050000 		ld	a0,.LANCHOR0
 191      03350500 
 192 0148 97000000 		call	_Z9sem_closeP3Sem@plt
 192      E7800000 
 193              	.LVL25:
  34:test/SetMaximumThread.cpp **** }...
 194              		.loc 1 34 1
 195 0150 8330810B 		ld	ra,184(sp)
 196              		.cfi_restore 1
 197 0154 0334010B 		ld	s0,176(sp)
 198              		.cfi_restore 8
 199              		.cfi_def_cfa 2, 192
 200 0158 8334810A 		ld	s1,168(sp)
 201              		.cfi_restore 9
 202              	.LVL26:
 203 015c 1301010C 		addi	sp,sp,192
 204              		.cfi_def_cfa_offset 0
 205 0160 67800000 		jr	ra
 206              		.cfi_endproc
 207              	.LFE21:
 209              		.globl	globSem
 210              		.bss
 211              		.align	3
 212              		.set	.LANCHOR0,. + 0
 215              	globSem:
 216 0000 00000000 		.zero	8
 216      00000000 
 217              		.text
 218              	.Letext0:
 219              		.file 2 "test/../h/../lib/hw.h"
 220              		.file 3 "test/../h/queue.hpp"
 221              		.file 4 "test/../h/tcb.hpp"
 222              		.file 5 "test/../h/syscall_cpp.hpp"
 223              		.file 6 "test/../h/sem.hpp"
GAS LISTING /tmp/cczCQNHn.s 			page 6


 224              		.file 7 "test/../h/syscall_c.hpp"
 225              		.file 8 "test/printing.hpp"
GAS LISTING /tmp/cczCQNHn.s 			page 7

