GAS LISTING /tmp/ccAoNpST.s 			page 1


   1              		.file	"ThreadSleep_C_API_test.cpp"
   2              		.option pic
   3              		.option norelax
   4              		.text
   5              	.Ltext0:
   6              		.section	.rodata.str1.8,"aMS",@progbits,1
   7              		.align	3
   8              	.LC0:
   9 0000 48656C6C 		.string	"Hello "
   9      6F2000
  10 0007 00       		.align	3
  11              	.LC1:
  12 0008 20210A00 		.string	" !\n"
  13              		.text
  14              		.align	2
  16              	_ZL9sleepyRunPv:
  17              	.LFB20:
  18              		.file 1 "test/ThreadSleep_C_API_test.cpp"
   1:test/ThreadSleep_C_API_test.cpp **** #include "../h/syscall_c.hpp"
   2:test/ThreadSleep_C_API_test.cpp **** 
   3:test/ThreadSleep_C_API_test.cpp **** #include "printing.hpp"
   4:test/ThreadSleep_C_API_test.cpp **** 
   5:test/ThreadSleep_C_API_test.cpp **** static volatile bool finished[2];
   6:test/ThreadSleep_C_API_test.cpp **** 
   7:test/ThreadSleep_C_API_test.cpp **** static void sleepyRun(void *arg) {
  19              		.loc 1 7 34
  20              		.cfi_startproc
  21              	.LVL0:
  22 0000 130101FE 		addi	sp,sp,-32
  23              		.cfi_def_cfa_offset 32
  24 0004 233C1100 		sd	ra,24(sp)
  25 0008 23388100 		sd	s0,16(sp)
  26 000c 23349100 		sd	s1,8(sp)
  27 0010 23302101 		sd	s2,0(sp)
  28              		.cfi_offset 1, -8
  29              		.cfi_offset 8, -16
  30              		.cfi_offset 9, -24
  31              		.cfi_offset 18, -32
  32 0014 13040102 		addi	s0,sp,32
  33              		.cfi_def_cfa 8, 0
   8:test/ThreadSleep_C_API_test.cpp ****     time_t sleep_time = *((time_t *) arg);
  34              		.loc 1 8 5
  35              		.loc 1 8 12 is_stmt 0
  36 0018 03390500 		ld	s2,0(a0)
  37              	.LVL1:
   9:test/ThreadSleep_C_API_test.cpp ****     int i = 6;
  38              		.loc 1 9 5 is_stmt 1
  39              		.loc 1 9 9 is_stmt 0
  40 001c 93046000 		li	s1,6
  41              	.LVL2:
  42              	.L3:
  10:test/ThreadSleep_C_API_test.cpp ****     while (--i > 0) {
  43              		.loc 1 10 5 is_stmt 1
  44              		.loc 1 10 16
  45 0020 9B84F4FF 		addiw	s1,s1,-1
  46              	.LVL3:
  47 0024 63549004 		blez	s1,.L2
GAS LISTING /tmp/ccAoNpST.s 			page 2


  11:test/ThreadSleep_C_API_test.cpp **** 
  12:test/ThreadSleep_C_API_test.cpp ****         printString("Hello ");
  48              		.loc 1 12 9
  49              		.loc 1 12 20 is_stmt 0
  50 0028 17050000 		lla	a0,.LC0
  50      13050500 
  51 0030 97000000 		call	_Z11printStringPKc@plt
  51      E7800000 
  52              	.LVL4:
  13:test/ThreadSleep_C_API_test.cpp ****         printInt(sleep_time);
  53              		.loc 1 13 9 is_stmt 1
  54              		.loc 1 13 17 is_stmt 0
  55 0038 13060000 		li	a2,0
  56 003c 9305A000 		li	a1,10
  57 0040 1B050900 		sext.w	a0,s2
  58 0044 97000000 		call	_Z8printIntiii@plt
  58      E7800000 
  59              	.LVL5:
  14:test/ThreadSleep_C_API_test.cpp ****         printString(" !\n");
  60              		.loc 1 14 9 is_stmt 1
  61              		.loc 1 14 20 is_stmt 0
  62 004c 17050000 		lla	a0,.LC1
  62      13050500 
  63 0054 97000000 		call	_Z11printStringPKc@plt
  63      E7800000 
  64              	.LVL6:
  15:test/ThreadSleep_C_API_test.cpp ****         time_sleep(sleep_time);
  65              		.loc 1 15 9 is_stmt 1
  66              		.loc 1 15 19 is_stmt 0
  67 005c 13050900 		mv	a0,s2
  68 0060 97000000 		call	_Z10time_sleepm@plt
  68      E7800000 
  69              	.LVL7:
  10:test/ThreadSleep_C_API_test.cpp **** 
  70              		.loc 1 10 5
  71 0068 6FF09FFB 		j	.L3
  72              	.L2:
  16:test/ThreadSleep_C_API_test.cpp ****     }
  17:test/ThreadSleep_C_API_test.cpp ****     finished[sleep_time/10-1] = true;
  73              		.loc 1 17 5 is_stmt 1
  74              		.loc 1 17 24 is_stmt 0
  75 006c 9307A000 		li	a5,10
  76 0070 3359F902 		divu	s2,s2,a5
  77              	.LVL8:
  78              		.loc 1 17 27
  79 0074 1309F9FF 		addi	s2,s2,-1
  80              		.loc 1 17 31
  81 0078 97070000 		lla	a5,.LANCHOR0
  81      93870700 
  82 0080 33892701 		add	s2,a5,s2
  83 0084 93071000 		li	a5,1
  84 0088 2300F900 		sb	a5,0(s2)
  18:test/ThreadSleep_C_API_test.cpp **** }
  85              		.loc 1 18 1
  86 008c 83308101 		ld	ra,24(sp)
  87              		.cfi_restore 1
  88 0090 03340101 		ld	s0,16(sp)
GAS LISTING /tmp/ccAoNpST.s 			page 3


  89              		.cfi_restore 8
  90              		.cfi_def_cfa 2, 32
  91 0094 83348100 		ld	s1,8(sp)
  92              		.cfi_restore 9
  93 0098 03390100 		ld	s2,0(sp)
  94              		.cfi_restore 18
  95 009c 13010102 		addi	sp,sp,32
  96              		.cfi_def_cfa_offset 0
  97 00a0 67800000 		jr	ra
  98              		.cfi_endproc
  99              	.LFE20:
 101              		.align	2
 102              		.globl	_Z12testSleepingv
 104              	_Z12testSleepingv:
 105              	.LFB21:
  19:test/ThreadSleep_C_API_test.cpp **** 
  20:test/ThreadSleep_C_API_test.cpp **** void testSleeping() {
 106              		.loc 1 20 21 is_stmt 1
 107              		.cfi_startproc
 108 00a4 130101FC 		addi	sp,sp,-64
 109              		.cfi_def_cfa_offset 64
 110 00a8 233C1102 		sd	ra,56(sp)
 111 00ac 23388102 		sd	s0,48(sp)
 112 00b0 23349102 		sd	s1,40(sp)
 113              		.cfi_offset 1, -8
 114              		.cfi_offset 8, -16
 115              		.cfi_offset 9, -24
 116 00b4 13040104 		addi	s0,sp,64
 117              		.cfi_def_cfa 8, 0
  21:test/ThreadSleep_C_API_test.cpp ****     const int sleepy_thread_count = 2;
 118              		.loc 1 21 5
 119              	.LVL9:
  22:test/ThreadSleep_C_API_test.cpp ****     time_t sleep_times[sleepy_thread_count] = {10, 20};
 120              		.loc 1 22 5
 121              		.loc 1 22 12 is_stmt 0
 122 00b8 9307A000 		li	a5,10
 123 00bc 2338F4FC 		sd	a5,-48(s0)
 124 00c0 93074001 		li	a5,20
 125 00c4 233CF4FC 		sd	a5,-40(s0)
  23:test/ThreadSleep_C_API_test.cpp ****     thread_t sleepyThread[sleepy_thread_count];
 126              		.loc 1 23 5 is_stmt 1
  24:test/ThreadSleep_C_API_test.cpp **** 
  25:test/ThreadSleep_C_API_test.cpp ****     for (int i = 0; i < sleepy_thread_count; i++) {
 127              		.loc 1 25 5
 128              	.LVL10:
 129              	.LBB2:
 130              		.loc 1 25 14 is_stmt 0
 131 00c8 93040000 		li	s1,0
 132 00cc 6F00C002 		j	.L7
 133              	.LVL11:
 134              	.L10:
  26:test/ThreadSleep_C_API_test.cpp ****         thread_create(&sleepyThread[i], sleepyRun, sleep_times + i);
 135              		.loc 1 26 9 is_stmt 1
 136              		.loc 1 26 64 is_stmt 0
 137 00d0 93973400 		slli	a5,s1,3
 138              		.loc 1 26 22
 139 00d4 130604FD 		addi	a2,s0,-48
GAS LISTING /tmp/ccAoNpST.s 			page 4


 140 00d8 3306F600 		add	a2,a2,a5
 141 00dc 97050000 		lla	a1,_ZL9sleepyRunPv
 141      93850500 
 142 00e4 130504FC 		addi	a0,s0,-64
 143 00e8 3305F500 		add	a0,a0,a5
 144 00ec 97000000 		call	_Z13thread_createPP3TCBPFvPvES2_@plt
 144      E7800000 
 145              	.LVL12:
  25:test/ThreadSleep_C_API_test.cpp ****         thread_create(&sleepyThread[i], sleepyRun, sleep_times + i);
 146              		.loc 1 25 5 is_stmt 1
 147 00f4 9B841400 		addiw	s1,s1,1
 148              	.LVL13:
 149              	.L7:
  25:test/ThreadSleep_C_API_test.cpp ****         thread_create(&sleepyThread[i], sleepyRun, sleep_times + i);
 150              		.loc 1 25 23 discriminator 1
 151 00f8 93071000 		li	a5,1
 152 00fc E3DA97FC 		ble	s1,a5,.L10
 153              	.L8:
 154              	.LBE2:
  27:test/ThreadSleep_C_API_test.cpp ****     }
  28:test/ThreadSleep_C_API_test.cpp **** 
  29:test/ThreadSleep_C_API_test.cpp ****     while (!(finished[0] && finished[1])) {}
 155              		.loc 1 29 5
 156              		.loc 1 29 12
 157              		.loc 1 29 24 is_stmt 0
 158 0100 97070000 		lbu	a5,.LANCHOR0
 158      83C70700 
 159              		.loc 1 29 12
 160 0108 E38C07FE 		beqz	a5,.L8
 161              		.loc 1 29 39 discriminator 2
 162 010c 97070000 		lbu	a5,.LANCHOR0+1
 162      83C70700 
 163              		.loc 1 29 12 discriminator 2
 164 0114 E38607FE 		beqz	a5,.L8
  30:test/ThreadSleep_C_API_test.cpp **** }
 165              		.loc 1 30 1
 166 0118 83308103 		ld	ra,56(sp)
 167              		.cfi_restore 1
 168 011c 03340103 		ld	s0,48(sp)
 169              		.cfi_restore 8
 170              		.cfi_def_cfa 2, 64
 171 0120 83348102 		ld	s1,40(sp)
 172              		.cfi_restore 9
 173              	.LVL14:
 174 0124 13010104 		addi	sp,sp,64
 175              		.cfi_def_cfa_offset 0
 176 0128 67800000 		jr	ra
 177              		.cfi_endproc
 178              	.LFE21:
 180              		.bss
 181              		.align	3
 182              		.set	.LANCHOR0,. + 0
 185              	_ZL8finished:
 186 0000 0000     		.zero	2
 187              		.text
 188              	.Letext0:
 189              		.file 2 "test/../h/../lib/hw.h"
GAS LISTING /tmp/ccAoNpST.s 			page 5


 190              		.file 3 "test/../h/tcb.hpp"
 191              		.file 4 "test/../h/syscall_c.hpp"
 192              		.file 5 "test/printing.hpp"
GAS LISTING /tmp/ccAoNpST.s 			page 6


DEFINED SYMBOLS
                            *ABS*:0000000000000000 ThreadSleep_C_API_test.cpp
     /tmp/ccAoNpST.s:16     .text:0000000000000000 _ZL9sleepyRunPv
     /tmp/ccAoNpST.s:20     .text:0000000000000000 .L0 
     /tmp/ccAoNpST.s:22     .text:0000000000000000 .L0 
     /tmp/ccAoNpST.s:23     .text:0000000000000004 .L0 
     /tmp/ccAoNpST.s:28     .text:0000000000000014 .L0 
     /tmp/ccAoNpST.s:29     .text:0000000000000014 .L0 
     /tmp/ccAoNpST.s:30     .text:0000000000000014 .L0 
     /tmp/ccAoNpST.s:31     .text:0000000000000014 .L0 
     /tmp/ccAoNpST.s:33     .text:0000000000000018 .L0 
     /tmp/ccAoNpST.s:35     .text:0000000000000018 .L0 
     /tmp/ccAoNpST.s:36     .text:0000000000000018 .L0 
     /tmp/ccAoNpST.s:39     .text:000000000000001c .L0 
     /tmp/ccAoNpST.s:40     .text:000000000000001c .L0 
     /tmp/ccAoNpST.s:44     .text:0000000000000020 .L0 
     /tmp/ccAoNpST.s:45     .text:0000000000000020 .L0 
     /tmp/ccAoNpST.s:49     .text:0000000000000028 .L0 
     /tmp/ccAoNpST.s:50     .text:0000000000000028 .L0 
     /tmp/ccAoNpST.s:54     .text:0000000000000038 .L0 
     /tmp/ccAoNpST.s:55     .text:0000000000000038 .L0 
     /tmp/ccAoNpST.s:61     .text:000000000000004c .L0 
     /tmp/ccAoNpST.s:62     .text:000000000000004c .L0 
     /tmp/ccAoNpST.s:66     .text:000000000000005c .L0 
     /tmp/ccAoNpST.s:67     .text:000000000000005c .L0 
     /tmp/ccAoNpST.s:71     .text:0000000000000068 .L0 
     /tmp/ccAoNpST.s:74     .text:000000000000006c .L0 
     /tmp/ccAoNpST.s:75     .text:000000000000006c .L0 
     /tmp/ccAoNpST.s:79     .text:0000000000000074 .L0 
     /tmp/ccAoNpST.s:81     .text:0000000000000078 .L0 
     /tmp/ccAoNpST.s:86     .text:000000000000008c .L0 
     /tmp/ccAoNpST.s:87     .text:0000000000000090 .L0 
     /tmp/ccAoNpST.s:89     .text:0000000000000094 .L0 
     /tmp/ccAoNpST.s:90     .text:0000000000000094 .L0 
     /tmp/ccAoNpST.s:92     .text:0000000000000098 .L0 
     /tmp/ccAoNpST.s:94     .text:000000000000009c .L0 
     /tmp/ccAoNpST.s:96     .text:00000000000000a0 .L0 
     /tmp/ccAoNpST.s:98     .text:00000000000000a4 .L0 
     /tmp/ccAoNpST.s:104    .text:00000000000000a4 _Z12testSleepingv
     /tmp/ccAoNpST.s:107    .text:00000000000000a4 .L0 
     /tmp/ccAoNpST.s:108    .text:00000000000000a4 .L0 
     /tmp/ccAoNpST.s:109    .text:00000000000000a8 .L0 
     /tmp/ccAoNpST.s:113    .text:00000000000000b4 .L0 
     /tmp/ccAoNpST.s:114    .text:00000000000000b4 .L0 
     /tmp/ccAoNpST.s:115    .text:00000000000000b4 .L0 
     /tmp/ccAoNpST.s:117    .text:00000000000000b8 .L0 
     /tmp/ccAoNpST.s:120    .text:00000000000000b8 .L0 
     /tmp/ccAoNpST.s:121    .text:00000000000000b8 .L0 
     /tmp/ccAoNpST.s:122    .text:00000000000000b8 .L0 
     /tmp/ccAoNpST.s:127    .text:00000000000000c8 .L0 
     /tmp/ccAoNpST.s:130    .text:00000000000000c8 .L0 
     /tmp/ccAoNpST.s:131    .text:00000000000000c8 .L0 
     /tmp/ccAoNpST.s:136    .text:00000000000000d0 .L0 
     /tmp/ccAoNpST.s:137    .text:00000000000000d0 .L0 
     /tmp/ccAoNpST.s:139    .text:00000000000000d4 .L0 
     /tmp/ccAoNpST.s:147    .text:00000000000000f4 .L0 
     /tmp/ccAoNpST.s:151    .text:00000000000000f8 .L0 
GAS LISTING /tmp/ccAoNpST.s 			page 7


     /tmp/ccAoNpST.s:156    .text:0000000000000100 .L0 
     /tmp/ccAoNpST.s:157    .text:0000000000000100 .L0 
     /tmp/ccAoNpST.s:158    .text:0000000000000100 .L0 
     /tmp/ccAoNpST.s:160    .text:0000000000000108 .L0 
     /tmp/ccAoNpST.s:162    .text:000000000000010c .L0 
     /tmp/ccAoNpST.s:164    .text:0000000000000114 .L0 
     /tmp/ccAoNpST.s:166    .text:0000000000000118 .L0 
     /tmp/ccAoNpST.s:167    .text:000000000000011c .L0 
     /tmp/ccAoNpST.s:169    .text:0000000000000120 .L0 
     /tmp/ccAoNpST.s:170    .text:0000000000000120 .L0 
     /tmp/ccAoNpST.s:172    .text:0000000000000124 .L0 
     /tmp/ccAoNpST.s:175    .text:0000000000000128 .L0 
     /tmp/ccAoNpST.s:177    .text:000000000000012c .L0 
     /tmp/ccAoNpST.s:182    .bss:0000000000000000 .LANCHOR0
     /tmp/ccAoNpST.s:185    .bss:0000000000000000 _ZL8finished
     /tmp/ccAoNpST.s:193    .text:000000000000012c .L0 
     /tmp/ccAoNpST.s:8      .rodata.str1.8:0000000000000000 .LC0
     /tmp/ccAoNpST.s:50     .text:0000000000000028 .L0 
     /tmp/ccAoNpST.s:11     .rodata.str1.8:0000000000000008 .LC1
     /tmp/ccAoNpST.s:62     .text:000000000000004c .L0 
     /tmp/ccAoNpST.s:81     .text:0000000000000078 .L0 
     /tmp/ccAoNpST.s:141    .text:00000000000000dc .L0 
     /tmp/ccAoNpST.s:158    .text:0000000000000100 .L0 
     /tmp/ccAoNpST.s:162    .text:000000000000010c .L0 
     /tmp/ccAoNpST.s:72     .text:000000000000006c .L2
     /tmp/ccAoNpST.s:42     .text:0000000000000020 .L3
     /tmp/ccAoNpST.s:149    .text:00000000000000f8 .L7
     /tmp/ccAoNpST.s:134    .text:00000000000000d0 .L10
     /tmp/ccAoNpST.s:153    .text:0000000000000100 .L8
     /tmp/ccAoNpST.s:1014   .debug_abbrev:0000000000000000 .Ldebug_abbrev0
     /tmp/ccAoNpST.s:2042   .debug_str:00000000000004f5 .LASF84
     /tmp/ccAoNpST.s:1948   .debug_str:00000000000001f4 .LASF85
     /tmp/ccAoNpST.s:2012   .debug_str:00000000000003eb .LASF86
     /tmp/ccAoNpST.s:5      .text:0000000000000000 .Ltext0
     /tmp/ccAoNpST.s:188    .text:000000000000012c .Letext0
     /tmp/ccAoNpST.s:1872   .debug_line:0000000000000000 .Ldebug_line0
     /tmp/ccAoNpST.s:1992   .debug_str:0000000000000355 .LASF0
     /tmp/ccAoNpST.s:2002   .debug_str:000000000000038a .LASF1
     /tmp/ccAoNpST.s:1982   .debug_str:0000000000000305 .LASF2
     /tmp/ccAoNpST.s:1954   .debug_str:0000000000000253 .LASF4
     /tmp/ccAoNpST.s:2030   .debug_str:0000000000000475 .LASF3
     /tmp/ccAoNpST.s:1898   .debug_str:00000000000000b3 .LASF5
     /tmp/ccAoNpST.s:1918   .debug_str:0000000000000146 .LASF6
     /tmp/ccAoNpST.s:2008   .debug_str:00000000000003cd .LASF7
     /tmp/ccAoNpST.s:1990   .debug_str:0000000000000342 .LASF8
     /tmp/ccAoNpST.s:2056   .debug_str:000000000000061b .LASF9
     /tmp/ccAoNpST.s:1940   .debug_str:00000000000001bb .LASF10
     /tmp/ccAoNpST.s:2014   .debug_str:000000000000040b .LASF11
     /tmp/ccAoNpST.s:2044   .debug_str:00000000000005b9 .LASF12
     /tmp/ccAoNpST.s:1900   .debug_str:00000000000000ba .LASF13
     /tmp/ccAoNpST.s:1882   .debug_str:0000000000000037 .LASF14
     /tmp/ccAoNpST.s:1902   .debug_str:00000000000000ca .LASF15
     /tmp/ccAoNpST.s:2026   .debug_str:0000000000000454 .LASF16
     /tmp/ccAoNpST.s:1914   .debug_str:0000000000000122 .LASF17
     /tmp/ccAoNpST.s:1888   .debug_str:000000000000006b .LASF87
     /tmp/ccAoNpST.s:1922   .debug_str:0000000000000154 .LASF18
     /tmp/ccAoNpST.s:2022   .debug_str:0000000000000443 .LASF20
GAS LISTING /tmp/ccAoNpST.s 			page 8


     /tmp/ccAoNpST.s:2010   .debug_str:00000000000003e0 .LASF22
     /tmp/ccAoNpST.s:1938   .debug_str:00000000000001a4 .LASF24
     /tmp/ccAoNpST.s:1984   .debug_str:0000000000000313 .LASF19
     /tmp/ccAoNpST.s:1950   .debug_str:0000000000000214 .LASF21
     /tmp/ccAoNpST.s:1924   .debug_str:0000000000000159 .LASF23
     /tmp/ccAoNpST.s:1988   .debug_str:000000000000032a .LASF25
     /tmp/ccAoNpST.s:2016   .debug_str:000000000000041a .LASF26
     /tmp/ccAoNpST.s:2034   .debug_str:0000000000000498 .LASF27
     /tmp/ccAoNpST.s:1894   .debug_str:000000000000008b .LASF28
     /tmp/ccAoNpST.s:1884   .debug_str:0000000000000047 .LASF29
     /tmp/ccAoNpST.s:1886   .debug_str:0000000000000061 .LASF30
     /tmp/ccAoNpST.s:1968   .debug_str:000000000000029a .LASF31
     /tmp/ccAoNpST.s:1956   .debug_str:000000000000025a .LASF32
     /tmp/ccAoNpST.s:2050   .debug_str:00000000000005e1 .LASF33
     /tmp/ccAoNpST.s:1978   .debug_str:00000000000002db .LASF34
     /tmp/ccAoNpST.s:1896   .debug_str:000000000000009a .LASF35
     /tmp/ccAoNpST.s:1996   .debug_str:000000000000036e .LASF42
     /tmp/ccAoNpST.s:1930   .debug_str:0000000000000177 .LASF44
     /tmp/ccAoNpST.s:1890   .debug_str:0000000000000073 .LASF38
     /tmp/ccAoNpST.s:1910   .debug_str:0000000000000103 .LASF40
     /tmp/ccAoNpST.s:2040   .debug_str:00000000000004e9 .LASF46
     /tmp/ccAoNpST.s:2062   .debug_str:0000000000000644 .LASF48
     /tmp/ccAoNpST.s:1964   .debug_str:000000000000027b .LASF36
     /tmp/ccAoNpST.s:2036   .debug_str:00000000000004b0 .LASF37
     /tmp/ccAoNpST.s:2024   .debug_str:000000000000044f .LASF88
     /tmp/ccAoNpST.s:1936   .debug_str:0000000000000198 .LASF39
     /tmp/ccAoNpST.s:1878   .debug_str:0000000000000011 .LASF41
     /tmp/ccAoNpST.s:1912   .debug_str:000000000000011a .LASF43
     /tmp/ccAoNpST.s:2054   .debug_str:0000000000000609 .LASF45
     /tmp/ccAoNpST.s:2052   .debug_str:00000000000005f7 .LASF47
     /tmp/ccAoNpST.s:1980   .debug_str:00000000000002e8 .LASF49
     /tmp/ccAoNpST.s:1926   .debug_str:0000000000000165 .LASF50
     /tmp/ccAoNpST.s:2048   .debug_str:00000000000005d3 .LASF51
     /tmp/ccAoNpST.s:1908   .debug_str:00000000000000e9 .LASF89
     /tmp/ccAoNpST.s:1960   .debug_str:000000000000026e .LASF52
     /tmp/ccAoNpST.s:1906   .debug_str:00000000000000e3 .LASF53
     /tmp/ccAoNpST.s:1962   .debug_str:0000000000000273 .LASF54
     /tmp/ccAoNpST.s:2000   .debug_str:0000000000000380 .LASF55
     /tmp/ccAoNpST.s:1958   .debug_str:0000000000000265 .LASF56
     /tmp/ccAoNpST.s:1986   .debug_str:000000000000031f .LASF57
     /tmp/ccAoNpST.s:1876   .debug_str:0000000000000009 .LASF58
     /tmp/ccAoNpST.s:1998   .debug_str:0000000000000377 .LASF59
     /tmp/ccAoNpST.s:1920   .debug_str:000000000000014d .LASF60
     /tmp/ccAoNpST.s:2038   .debug_str:00000000000004d6 .LASF61
     /tmp/ccAoNpST.s:1880   .debug_str:0000000000000028 .LASF62
     /tmp/ccAoNpST.s:1994   .debug_str:0000000000000362 .LASF63
     /tmp/ccAoNpST.s:1976   .debug_str:00000000000002d2 .LASF64
     /tmp/ccAoNpST.s:1972   .debug_str:00000000000002ba .LASF90
     /tmp/ccAoNpST.s:1944   .debug_str:00000000000001d6 .LASF91
     /tmp/ccAoNpST.s:2058   .debug_str:000000000000062b .LASF92
     /tmp/ccAoNpST.s:1952   .debug_str:000000000000022b .LASF93
     /tmp/ccAoNpST.s:2032   .debug_str:0000000000000487 .LASF94
     /tmp/ccAoNpST.s:2060   .debug_str:0000000000000639 .LASF65
     /tmp/ccAoNpST.s:1970   .debug_str:00000000000002af .LASF66
     /tmp/ccAoNpST.s:1946   .debug_str:00000000000001ef .LASF67
     /tmp/ccAoNpST.s:1932   .debug_str:000000000000018a .LASF68
     /tmp/ccAoNpST.s:1974   .debug_str:00000000000002c8 .LASF95
GAS LISTING /tmp/ccAoNpST.s 			page 9


     /tmp/ccAoNpST.s:1874   .debug_str:0000000000000000 .LASF69
     /tmp/ccAoNpST.s:1942   .debug_str:00000000000001c9 .LASF70
     /tmp/ccAoNpST.s:1966   .debug_str:0000000000000288 .LASF71
     /tmp/ccAoNpST.s:105    .text:00000000000000a4 .LFB21
     /tmp/ccAoNpST.s:178    .text:000000000000012c .LFE21
     /tmp/ccAoNpST.s:2066   .debug_str:0000000000000670 .LASF72
     /tmp/ccAoNpST.s:1892   .debug_str:000000000000007f .LASF73
     /tmp/ccAoNpST.s:1904   .debug_str:00000000000000d6 .LASF74
     /tmp/ccAoNpST.s:129    .text:00000000000000c8 .LBB2
     /tmp/ccAoNpST.s:154    .text:0000000000000100 .LBE2
     /tmp/ccAoNpST.s:1814   .debug_loc:0000000000000000 .LLST3
     /tmp/ccAoNpST.s:145    .text:00000000000000f4 .LVL12
     /tmp/ccAoNpST.s:1928   .debug_str:000000000000016d .LASF96
     /tmp/ccAoNpST.s:17     .text:0000000000000000 .LFB20
     /tmp/ccAoNpST.s:99     .text:00000000000000a4 .LFE20
     /tmp/ccAoNpST.s:1826   .debug_loc:0000000000000037 .LLST0
     /tmp/ccAoNpST.s:2046   .debug_str:00000000000005c8 .LASF75
     /tmp/ccAoNpST.s:1840   .debug_loc:0000000000000070 .LLST1
     /tmp/ccAoNpST.s:1847   .debug_loc:0000000000000093 .LLST2
     /tmp/ccAoNpST.s:52     .text:0000000000000038 .LVL4
     /tmp/ccAoNpST.s:59     .text:000000000000004c .LVL5
     /tmp/ccAoNpST.s:64     .text:000000000000005c .LVL6
     /tmp/ccAoNpST.s:69     .text:0000000000000068 .LVL7
     /tmp/ccAoNpST.s:2006   .debug_str:00000000000003ac .LASF76
     /tmp/ccAoNpST.s:1916   .debug_str:0000000000000138 .LASF78
     /tmp/ccAoNpST.s:2064   .debug_str:000000000000065d .LASF77
     /tmp/ccAoNpST.s:2018   .debug_str:0000000000000427 .LASF79
     /tmp/ccAoNpST.s:2004   .debug_str:000000000000039d .LASF80
     /tmp/ccAoNpST.s:1934   .debug_str:000000000000018f .LASF81
     /tmp/ccAoNpST.s:2020   .debug_str:0000000000000433 .LASF82
     /tmp/ccAoNpST.s:2028   .debug_str:000000000000046a .LASF83
     /tmp/ccAoNpST.s:128    .text:00000000000000c8 .LVL10
     /tmp/ccAoNpST.s:133    .text:00000000000000d0 .LVL11
     /tmp/ccAoNpST.s:173    .text:0000000000000124 .LVL14
     /tmp/ccAoNpST.s:21     .text:0000000000000000 .LVL0
     /tmp/ccAoNpST.s:41     .text:0000000000000020 .LVL2
     /tmp/ccAoNpST.s:37     .text:000000000000001c .LVL1
     /tmp/ccAoNpST.s:77     .text:0000000000000074 .LVL8
     /tmp/ccAoNpST.s:46     .text:0000000000000024 .LVL3
     /tmp/ccAoNpST.s:194    .debug_info:0000000000000000 .Ldebug_info0

UNDEFINED SYMBOLS
_Z11printStringPKc
_Z8printIntiii
_Z10time_sleepm
_Z13thread_createPP3TCBPFvPvES2_
