GAS LISTING /tmp/ccsueqqw.s 			page 1


   1              		.file	"userMain.cpp"
   2              		.option pic
   3              		.option norelax
   4              		.text
   5              	.Ltext0:
   6              		.section	.rodata.str1.8,"aMS",@progbits,1
   7              		.align	3
   8              	.LC0:
   9 0000 556E6573 		.string	"Unesite broj testa? [1-14]\n"
   9      69746520 
   9      62726F6A 
   9      20746573 
   9      74613F20 
  10 001c 00000000 		.align	3
  11              	.LC1:
  12 0020 4E696A65 		.string	"Nije navedeno da je zadatak 4 implementiran\n"
  12      206E6176 
  12      6564656E 
  12      6F206461 
  12      206A6520 
  13 004d 000000   		.align	3
  14              	.LC2:
  15 0050 54455354 		.string	"TEST 1 (zadatak 2, niti C API i sinhrona promena konteksta)\n"
  15      20312028 
  15      7A616461 
  15      74616B20 
  15      322C206E 
  16 008d 000000   		.align	3
  17              	.LC3:
  18 0090 54455354 		.string	"TEST 2 (zadatak 2., niti CPP API i sinhrona promena konteksta)\n"
  18      20322028 
  18      7A616461 
  18      74616B20 
  18      322E2C20 
  19              		.align	3
  20              	.LC4:
  21 00d0 54455354 		.string	"TEST 3 (zadatak 3., kompletan C API sa semaforima, sinhrona promena konteksta)\n"
  21      20332028 
  21      7A616461 
  21      74616B20 
  21      332E2C20 
  22              		.align	3
  23              	.LC5:
  24 0120 54455354 		.string	"TEST 4 (zadatak 3., kompletan CPP API sa semaforima, sinhrona promena konteksta)\n"
  24      20342028 
  24      7A616461 
  24      74616B20 
  24      332E2C20 
  25 0172 00000000 		.align	3
  25      0000
  26              	.LC6:
  27 0178 54657374 		.string	"Test se nije uspesno zavrsio\n"
  27      20736520 
  27      6E696A65 
  27      20757370 
  27      65736E6F 
  28 0196 0000     		.align	3
GAS LISTING /tmp/ccsueqqw.s 			page 2


  29              	.LC7:
  30 0198 54455354 		.string	"TEST 7 (zadatak 2., testiranje da li se korisnicki kod izvrsava u korisnickom rezimu)\n"
  30      20372028 
  30      7A616461 
  30      74616B20 
  30      322E2C20 
  31 01ef 00       		.align	3
  32              	.LC8:
  33 01f0 54455354 		.string	"TEST 5 getThreadId kompletan \n"
  33      20352067 
  33      65745468 
  33      72656164 
  33      4964206B 
  34 020f 00       		.align	3
  35              	.LC9:
  36 0210 54455354 		.string	"TEST 9 semMaxThread kompletan\n"
  36      20392073 
  36      656D4D61 
  36      78546872 
  36      65616420 
  37 022f 00       		.align	3
  38              	.LC10:
  39 0230 54455354 		.string	"TEST 10 joinAll kompletan\n"
  39      20313020 
  39      6A6F696E 
  39      416C6C20 
  39      6B6F6D70 
  40 024b 00000000 		.align	3
  40      00
  41              	.LC11:
  42 0250 54455354 		.string	"TEST 11 semPrior kompletan\n"
  42      20313120 
  42      73656D50 
  42      72696F72 
  42      206B6F6D 
  43 026c 00000000 		.align	3
  44              	.LC12:
  45 0270 54455354 		.string	"TEST 12 pingMod kompletan\n"
  45      20313220 
  45      70696E67 
  45      4D6F6420 
  45      6B6F6D70 
  46 028b 00000000 		.align	3
  46      00
  47              	.LC13:
  48 0290 54455354 		.string	"TEST 13 matricaMnozenje kompletan\n"
  48      20313320 
  48      6D617472 
  48      6963614D 
  48      6E6F7A65 
  49 02b3 00000000 		.align	3
  49      00
  50              	.LC14:
  51 02b8 54455354 		.string	"TEST 14 ownerModifikacija kompletna\n"
  51      20313420 
  51      6F776E65 
  51      724D6F64 
GAS LISTING /tmp/ccsueqqw.s 			page 3


  51      6966696B 
  52 02dd 000000   		.align	3
  53              	.LC15:
  54 02e0 4E697374 		.string	"Niste uneli odgovarajuci broj za test\n"
  54      6520756E 
  54      656C6920 
  54      6F64676F 
  54      76617261 
  55              		.text
  56              		.align	2
  57              		.globl	_Z8userMainv
  59              	_Z8userMainv:
  60              	.LFB20:
  61              		.file 1 "test/userMain.cpp"
   1:test/userMain.cpp **** #include "printing.hpp"
   2:test/userMain.cpp **** #include "userMain.hpp"
   3:test/userMain.cpp **** #define LEVEL_1_IMPLEMENTED 0
   4:test/userMain.cpp **** #define LEVEL_2_IMPLEMENTED 1
   5:test/userMain.cpp **** #define LEVEL_3_IMPLEMENTED 1
   6:test/userMain.cpp **** #define LEVEL_4_IMPLEMENTED 0
   7:test/userMain.cpp **** #define LEVEL_5_IMPLEMENTED 1
   8:test/userMain.cpp **** 
   9:test/userMain.cpp **** #if LEVEL_2_IMPLEMENTED == 1
  10:test/userMain.cpp **** // TEST 1 (zadatak 2, niti C API i sinhrona promena konteksta)
  11:test/userMain.cpp **** #include "../test/Threads_C_API_test.hpp"
  12:test/userMain.cpp **** // TEST 2 (zadatak 2., niti CPP API i sinhrona promena konteksta)
  13:test/userMain.cpp **** #include "../test/Threads_CPP_API_test.hpp"
  14:test/userMain.cpp **** // TEST 7 (zadatak 2., testiranje da li se korisnicki kod izvrsava u korisnickom rezimu)
  15:test/userMain.cpp **** #include "../test/System_Mode_test.hpp"
  16:test/userMain.cpp **** #endif
  17:test/userMain.cpp **** 
  18:test/userMain.cpp **** #if LEVEL_3_IMPLEMENTED == 1
  19:test/userMain.cpp **** // TEST 3 (zadatak 3., kompletan C API sa semaforima, sinhrona promena konteksta)
  20:test/userMain.cpp **** #include "../test/ConsumerProducer_C_API_test.hpp"
  21:test/userMain.cpp **** // TEST 4 (zadatak 3., kompletan CPP API sa semaforima, sinhrona promena konteksta)
  22:test/userMain.cpp **** #include "../test/ConsumerProducer_CPP_Sync_API_test.hpp"
  23:test/userMain.cpp **** #endif
  24:test/userMain.cpp **** 
  25:test/userMain.cpp **** #if LEVEL_4_IMPLEMENTED == 1
  26:test/userMain.cpp **** // TEST 5 (zadatak 4., thread_sleep test C API)
  27:test/userMain.cpp **** #include "../test/ThreadSleep_C_API_test.hpp"
  28:test/userMain.cpp **** // TEST 6 (zadatak 4. CPP API i asinhrona promena konteksta)
  29:test/userMain.cpp **** #include "../test/ConsumerProducer_CPP_API_test.hpp"
  30:test/userMain.cpp **** #include "System_Mode_test.hpp"
  31:test/userMain.cpp **** 
  32:test/userMain.cpp **** #endif
  33:test/userMain.cpp **** 
  34:test/userMain.cpp **** #if LEVEL_5_IMPLEMENTED == 1
  35:test/userMain.cpp **** // TEST 5 (zadatak 5., getThreadId());
  36:test/userMain.cpp **** #include "../test/getTreadIdModifikacija.hpp"
  37:test/userMain.cpp **** // TEST 6 (zadatak 6., SetMaximumThreads())
  38:test/userMain.cpp **** #include "../test/SetMaximumThread.hpp"
  39:test/userMain.cpp **** //test 10 joinAll
  40:test/userMain.cpp **** #include "joinAllModif.hpp"
  41:test/userMain.cpp **** //test 11 semPrior
  42:test/userMain.cpp **** #include "semPriorMod.hpp"
  43:test/userMain.cpp **** //test 12
GAS LISTING /tmp/ccsueqqw.s 			page 4


  44:test/userMain.cpp **** #include "pingModif.hpp"
  45:test/userMain.cpp **** //test 13
  46:test/userMain.cpp **** #include "matricaModif.hpp"
  47:test/userMain.cpp **** //test 14
  48:test/userMain.cpp **** #include "ownerModif.hpp"
  49:test/userMain.cpp **** #endif
  50:test/userMain.cpp **** 
  51:test/userMain.cpp **** 
  52:test/userMain.cpp **** void userMain() {
  62              		.loc 1 52 17
  63              		.cfi_startproc
  64 0000 130101FE 		addi	sp,sp,-32
  65              		.cfi_def_cfa_offset 32
  66 0004 233C1100 		sd	ra,24(sp)
  67 0008 23388100 		sd	s0,16(sp)
  68 000c 23349100 		sd	s1,8(sp)
  69              		.cfi_offset 1, -8
  70              		.cfi_offset 8, -16
  71              		.cfi_offset 9, -24
  72 0010 13040102 		addi	s0,sp,32
  73              		.cfi_def_cfa 8, 0
  53:test/userMain.cpp ****     printString("Unesite broj testa? [1-14]\n");
  74              		.loc 1 53 5
  75              		.loc 1 53 16 is_stmt 0
  76 0014 17050000 		lla	a0,.LC0
  76      13050500 
  77 001c 97000000 		call	_Z11printStringPKc@plt
  77      E7800000 
  78              	.LVL0:
  54:test/userMain.cpp ****     int test = 0;
  79              		.loc 1 54 5 is_stmt 1
  80              		.loc 1 54 9 is_stmt 0
  81 0024 93040000 		li	s1,0
  82              	.LVL1:
  83              	.L3:
  55:test/userMain.cpp ****     char c;
  84              		.loc 1 55 5 is_stmt 1
  56:test/userMain.cpp ****     while ((c = getc()) >= '0' && c <= '9') {
  85              		.loc 1 56 5
  86              		.loc 1 56 32
  87              		.loc 1 56 21 is_stmt 0
  88 0028 97000000 		call	_Z4getcv@plt
  88      E7800000 
  89              	.LVL2:
  90              		.loc 1 56 32
  91 0030 9307F002 		li	a5,47
  92 0034 63F2A702 		bleu	a0,a5,.L2
  93              		.loc 1 56 32 discriminator 1
  94 0038 93079003 		li	a5,57
  95 003c 63EEA700 		bgtu	a0,a5,.L2
  57:test/userMain.cpp ****         test *= 10;
  96              		.loc 1 57 9 is_stmt 1
  97              		.loc 1 57 14 is_stmt 0
  98 0040 9B972400 		slliw	a5,s1,2
  99 0044 BB849700 		addw	s1,a5,s1
 100              	.LVL3:
 101 0048 9B941400 		slliw	s1,s1,1
GAS LISTING /tmp/ccsueqqw.s 			page 5


 102              	.LVL4:
  58:test/userMain.cpp ****         test += c - '0';
 103              		.loc 1 58 9 is_stmt 1
 104              		.loc 1 58 19 is_stmt 0
 105 004c 1B0505FD 		addiw	a0,a0,-48
 106              	.LVL5:
 107              		.loc 1 58 14
 108 0050 BB049500 		addw	s1,a0,s1
 109              	.LVL6:
  56:test/userMain.cpp ****     while ((c = getc()) >= '0' && c <= '9') {
 110              		.loc 1 56 5
 111 0054 6FF05FFD 		j	.L3
 112              	.LVL7:
 113              	.L2:
  59:test/userMain.cpp ****     }
  60:test/userMain.cpp **** 
  61:test/userMain.cpp ****     if ((test >= 1 && test <= 2) || test == 7) {
 114              		.loc 1 61 5 is_stmt 1
  62:test/userMain.cpp ****         if (LEVEL_2_IMPLEMENTED == 0) {
  63:test/userMain.cpp ****             printString("Nije navedeno da je zadatak 2 implementiran\n");
  64:test/userMain.cpp ****             return;
  65:test/userMain.cpp ****         }
  66:test/userMain.cpp ****     }
  67:test/userMain.cpp **** 
  68:test/userMain.cpp ****     if (test >= 3 && test <= 4) {
 115              		.loc 1 68 5
  69:test/userMain.cpp ****         if (LEVEL_3_IMPLEMENTED == 0) {
  70:test/userMain.cpp ****             printString("Nije navedeno da je zadatak 3 implementiran\n");
  71:test/userMain.cpp ****             return;
  72:test/userMain.cpp ****         }
  73:test/userMain.cpp ****     }
  74:test/userMain.cpp **** 
  75:test/userMain.cpp ****     if (test >= 5 && test <= 6) {
 116              		.loc 1 75 5
 117              		.loc 1 75 19 is_stmt 0
 118 0058 9B87B4FF 		addiw	a5,s1,-5
 119              		.loc 1 75 5
 120 005c 13071000 		li	a4,1
 121 0060 6374F702 		bleu	a5,a4,.L21
  76:test/userMain.cpp ****         if (LEVEL_4_IMPLEMENTED == 0) {
  77:test/userMain.cpp ****             printString("Nije navedeno da je zadatak 4 implementiran\n");
  78:test/userMain.cpp ****             return;
  79:test/userMain.cpp ****         }
  80:test/userMain.cpp ****     }
  81:test/userMain.cpp **** 
  82:test/userMain.cpp ****     switch (test) {
 122              		.loc 1 82 5 is_stmt 1
 123 0064 9307E000 		li	a5,14
 124 0068 63E2971A 		bgtu	s1,a5,.L6
 125 006c 93942400 		slli	s1,s1,2
 126              	.LVL8:
 127 0070 17070000 		lla	a4,.L8
 127      13070700 
 128 0078 B384E400 		add	s1,s1,a4
 129 007c 83A70400 		lw	a5,0(s1)
 130 0080 B387E700 		add	a5,a5,a4
 131 0084 67800700 		jr	a5
GAS LISTING /tmp/ccsueqqw.s 			page 6


 132              		.section	.rodata
 133              		.align	2
 134              		.align	2
 135              	.L8:
 136 0000 00000000 		.word	.L6-.L8
 137 0004 00000000 		.word	.L19-.L8
 138 0008 00000000 		.word	.L18-.L8
 139 000c 00000000 		.word	.L17-.L8
 140 0010 00000000 		.word	.L16-.L8
 141 0014 00000000 		.word	.L1-.L8
 142 0018 00000000 		.word	.L1-.L8
 143 001c 00000000 		.word	.L15-.L8
 144 0020 00000000 		.word	.L14-.L8
 145 0024 00000000 		.word	.L13-.L8
 146 0028 00000000 		.word	.L12-.L8
 147 002c 00000000 		.word	.L11-.L8
 148 0030 00000000 		.word	.L10-.L8
 149 0034 00000000 		.word	.L9-.L8
 150 0038 00000000 		.word	.L7-.L8
 151              		.text
 152              	.LVL9:
 153              	.L21:
  76:test/userMain.cpp ****         if (LEVEL_4_IMPLEMENTED == 0) {
 154              		.loc 1 76 9
  77:test/userMain.cpp ****             return;
 155              		.loc 1 77 13
  77:test/userMain.cpp ****             return;
 156              		.loc 1 77 24 is_stmt 0
 157 0088 17050000 		lla	a0,.LC1
 157      13050500 
 158              	.LVL10:
 159 0090 97000000 		call	_Z11printStringPKc@plt
 159      E7800000 
 160              	.LVL11:
  78:test/userMain.cpp ****         }
 161              		.loc 1 78 13 is_stmt 1
 162              	.L1:
  83:test/userMain.cpp ****         case 1:
  84:test/userMain.cpp **** #if LEVEL_2_IMPLEMENTED == 1
  85:test/userMain.cpp ****             Threads_C_API_test();
  86:test/userMain.cpp ****             printString("TEST 1 (zadatak 2, niti C API i sinhrona promena konteksta)\n");
  87:test/userMain.cpp **** #endif
  88:test/userMain.cpp ****             break;
  89:test/userMain.cpp ****         case 2:
  90:test/userMain.cpp **** #if LEVEL_2_IMPLEMENTED == 1
  91:test/userMain.cpp ****             Threads_CPP_API_test();
  92:test/userMain.cpp ****             printString("TEST 2 (zadatak 2., niti CPP API i sinhrona promena konteksta)\n");
  93:test/userMain.cpp **** #endif
  94:test/userMain.cpp ****             break;
  95:test/userMain.cpp ****         case 3:
  96:test/userMain.cpp **** #if LEVEL_3_IMPLEMENTED == 1
  97:test/userMain.cpp ****             producerConsumer_C_API();
  98:test/userMain.cpp ****             printString("TEST 3 (zadatak 3., kompletan C API sa semaforima, sinhrona promena kontek
  99:test/userMain.cpp **** #endif
 100:test/userMain.cpp ****             break;
 101:test/userMain.cpp ****         case 4:
 102:test/userMain.cpp **** #if LEVEL_3_IMPLEMENTED == 1
GAS LISTING /tmp/ccsueqqw.s 			page 7


 103:test/userMain.cpp ****             producerConsumer_CPP_Sync_API();
 104:test/userMain.cpp ****             printString("TEST 4 (zadatak 3., kompletan CPP API sa semaforima, sinhrona promena kont
 105:test/userMain.cpp **** #endif
 106:test/userMain.cpp ****             break;
 107:test/userMain.cpp ****         case 5:
 108:test/userMain.cpp **** #if LEVEL_4_IMPLEMENTED == 1
 109:test/userMain.cpp ****             testSleeping();
 110:test/userMain.cpp ****             printString("TEST 5 (zadatak 4., thread_sleep test C API)\n");
 111:test/userMain.cpp **** #endif
 112:test/userMain.cpp ****             break;
 113:test/userMain.cpp ****         case 6:
 114:test/userMain.cpp **** #if LEVEL_4_IMPLEMENTED == 1
 115:test/userMain.cpp ****             testConsumerProducer();
 116:test/userMain.cpp ****             printString("TEST 6 (zadatak 4. CPP API i asinhrona promena konteksta)\n");
 117:test/userMain.cpp **** #endif
 118:test/userMain.cpp ****             break;
 119:test/userMain.cpp ****         case 7:
 120:test/userMain.cpp **** #if LEVEL_2_IMPLEMENTED == 1
 121:test/userMain.cpp ****             System_Mode_test();
 122:test/userMain.cpp ****             printString("Test se nije uspesno zavrsio\n");
 123:test/userMain.cpp ****             printString("TEST 7 (zadatak 2., testiranje da li se korisnicki kod izvrsava u korisnic
 124:test/userMain.cpp **** #endif
 125:test/userMain.cpp ****             break;
 126:test/userMain.cpp ****         case 8:
 127:test/userMain.cpp **** #if LEVEL_5_IMPLEMENTED == 1
 128:test/userMain.cpp ****             getThreadIdMod();
 129:test/userMain.cpp ****             printString("TEST 5 getThreadId kompletan \n");
 130:test/userMain.cpp **** #endif
 131:test/userMain.cpp ****             break;
 132:test/userMain.cpp ****         case 9:
 133:test/userMain.cpp **** #if LEVEL_5_IMPLEMENTED == 1
 134:test/userMain.cpp ****             setMaximumThread();
 135:test/userMain.cpp ****             printString("TEST 9 semMaxThread kompletan\n");
 136:test/userMain.cpp **** #endif
 137:test/userMain.cpp ****             break;
 138:test/userMain.cpp ****         case 10:
 139:test/userMain.cpp **** #if LEVEL_5_IMPLEMENTED == 1
 140:test/userMain.cpp ****             joinAllModif();
 141:test/userMain.cpp ****             printString("TEST 10 joinAll kompletan\n");
 142:test/userMain.cpp **** #endif
 143:test/userMain.cpp ****             break;
 144:test/userMain.cpp ****         case 11:
 145:test/userMain.cpp **** #if LEVEL_5_IMPLEMENTED == 1
 146:test/userMain.cpp ****             semPriorModif();
 147:test/userMain.cpp ****             printString("TEST 11 semPrior kompletan\n");
 148:test/userMain.cpp **** #endif
 149:test/userMain.cpp ****             break;
 150:test/userMain.cpp ****         case 12:
 151:test/userMain.cpp **** #if LEVEL_5_IMPLEMENTED == 1
 152:test/userMain.cpp ****             pingMod();
 153:test/userMain.cpp ****             printString("TEST 12 pingMod kompletan\n");
 154:test/userMain.cpp **** #endif
 155:test/userMain.cpp ****             break;
 156:test/userMain.cpp ****         case 13:
 157:test/userMain.cpp **** #if LEVEL_5_IMPLEMENTED == 1
 158:test/userMain.cpp ****             matricaMod();
 159:test/userMain.cpp ****             printString("TEST 13 matricaMnozenje kompletan\n");
GAS LISTING /tmp/ccsueqqw.s 			page 8


 160:test/userMain.cpp **** #endif
 161:test/userMain.cpp ****             break;
 162:test/userMain.cpp ****         case 14:
 163:test/userMain.cpp **** #if LEVEL_5_IMPLEMENTED == 1
 164:test/userMain.cpp ****             ownerMod();
 165:test/userMain.cpp ****             printString("TEST 14 ownerModifikacija kompletna\n");
 166:test/userMain.cpp **** #endif
 167:test/userMain.cpp ****             break;
 168:test/userMain.cpp **** 
 169:test/userMain.cpp **** 
 170:test/userMain.cpp ****         default:
 171:test/userMain.cpp ****             printString("Niste uneli odgovarajuci broj za test\n");
 172:test/userMain.cpp ****     }
 173:test/userMain.cpp **** }...
 163              		.loc 1 173 1 is_stmt 0
 164 0098 83308101 		ld	ra,24(sp)
 165              		.cfi_remember_state
 166              		.cfi_restore 1
 167 009c 03340101 		ld	s0,16(sp)
 168              		.cfi_restore 8
 169              		.cfi_def_cfa 2, 32
 170 00a0 83348100 		ld	s1,8(sp)
 171              		.cfi_restore 9
 172 00a4 13010102 		addi	sp,sp,32
 173              		.cfi_def_cfa_offset 0
 174 00a8 67800000 		jr	ra
 175              	.LVL12:
 176              	.L19:
 177              		.cfi_restore_state
  83:test/userMain.cpp ****         case 1:
 178              		.loc 1 83 9 is_stmt 1
  85:test/userMain.cpp ****             Threads_C_API_test();
 179              		.loc 1 85 13
  85:test/userMain.cpp ****             Threads_C_API_test();
 180              		.loc 1 85 31 is_stmt 0
 181 00ac 97000000 		call	_Z18Threads_C_API_testv@plt
 181      E7800000 
 182              	.LVL13:
  86:test/userMain.cpp ****             printString("TEST 1 (zadatak 2, niti C API i sinhrona promena konteksta)\n");
 183              		.loc 1 86 13 is_stmt 1
  86:test/userMain.cpp ****             printString("TEST 1 (zadatak 2, niti C API i sinhrona promena konteksta)\n");
 184              		.loc 1 86 24 is_stmt 0
 185 00b4 17050000 		lla	a0,.LC2
 185      13050500 
 186 00bc 97000000 		call	_Z11printStringPKc@plt
 186      E7800000 
 187              	.LVL14:
  88:test/userMain.cpp ****             break;
 188              		.loc 1 88 13 is_stmt 1
 189 00c4 6FF05FFD 		j	.L1
 190              	.LVL15:
 191              	.L18:
  89:test/userMain.cpp ****         case 2:
 192              		.loc 1 89 9
  91:test/userMain.cpp ****             Threads_CPP_API_test();
 193              		.loc 1 91 13
  91:test/userMain.cpp ****             Threads_CPP_API_test();
GAS LISTING /tmp/ccsueqqw.s 			page 9


 194              		.loc 1 91 33 is_stmt 0
 195 00c8 97000000 		call	_Z20Threads_CPP_API_testv@plt
 195      E7800000 
 196              	.LVL16:
  92:test/userMain.cpp ****             printString("TEST 2 (zadatak 2., niti CPP API i sinhrona promena konteksta)\n");
 197              		.loc 1 92 13 is_stmt 1
  92:test/userMain.cpp ****             printString("TEST 2 (zadatak 2., niti CPP API i sinhrona promena konteksta)\n");
 198              		.loc 1 92 24 is_stmt 0
 199 00d0 17050000 		lla	a0,.LC3
 199      13050500 
 200 00d8 97000000 		call	_Z11printStringPKc@plt
 200      E7800000 
 201              	.LVL17:
  94:test/userMain.cpp ****             break;
 202              		.loc 1 94 13 is_stmt 1
 203 00e0 6FF09FFB 		j	.L1
 204              	.LVL18:
 205              	.L17:
  95:test/userMain.cpp ****         case 3:
 206              		.loc 1 95 9
  97:test/userMain.cpp ****             producerConsumer_C_API();
 207              		.loc 1 97 13
  97:test/userMain.cpp ****             producerConsumer_C_API();
 208              		.loc 1 97 35 is_stmt 0
 209 00e4 97000000 		call	_Z22producerConsumer_C_APIv@plt
 209      E7800000 
 210              	.LVL19:
  98:test/userMain.cpp ****             printString("TEST 3 (zadatak 3., kompletan C API sa semaforima, sinhrona promena kontek
 211              		.loc 1 98 13 is_stmt 1
  98:test/userMain.cpp ****             printString("TEST 3 (zadatak 3., kompletan C API sa semaforima, sinhrona promena kontek
 212              		.loc 1 98 24 is_stmt 0
 213 00ec 17050000 		lla	a0,.LC4
 213      13050500 
 214 00f4 97000000 		call	_Z11printStringPKc@plt
 214      E7800000 
 215              	.LVL20:
 100:test/userMain.cpp ****             break;
 216              		.loc 1 100 13 is_stmt 1
 217 00fc 6FF0DFF9 		j	.L1
 218              	.LVL21:
 219              	.L16:
 101:test/userMain.cpp ****         case 4:
 220              		.loc 1 101 9
 103:test/userMain.cpp ****             producerConsumer_CPP_Sync_API();
 221              		.loc 1 103 13
 103:test/userMain.cpp ****             producerConsumer_CPP_Sync_API();
 222              		.loc 1 103 42 is_stmt 0
 223 0100 97000000 		call	_Z29producerConsumer_CPP_Sync_APIv@plt
 223      E7800000 
 224              	.LVL22:
 104:test/userMain.cpp ****             printString("TEST 4 (zadatak 3., kompletan CPP API sa semaforima, sinhrona promena kont
 225              		.loc 1 104 13 is_stmt 1
 104:test/userMain.cpp ****             printString("TEST 4 (zadatak 3., kompletan CPP API sa semaforima, sinhrona promena kont
 226              		.loc 1 104 24 is_stmt 0
 227 0108 17050000 		lla	a0,.LC5
 227      13050500 
 228 0110 97000000 		call	_Z11printStringPKc@plt
GAS LISTING /tmp/ccsueqqw.s 			page 10


 228      E7800000 
 229              	.LVL23:
 106:test/userMain.cpp ****             break;
 230              		.loc 1 106 13 is_stmt 1
 231 0118 6FF01FF8 		j	.L1
 232              	.LVL24:
 233              	.L15:
 119:test/userMain.cpp ****         case 7:
 234              		.loc 1 119 9
 121:test/userMain.cpp ****             System_Mode_test();
 235              		.loc 1 121 13
 121:test/userMain.cpp ****             System_Mode_test();
 236              		.loc 1 121 29 is_stmt 0
 237 011c 97000000 		call	_Z16System_Mode_testv@plt
 237      E7800000 
 238              	.LVL25:
 122:test/userMain.cpp ****             printString("Test se nije uspesno zavrsio\n");
 239              		.loc 1 122 13 is_stmt 1
 122:test/userMain.cpp ****             printString("Test se nije uspesno zavrsio\n");
 240              		.loc 1 122 24 is_stmt 0
 241 0124 17050000 		lla	a0,.LC6
 241      13050500 
 242 012c 97000000 		call	_Z11printStringPKc@plt
 242      E7800000 
 243              	.LVL26:
 123:test/userMain.cpp ****             printString("TEST 7 (zadatak 2., testiranje da li se korisnicki kod izvrsava u korisnic
 244              		.loc 1 123 13 is_stmt 1
 123:test/userMain.cpp ****             printString("TEST 7 (zadatak 2., testiranje da li se korisnicki kod izvrsava u korisnic
 245              		.loc 1 123 24 is_stmt 0
 246 0134 17050000 		lla	a0,.LC7
 246      13050500 
 247 013c 97000000 		call	_Z11printStringPKc@plt
 247      E7800000 
 248              	.LVL27:
 125:test/userMain.cpp ****             break;
 249              		.loc 1 125 13 is_stmt 1
 250 0144 6FF05FF5 		j	.L1
 251              	.LVL28:
 252              	.L14:
 126:test/userMain.cpp ****         case 8:
 253              		.loc 1 126 9
 128:test/userMain.cpp ****             getThreadIdMod();
 254              		.loc 1 128 13
 128:test/userMain.cpp ****             getThreadIdMod();
 255              		.loc 1 128 27 is_stmt 0
 256 0148 97000000 		call	_Z14getThreadIdModv@plt
 256      E7800000 
 257              	.LVL29:
 129:test/userMain.cpp ****             printString("TEST 5 getThreadId kompletan \n");
 258              		.loc 1 129 13 is_stmt 1
 129:test/userMain.cpp ****             printString("TEST 5 getThreadId kompletan \n");
 259              		.loc 1 129 24 is_stmt 0
 260 0150 17050000 		lla	a0,.LC8
 260      13050500 
 261 0158 97000000 		call	_Z11printStringPKc@plt
 261      E7800000 
 262              	.LVL30:
GAS LISTING /tmp/ccsueqqw.s 			page 11


 131:test/userMain.cpp ****             break;
 263              		.loc 1 131 13 is_stmt 1
 264 0160 6FF09FF3 		j	.L1
 265              	.LVL31:
 266              	.L13:
 132:test/userMain.cpp ****         case 9:
 267              		.loc 1 132 9
 134:test/userMain.cpp ****             setMaximumThread();
 268              		.loc 1 134 13
 134:test/userMain.cpp ****             setMaximumThread();
 269              		.loc 1 134 29 is_stmt 0
 270 0164 97000000 		call	_Z16setMaximumThreadv@plt
 270      E7800000 
 271              	.LVL32:
 135:test/userMain.cpp ****             printString("TEST 9 semMaxThread kompletan\n");
 272              		.loc 1 135 13 is_stmt 1
 135:test/userMain.cpp ****             printString("TEST 9 semMaxThread kompletan\n");
 273              		.loc 1 135 24 is_stmt 0
 274 016c 17050000 		lla	a0,.LC9
 274      13050500 
 275 0174 97000000 		call	_Z11printStringPKc@plt
 275      E7800000 
 276              	.LVL33:
 137:test/userMain.cpp ****             break;
 277              		.loc 1 137 13 is_stmt 1
 278 017c 6FF0DFF1 		j	.L1
 279              	.LVL34:
 280              	.L12:
 138:test/userMain.cpp ****         case 10:
 281              		.loc 1 138 9
 140:test/userMain.cpp ****             joinAllModif();
 282              		.loc 1 140 13
 140:test/userMain.cpp ****             joinAllModif();
 283              		.loc 1 140 25 is_stmt 0
 284 0180 97000000 		call	_Z12joinAllModifv@plt
 284      E7800000 
 285              	.LVL35:
 141:test/userMain.cpp ****             printString("TEST 10 joinAll kompletan\n");
 286              		.loc 1 141 13 is_stmt 1
 141:test/userMain.cpp ****             printString("TEST 10 joinAll kompletan\n");
 287              		.loc 1 141 24 is_stmt 0
 288 0188 17050000 		lla	a0,.LC10
 288      13050500 
 289 0190 97000000 		call	_Z11printStringPKc@plt
 289      E7800000 
 290              	.LVL36:
 143:test/userMain.cpp ****             break;
 291              		.loc 1 143 13 is_stmt 1
 292 0198 6FF01FF0 		j	.L1
 293              	.LVL37:
 294              	.L11:
 144:test/userMain.cpp ****         case 11:
 295              		.loc 1 144 9
 146:test/userMain.cpp ****             semPriorModif();
 296              		.loc 1 146 13
 146:test/userMain.cpp ****             semPriorModif();
 297              		.loc 1 146 26 is_stmt 0
GAS LISTING /tmp/ccsueqqw.s 			page 12


 298 019c 97000000 		call	_Z13semPriorModifv@plt
 298      E7800000 
 299              	.LVL38:
 147:test/userMain.cpp ****             printString("TEST 11 semPrior kompletan\n");
 300              		.loc 1 147 13 is_stmt 1
 147:test/userMain.cpp ****             printString("TEST 11 semPrior kompletan\n");
 301              		.loc 1 147 24 is_stmt 0
 302 01a4 17050000 		lla	a0,.LC11
 302      13050500 
 303 01ac 97000000 		call	_Z11printStringPKc@plt
 303      E7800000 
 304              	.LVL39:
 149:test/userMain.cpp ****             break;
 305              		.loc 1 149 13 is_stmt 1
 306 01b4 6FF05FEE 		j	.L1
 307              	.LVL40:
 308              	.L10:
 150:test/userMain.cpp ****         case 12:
 309              		.loc 1 150 9
 152:test/userMain.cpp ****             pingMod();
 310              		.loc 1 152 13
 152:test/userMain.cpp ****             pingMod();
 311              		.loc 1 152 20 is_stmt 0
 312 01b8 97000000 		call	_Z7pingModv@plt
 312      E7800000 
 313              	.LVL41:
 153:test/userMain.cpp ****             printString("TEST 12 pingMod kompletan\n");
 314              		.loc 1 153 13 is_stmt 1
 153:test/userMain.cpp ****             printString("TEST 12 pingMod kompletan\n");
 315              		.loc 1 153 24 is_stmt 0
 316 01c0 17050000 		lla	a0,.LC12
 316      13050500 
 317 01c8 97000000 		call	_Z11printStringPKc@plt
 317      E7800000 
 318              	.LVL42:
 155:test/userMain.cpp ****             break;
 319              		.loc 1 155 13 is_stmt 1
 320 01d0 6FF09FEC 		j	.L1
 321              	.LVL43:
 322              	.L9:
 156:test/userMain.cpp ****         case 13:
 323              		.loc 1 156 9
 158:test/userMain.cpp ****             matricaMod();
 324              		.loc 1 158 13
 158:test/userMain.cpp ****             matricaMod();
 325              		.loc 1 158 23 is_stmt 0
 326 01d4 97000000 		call	_Z10matricaModv@plt
 326      E7800000 
 327              	.LVL44:
 159:test/userMain.cpp ****             printString("TEST 13 matricaMnozenje kompletan\n");
 328              		.loc 1 159 13 is_stmt 1
 159:test/userMain.cpp ****             printString("TEST 13 matricaMnozenje kompletan\n");
 329              		.loc 1 159 24 is_stmt 0
 330 01dc 17050000 		lla	a0,.LC13
 330      13050500 
 331 01e4 97000000 		call	_Z11printStringPKc@plt
 331      E7800000 
GAS LISTING /tmp/ccsueqqw.s 			page 13


 332              	.LVL45:
 161:test/userMain.cpp ****             break;
 333              		.loc 1 161 13 is_stmt 1
 334 01ec 6FF0DFEA 		j	.L1
 335              	.LVL46:
 336              	.L7:
 162:test/userMain.cpp ****         case 14:
 337              		.loc 1 162 9
 164:test/userMain.cpp ****             ownerMod();
 338              		.loc 1 164 13
 164:test/userMain.cpp ****             ownerMod();
 339              		.loc 1 164 21 is_stmt 0
 340 01f0 97000000 		call	_Z8ownerModv@plt
 340      E7800000 
 341              	.LVL47:
 165:test/userMain.cpp ****             printString("TEST 14 ownerModifikacija kompletna\n");
 342              		.loc 1 165 13 is_stmt 1
 165:test/userMain.cpp ****             printString("TEST 14 ownerModifikacija kompletna\n");
 343              		.loc 1 165 24 is_stmt 0
 344 01f8 17050000 		lla	a0,.LC14
 344      13050500 
 345 0200 97000000 		call	_Z11printStringPKc@plt
 345      E7800000 
 346              	.LVL48:
 167:test/userMain.cpp ****             break;
 347              		.loc 1 167 13 is_stmt 1
 348 0208 6FF01FE9 		j	.L1
 349              	.LVL49:
 350              	.L6:
 170:test/userMain.cpp ****         default:
 351              		.loc 1 170 9
 171:test/userMain.cpp ****             printString("Niste uneli odgovarajuci broj za test\n");
 352              		.loc 1 171 13
 171:test/userMain.cpp ****             printString("Niste uneli odgovarajuci broj za test\n");
 353              		.loc 1 171 24 is_stmt 0
 354 020c 17050000 		lla	a0,.LC15
 354      13050500 
 355              	.LVL50:
 356 0214 97000000 		call	_Z11printStringPKc@plt
 356      E7800000 
 357              	.LVL51:
 358 021c 6FF0DFE7 		j	.L1
 359              		.cfi_endproc
 360              	.LFE20:
 362              	.Letext0:
 363              		.file 2 "test/../h/../lib/hw.h"
 364              		.file 3 "test/../h/syscall_c.hpp"
 365              		.file 4 "test/printing.hpp"
 366              		.file 5 "test/../test/Threads_C_API_test.hpp"
 367              		.file 6 "test/../test/Threads_CPP_API_test.hpp"
 368              		.file 7 "test/../test/ConsumerProducer_C_API_test.hpp"
 369              		.file 8 "test/../test/ConsumerProducer_CPP_Sync_API_test.hpp"
 370              		.file 9 "test/../test/System_Mode_test.hpp"
 371              		.file 10 "test/../test/getTreadIdModifikacija.hpp"
 372              		.file 11 "test/../test/SetMaximumThread.hpp"
 373              		.file 12 "test/joinAllModif.hpp"
 374              		.file 13 "test/semPriorMod.hpp"
GAS LISTING /tmp/ccsueqqw.s 			page 14


 375              		.file 14 "test/pingModif.hpp"
 376              		.file 15 "test/matricaModif.hpp"
 377              		.file 16 "test/ownerModif.hpp"
GAS LISTING /tmp/ccsueqqw.s 			page 15

