GAS LISTING /tmp/ccsueqqw.s 			page 1


   1              		.file	"userMain.cpp"
   2              		.option pic
   3              		.option norelax
   4              		.text
   5              	.Ltext0:
   6              		.section	.rodata.str1.8,"aMS",@progbits,1
   7              		.align	3
   8              	.LC0:
   9 0000 556E6573 		.string	"Unesite broj testa? [1-14]\n"
   9      69746520 
   9      62726F6A 
   9      20746573 
   9      74613F20 
  10 001c 00000000 		.align	3
  11              	.LC1:
  12 0020 4E696A65 		.string	"Nije navedeno da je zadatak 4 implementiran\n"
  12      206E6176 
  12      6564656E 
  12      6F206461 
  12      206A6520 
  13 004d 000000   		.align	3
  14              	.LC2:
  15 0050 54455354 		.string	"TEST 1 (zadatak 2, niti C API i sinhrona promena konteksta)\n"
  15      20312028 
  15      7A616461 
  15      74616B20 
  15      322C206E 
  16 008d 000000   		.align	3
  17              	.LC3:
  18 0090 54455354 		.string	"TEST 2 (zadatak 2., niti CPP API i sinhrona promena konteksta)\n"
  18      20322028 
  18      7A616461 
  18      74616B20 
  18      322E2C20 
  19              		.align	3
  20              	.LC4:
  21 00d0 54455354 		.string	"TEST 3 (zadatak 3., kompletan C API sa semaforima, sinhrona promena konteksta)\n"
  21      20332028 
  21      7A616461 
  21      74616B20 
  21      332E2C20 
  22              		.align	3
  23              	.LC5:
  24 0120 54455354 		.string	"TEST 4 (zadatak 3., kompletan CPP API sa semaforima, sinhrona promena konteksta)\n"
  24      20342028 
  24      7A616461 
  24      74616B20 
  24      332E2C20 
  25 0172 00000000 		.align	3
  25      0000
  26              	.LC6:
  27 0178 54657374 		.string	"Test se nije uspesno zavrsio\n"
  27      20736520 
  27      6E696A65 
  27      20757370 
  27      65736E6F 
  28 0196 0000     		.align	3
GAS LISTING /tmp/ccsueqqw.s 			page 2


  29              	.LC7:
  30 0198 54455354 		.string	"TEST 7 (zadatak 2., testiranje da li se korisnicki kod izvrsava u korisnickom rezimu)\n"
  30      20372028 
  30      7A616461 
  30      74616B20 
  30      322E2C20 
  31 01ef 00       		.align	3
  32              	.LC8:
  33 01f0 54455354 		.string	"TEST 5 getThreadId kompletan \n"
  33      20352067 
  33      65745468 
  33      72656164 
  33      4964206B 
  34 020f 00       		.align	3
  35              	.LC9:
  36 0210 54455354 		.string	"TEST 9 semMaxThread kompletan\n"
  36      20392073 
  36      656D4D61 
  36      78546872 
  36      65616420 
  37 022f 00       		.align	3
  38              	.LC10:
  39 0230 54455354 		.string	"TEST 10 joinAll kompletan\n"
  39      20313020 
  39      6A6F696E 
  39      416C6C20 
  39      6B6F6D70 
  40 024b 00000000 		.align	3
  40      00
  41              	.LC11:
  42 0250 54455354 		.string	"TEST 11 semPrior kompletan\n"
  42      20313120 
  42      73656D50 
  42      72696F72 
  42      206B6F6D 
  43 026c 00000000 		.align	3
  44              	.LC12:
  45 0270 54455354 		.string	"TEST 12 pingMod kompletan\n"
  45      20313220 
  45      70696E67 
  45      4D6F6420 
  45      6B6F6D70 
  46 028b 00000000 		.align	3
  46      00
  47              	.LC13:
  48 0290 54455354 		.string	"TEST 13 matricaMnozenje kompletan\n"
  48      20313320 
  48      6D617472 
  48      6963614D 
  48      6E6F7A65 
  49 02b3 00000000 		.align	3
  49      00
  50              	.LC14:
  51 02b8 54455354 		.string	"TEST 14 ownerModifikacija kompletna\n"
  51      20313420 
  51      6F776E65 
  51      724D6F64 
GAS LISTING /tmp/ccsueqqw.s 			page 3


  51      6966696B 
  52 02dd 000000   		.align	3
  53              	.LC15:
  54 02e0 4E697374 		.string	"Niste uneli odgovarajuci broj za test\n"
  54      6520756E 
  54      656C6920 
  54      6F64676F 
  54      76617261 
  55              		.text
  56              		.align	2
  57              		.globl	_Z8userMainv
  59              	_Z8userMainv:
  60              	.LFB20:
  61              		.file 1 "test/userMain.cpp"
   1:test/userMain.cpp **** #include "printing.hpp"
   2:test/userMain.cpp **** #include "userMain.hpp"
   3:test/userMain.cpp **** #define LEVEL_1_IMPLEMENTED 0
   4:test/userMain.cpp **** #define LEVEL_2_IMPLEMENTED 1
   5:test/userMain.cpp **** #define LEVEL_3_IMPLEMENTED 1
   6:test/userMain.cpp **** #define LEVEL_4_IMPLEMENTED 0
   7:test/userMain.cpp **** #define LEVEL_5_IMPLEMENTED 1
   8:test/userMain.cpp **** 
   9:test/userMain.cpp **** #if LEVEL_2_IMPLEMENTED == 1
  10:test/userMain.cpp **** // TEST 1 (zadatak 2, niti C API i sinhrona promena konteksta)
  11:test/userMain.cpp **** #include "../test/Threads_C_API_test.hpp"
  12:test/userMain.cpp **** // TEST 2 (zadatak 2., niti CPP API i sinhrona promena konteksta)
  13:test/userMain.cpp **** #include "../test/Threads_CPP_API_test.hpp"
  14:test/userMain.cpp **** // TEST 7 (zadatak 2., testiranje da li se korisnicki kod izvrsava u korisnickom rezimu)
  15:test/userMain.cpp **** #include "../test/System_Mode_test.hpp"
  16:test/userMain.cpp **** #endif
  17:test/userMain.cpp **** 
  18:test/userMain.cpp **** #if LEVEL_3_IMPLEMENTED == 1
  19:test/userMain.cpp **** // TEST 3 (zadatak 3., kompletan C API sa semaforima, sinhrona promena konteksta)
  20:test/userMain.cpp **** #include "../test/ConsumerProducer_C_API_test.hpp"
  21:test/userMain.cpp **** // TEST 4 (zadatak 3., kompletan CPP API sa semaforima, sinhrona promena konteksta)
  22:test/userMain.cpp **** #include "../test/ConsumerProducer_CPP_Sync_API_test.hpp"
  23:test/userMain.cpp **** #endif
  24:test/userMain.cpp **** 
  25:test/userMain.cpp **** #if LEVEL_4_IMPLEMENTED == 1
  26:test/userMain.cpp **** // TEST 5 (zadatak 4., thread_sleep test C API)
  27:test/userMain.cpp **** #include "../test/ThreadSleep_C_API_test.hpp"
  28:test/userMain.cpp **** // TEST 6 (zadatak 4. CPP API i asinhrona promena konteksta)
  29:test/userMain.cpp **** #include "../test/ConsumerProducer_CPP_API_test.hpp"
  30:test/userMain.cpp **** #include "System_Mode_test.hpp"
  31:test/userMain.cpp **** 
  32:test/userMain.cpp **** #endif
  33:test/userMain.cpp **** 
  34:test/userMain.cpp **** #if LEVEL_5_IMPLEMENTED == 1
  35:test/userMain.cpp **** // TEST 5 (zadatak 5., getThreadId());
  36:test/userMain.cpp **** #include "../test/getTreadIdModifikacija.hpp"
  37:test/userMain.cpp **** // TEST 6 (zadatak 6., SetMaximumThreads())
  38:test/userMain.cpp **** #include "../test/SetMaximumThread.hpp"
  39:test/userMain.cpp **** //test 10 joinAll
  40:test/userMain.cpp **** #include "joinAllModif.hpp"
  41:test/userMain.cpp **** //test 11 semPrior
  42:test/userMain.cpp **** #include "semPriorMod.hpp"
  43:test/userMain.cpp **** //test 12
GAS LISTING /tmp/ccsueqqw.s 			page 4


  44:test/userMain.cpp **** #include "pingModif.hpp"
  45:test/userMain.cpp **** //test 13
  46:test/userMain.cpp **** #include "matricaModif.hpp"
  47:test/userMain.cpp **** //test 14
  48:test/userMain.cpp **** #include "ownerModif.hpp"
  49:test/userMain.cpp **** #endif
  50:test/userMain.cpp **** 
  51:test/userMain.cpp **** 
  52:test/userMain.cpp **** void userMain() {
  62              		.loc 1 52 17
  63              		.cfi_startproc
  64 0000 130101FE 		addi	sp,sp,-32
  65              		.cfi_def_cfa_offset 32
  66 0004 233C1100 		sd	ra,24(sp)
  67 0008 23388100 		sd	s0,16(sp)
  68 000c 23349100 		sd	s1,8(sp)
  69              		.cfi_offset 1, -8
  70              		.cfi_offset 8, -16
  71              		.cfi_offset 9, -24
  72 0010 13040102 		addi	s0,sp,32
  73              		.cfi_def_cfa 8, 0
  53:test/userMain.cpp ****     printString("Unesite broj testa? [1-14]\n");
  74              		.loc 1 53 5
  75              		.loc 1 53 16 is_stmt 0
  76 0014 17050000 		lla	a0,.LC0
  76      13050500 
  77 001c 97000000 		call	_Z11printStringPKc@plt
  77      E7800000 
  78              	.LVL0:
  54:test/userMain.cpp ****     int test = 0;
  79              		.loc 1 54 5 is_stmt 1
  80              		.loc 1 54 9 is_stmt 0
  81 0024 93040000 		li	s1,0
  82              	.LVL1:
  83              	.L3:
  55:test/userMain.cpp ****     char c;
  84              		.loc 1 55 5 is_stmt 1
  56:test/userMain.cpp ****     while ((c = getc()) >= '0' && c <= '9') {
  85              		.loc 1 56 5
  86              		.loc 1 56 32
  87              		.loc 1 56 21 is_stmt 0
  88 0028 97000000 		call	_Z4getcv@plt
  88      E7800000 
  89              	.LVL2:
  90              		.loc 1 56 32
  91 0030 9307F002 		li	a5,47
  92 0034 63F2A702 		bleu	a0,a5,.L2
  93              		.loc 1 56 32 discriminator 1
  94 0038 93079003 		li	a5,57
  95 003c 63EEA700 		bgtu	a0,a5,.L2
  57:test/userMain.cpp ****         test *= 10;
  96              		.loc 1 57 9 is_stmt 1
  97              		.loc 1 57 14 is_stmt 0
  98 0040 9B972400 		slliw	a5,s1,2
  99 0044 BB849700 		addw	s1,a5,s1
 100              	.LVL3:
 101 0048 9B941400 		slliw	s1,s1,1
GAS LISTING /tmp/ccsueqqw.s 			page 5


 102              	.LVL4:
  58:test/userMain.cpp ****         test += c - '0';
 103              		.loc 1 58 9 is_stmt 1
 104              		.loc 1 58 19 is_stmt 0
 105 004c 1B0505FD 		addiw	a0,a0,-48
 106              	.LVL5:
 107              		.loc 1 58 14
 108 0050 BB049500 		addw	s1,a0,s1
 109              	.LVL6:
  56:test/userMain.cpp ****     while ((c = getc()) >= '0' && c <= '9') {
 110              		.loc 1 56 5
 111 0054 6FF05FFD 		j	.L3
 112              	.LVL7:
 113              	.L2:
  59:test/userMain.cpp ****     }
  60:test/userMain.cpp **** 
  61:test/userMain.cpp ****     if ((test >= 1 && test <= 2) || test == 7) {
 114              		.loc 1 61 5 is_stmt 1
  62:test/userMain.cpp ****         if (LEVEL_2_IMPLEMENTED == 0) {
  63:test/userMain.cpp ****             printString("Nije navedeno da je zadatak 2 implementiran\n");
  64:test/userMain.cpp ****             return;
  65:test/userMain.cpp ****         }
  66:test/userMain.cpp ****     }
  67:test/userMain.cpp **** 
  68:test/userMain.cpp ****     if (test >= 3 && test <= 4) {
 115              		.loc 1 68 5
  69:test/userMain.cpp ****         if (LEVEL_3_IMPLEMENTED == 0) {
  70:test/userMain.cpp ****             printString("Nije navedeno da je zadatak 3 implementiran\n");
  71:test/userMain.cpp ****             return;
  72:test/userMain.cpp ****         }
  73:test/userMain.cpp ****     }
  74:test/userMain.cpp **** 
  75:test/userMain.cpp ****     if (test >= 5 && test <= 6) {
 116              		.loc 1 75 5
 117              		.loc 1 75 19 is_stmt 0
 118 0058 9B87B4FF 		addiw	a5,s1,-5
 119              		.loc 1 75 5
 120 005c 13071000 		li	a4,1
 121 0060 6374F702 		bleu	a5,a4,.L21
  76:test/userMain.cpp ****         if (LEVEL_4_IMPLEMENTED == 0) {
  77:test/userMain.cpp ****             printString("Nije navedeno da je zadatak 4 implementiran\n");
  78:test/userMain.cpp ****             return;
  79:test/userMain.cpp ****         }
  80:test/userMain.cpp ****     }
  81:test/userMain.cpp **** 
  82:test/userMain.cpp ****     switch (test) {
 122              		.loc 1 82 5 is_stmt 1
 123 0064 9307E000 		li	a5,14
 124 0068 63E2971A 		bgtu	s1,a5,.L6
 125 006c 93942400 		slli	s1,s1,2
 126              	.LVL8:
 127 0070 17070000 		lla	a4,.L8
 127      13070700 
 128 0078 B384E400 		add	s1,s1,a4
 129 007c 83A70400 		lw	a5,0(s1)
 130 0080 B387E700 		add	a5,a5,a4
 131 0084 67800700 		jr	a5
GAS LISTING /tmp/ccsueqqw.s 			page 6


 132              		.section	.rodata
 133              		.align	2
 134              		.align	2
 135              	.L8:
 136 0000 00000000 		.word	.L6-.L8
 137 0004 00000000 		.word	.L19-.L8
 138 0008 00000000 		.word	.L18-.L8
 139 000c 00000000 		.word	.L17-.L8
 140 0010 00000000 		.word	.L16-.L8
 141 0014 00000000 		.word	.L1-.L8
 142 0018 00000000 		.word	.L1-.L8
 143 001c 00000000 		.word	.L15-.L8
 144 0020 00000000 		.word	.L14-.L8
 145 0024 00000000 		.word	.L13-.L8
 146 0028 00000000 		.word	.L12-.L8
 147 002c 00000000 		.word	.L11-.L8
 148 0030 00000000 		.word	.L10-.L8
 149 0034 00000000 		.word	.L9-.L8
 150 0038 00000000 		.word	.L7-.L8
 151              		.text
 152              	.LVL9:
 153              	.L21:
  76:test/userMain.cpp ****         if (LEVEL_4_IMPLEMENTED == 0) {
 154              		.loc 1 76 9
  77:test/userMain.cpp ****             return;
 155              		.loc 1 77 13
  77:test/userMain.cpp ****             return;
 156              		.loc 1 77 24 is_stmt 0
 157 0088 17050000 		lla	a0,.LC1
 157      13050500 
 158              	.LVL10:
 159 0090 97000000 		call	_Z11printStringPKc@plt
 159      E7800000 
 160              	.LVL11:
  78:test/userMain.cpp ****         }
 161              		.loc 1 78 13 is_stmt 1
 162              	.L1:
  83:test/userMain.cpp ****         case 1:
  84:test/userMain.cpp **** #if LEVEL_2_IMPLEMENTED == 1
  85:test/userMain.cpp ****             Threads_C_API_test();
  86:test/userMain.cpp ****             printString("TEST 1 (zadatak 2, niti C API i sinhrona promena konteksta)\n");
  87:test/userMain.cpp **** #endif
  88:test/userMain.cpp ****             break;
  89:test/userMain.cpp ****         case 2:
  90:test/userMain.cpp **** #if LEVEL_2_IMPLEMENTED == 1
  91:test/userMain.cpp ****             Threads_CPP_API_test();
  92:test/userMain.cpp ****             printString("TEST 2 (zadatak 2., niti CPP API i sinhrona promena konteksta)\n");
  93:test/userMain.cpp **** #endif
  94:test/userMain.cpp ****             break;
  95:test/userMain.cpp ****         case 3:
  96:test/userMain.cpp **** #if LEVEL_3_IMPLEMENTED == 1
  97:test/userMain.cpp ****             producerConsumer_C_API();
  98:test/userMain.cpp ****             printString("TEST 3 (zadatak 3., kompletan C API sa semaforima, sinhrona promena kontek
  99:test/userMain.cpp **** #endif
 100:test/userMain.cpp ****             break;
 101:test/userMain.cpp ****         case 4:
 102:test/userMain.cpp **** #if LEVEL_3_IMPLEMENTED == 1
GAS LISTING /tmp/ccsueqqw.s 			page 7


 103:test/userMain.cpp ****             producerConsumer_CPP_Sync_API();
 104:test/userMain.cpp ****             printString("TEST 4 (zadatak 3., kompletan CPP API sa semaforima, sinhrona promena kont
 105:test/userMain.cpp **** #endif
 106:test/userMain.cpp ****             break;
 107:test/userMain.cpp ****         case 5:
 108:test/userMain.cpp **** #if LEVEL_4_IMPLEMENTED == 1
 109:test/userMain.cpp ****             testSleeping();
 110:test/userMain.cpp ****             printString("TEST 5 (zadatak 4., thread_sleep test C API)\n");
 111:test/userMain.cpp **** #endif
 112:test/userMain.cpp ****             break;
 113:test/userMain.cpp ****         case 6:
 114:test/userMain.cpp **** #if LEVEL_4_IMPLEMENTED == 1
 115:test/userMain.cpp ****             testConsumerProducer();
 116:test/userMain.cpp ****             printString("TEST 6 (zadatak 4. CPP API i asinhrona promena konteksta)\n");
 117:test/userMain.cpp **** #endif
 118:test/userMain.cpp ****             break;
 119:test/userMain.cpp ****         case 7:
 120:test/userMain.cpp **** #if LEVEL_2_IMPLEMENTED == 1
 121:test/userMain.cpp ****             System_Mode_test();
 122:test/userMain.cpp ****             printString("Test se nije uspesno zavrsio\n");
 123:test/userMain.cpp ****             printString("TEST 7 (zadatak 2., testiranje da li se korisnicki kod izvrsava u korisnic
 124:test/userMain.cpp **** #endif
 125:test/userMain.cpp ****             break;
 126:test/userMain.cpp ****         case 8:
 127:test/userMain.cpp **** #if LEVEL_5_IMPLEMENTED == 1
 128:test/userMain.cpp ****             getThreadIdMod();
 129:test/userMain.cpp ****             printString("TEST 5 getThreadId kompletan \n");
 130:test/userMain.cpp **** #endif
 131:test/userMain.cpp ****             break;
 132:test/userMain.cpp ****         case 9:
 133:test/userMain.cpp **** #if LEVEL_5_IMPLEMENTED == 1
 134:test/userMain.cpp ****             setMaximumThread();
 135:test/userMain.cpp ****             printString("TEST 9 semMaxThread kompletan\n");
 136:test/userMain.cpp **** #endif
 137:test/userMain.cpp ****             break;
 138:test/userMain.cpp ****         case 10:
 139:test/userMain.cpp **** #if LEVEL_5_IMPLEMENTED == 1
 140:test/userMain.cpp ****             joinAllModif();
 141:test/userMain.cpp ****             printString("TEST 10 joinAll kompletan\n");
 142:test/userMain.cpp **** #endif
 143:test/userMain.cpp ****             break;
 144:test/userMain.cpp ****         case 11:
 145:test/userMain.cpp **** #if LEVEL_5_IMPLEMENTED == 1
 146:test/userMain.cpp ****             semPriorModif();
 147:test/userMain.cpp ****             printString("TEST 11 semPrior kompletan\n");
 148:test/userMain.cpp **** #endif
 149:test/userMain.cpp ****             break;
 150:test/userMain.cpp ****         case 12:
 151:test/userMain.cpp **** #if LEVEL_5_IMPLEMENTED == 1
 152:test/userMain.cpp ****             pingMod();
 153:test/userMain.cpp ****             printString("TEST 12 pingMod kompletan\n");
 154:test/userMain.cpp **** #endif
 155:test/userMain.cpp ****             break;
 156:test/userMain.cpp ****         case 13:
 157:test/userMain.cpp **** #if LEVEL_5_IMPLEMENTED == 1
 158:test/userMain.cpp ****             matricaMod();
 159:test/userMain.cpp ****             printString("TEST 13 matricaMnozenje kompletan\n");
GAS LISTING /tmp/ccsueqqw.s 			page 8


 160:test/userMain.cpp **** #endif
 161:test/userMain.cpp ****             break;
 162:test/userMain.cpp ****         case 14:
 163:test/userMain.cpp **** #if LEVEL_5_IMPLEMENTED == 1
 164:test/userMain.cpp ****             ownerMod();
 165:test/userMain.cpp ****             printString("TEST 14 ownerModifikacija kompletna\n");
 166:test/userMain.cpp **** #endif
 167:test/userMain.cpp ****             break;
 168:test/userMain.cpp **** 
 169:test/userMain.cpp **** 
 170:test/userMain.cpp ****         default:
 171:test/userMain.cpp ****             printString("Niste uneli odgovarajuci broj za test\n");
 172:test/userMain.cpp ****     }
 173:test/userMain.cpp **** }...
 163              		.loc 1 173 1 is_stmt 0
 164 0098 83308101 		ld	ra,24(sp)
 165              		.cfi_remember_state
 166              		.cfi_restore 1
 167 009c 03340101 		ld	s0,16(sp)
 168              		.cfi_restore 8
 169              		.cfi_def_cfa 2, 32
 170 00a0 83348100 		ld	s1,8(sp)
 171              		.cfi_restore 9
 172 00a4 13010102 		addi	sp,sp,32
 173              		.cfi_def_cfa_offset 0
 174 00a8 67800000 		jr	ra
 175              	.LVL12:
 176              	.L19:
 177              		.cfi_restore_state
  83:test/userMain.cpp ****         case 1:
 178              		.loc 1 83 9 is_stmt 1
  85:test/userMain.cpp ****             Threads_C_API_test();
 179              		.loc 1 85 13
  85:test/userMain.cpp ****             Threads_C_API_test();
 180              		.loc 1 85 31 is_stmt 0
 181 00ac 97000000 		call	_Z18Threads_C_API_testv@plt
 181      E7800000 
 182              	.LVL13:
  86:test/userMain.cpp ****             printString("TEST 1 (zadatak 2, niti C API i sinhrona promena konteksta)\n");
 183              		.loc 1 86 13 is_stmt 1
  86:test/userMain.cpp ****             printString("TEST 1 (zadatak 2, niti C API i sinhrona promena konteksta)\n");
 184              		.loc 1 86 24 is_stmt 0
 185 00b4 17050000 		lla	a0,.LC2
 185      13050500 
 186 00bc 97000000 		call	_Z11printStringPKc@plt
 186      E7800000 
 187              	.LVL14:
  88:test/userMain.cpp ****             break;
 188              		.loc 1 88 13 is_stmt 1
 189 00c4 6FF05FFD 		j	.L1
 190              	.LVL15:
 191              	.L18:
  89:test/userMain.cpp ****         case 2:
 192              		.loc 1 89 9
  91:test/userMain.cpp ****             Threads_CPP_API_test();
 193              		.loc 1 91 13
  91:test/userMain.cpp ****             Threads_CPP_API_test();
GAS LISTING /tmp/ccsueqqw.s 			page 9


 194              		.loc 1 91 33 is_stmt 0
 195 00c8 97000000 		call	_Z20Threads_CPP_API_testv@plt
 195      E7800000 
 196              	.LVL16:
  92:test/userMain.cpp ****             printString("TEST 2 (zadatak 2., niti CPP API i sinhrona promena konteksta)\n");
 197              		.loc 1 92 13 is_stmt 1
  92:test/userMain.cpp ****             printString("TEST 2 (zadatak 2., niti CPP API i sinhrona promena konteksta)\n");
 198              		.loc 1 92 24 is_stmt 0
 199 00d0 17050000 		lla	a0,.LC3
 199      13050500 
 200 00d8 97000000 		call	_Z11printStringPKc@plt
 200      E7800000 
 201              	.LVL17:
  94:test/userMain.cpp ****             break;
 202              		.loc 1 94 13 is_stmt 1
 203 00e0 6FF09FFB 		j	.L1
 204              	.LVL18:
 205              	.L17:
  95:test/userMain.cpp ****         case 3:
 206              		.loc 1 95 9
  97:test/userMain.cpp ****             producerConsumer_C_API();
 207              		.loc 1 97 13
  97:test/userMain.cpp ****             producerConsumer_C_API();
 208              		.loc 1 97 35 is_stmt 0
 209 00e4 97000000 		call	_Z22producerConsumer_C_APIv@plt
 209      E7800000 
 210              	.LVL19:
  98:test/userMain.cpp ****             printString("TEST 3 (zadatak 3., kompletan C API sa semaforima, sinhrona promena kontek
 211              		.loc 1 98 13 is_stmt 1
  98:test/userMain.cpp ****             printString("TEST 3 (zadatak 3., kompletan C API sa semaforima, sinhrona promena kontek
 212              		.loc 1 98 24 is_stmt 0
 213 00ec 17050000 		lla	a0,.LC4
 213      13050500 
 214 00f4 97000000 		call	_Z11printStringPKc@plt
 214      E7800000 
 215              	.LVL20:
 100:test/userMain.cpp ****             break;
 216              		.loc 1 100 13 is_stmt 1
 217 00fc 6FF0DFF9 		j	.L1
 218              	.LVL21:
 219              	.L16:
 101:test/userMain.cpp ****         case 4:
 220              		.loc 1 101 9
 103:test/userMain.cpp ****             producerConsumer_CPP_Sync_API();
 221              		.loc 1 103 13
 103:test/userMain.cpp ****             producerConsumer_CPP_Sync_API();
 222              		.loc 1 103 42 is_stmt 0
 223 0100 97000000 		call	_Z29producerConsumer_CPP_Sync_APIv@plt
 223      E7800000 
 224              	.LVL22:
 104:test/userMain.cpp ****             printString("TEST 4 (zadatak 3., kompletan CPP API sa semaforima, sinhrona promena kont
 225              		.loc 1 104 13 is_stmt 1
 104:test/userMain.cpp ****             printString("TEST 4 (zadatak 3., kompletan CPP API sa semaforima, sinhrona promena kont
 226              		.loc 1 104 24 is_stmt 0
 227 0108 17050000 		lla	a0,.LC5
 227      13050500 
 228 0110 97000000 		call	_Z11printStringPKc@plt
GAS LISTING /tmp/ccsueqqw.s 			page 10


 228      E7800000 
 229              	.LVL23:
 106:test/userMain.cpp ****             break;
 230              		.loc 1 106 13 is_stmt 1
 231 0118 6FF01FF8 		j	.L1
 232              	.LVL24:
 233              	.L15:
 119:test/userMain.cpp ****         case 7:
 234              		.loc 1 119 9
 121:test/userMain.cpp ****             System_Mode_test();
 235              		.loc 1 121 13
 121:test/userMain.cpp ****             System_Mode_test();
 236              		.loc 1 121 29 is_stmt 0
 237 011c 97000000 		call	_Z16System_Mode_testv@plt
 237      E7800000 
 238              	.LVL25:
 122:test/userMain.cpp ****             printString("Test se nije uspesno zavrsio\n");
 239              		.loc 1 122 13 is_stmt 1
 122:test/userMain.cpp ****             printString("Test se nije uspesno zavrsio\n");
 240              		.loc 1 122 24 is_stmt 0
 241 0124 17050000 		lla	a0,.LC6
 241      13050500 
 242 012c 97000000 		call	_Z11printStringPKc@plt
 242      E7800000 
 243              	.LVL26:
 123:test/userMain.cpp ****             printString("TEST 7 (zadatak 2., testiranje da li se korisnicki kod izvrsava u korisnic
 244              		.loc 1 123 13 is_stmt 1
 123:test/userMain.cpp ****             printString("TEST 7 (zadatak 2., testiranje da li se korisnicki kod izvrsava u korisnic
 245              		.loc 1 123 24 is_stmt 0
 246 0134 17050000 		lla	a0,.LC7
 246      13050500 
 247 013c 97000000 		call	_Z11printStringPKc@plt
 247      E7800000 
 248              	.LVL27:
 125:test/userMain.cpp ****             break;
 249              		.loc 1 125 13 is_stmt 1
 250 0144 6FF05FF5 		j	.L1
 251              	.LVL28:
 252              	.L14:
 126:test/userMain.cpp ****         case 8:
 253              		.loc 1 126 9
 128:test/userMain.cpp ****             getThreadIdMod();
 254              		.loc 1 128 13
 128:test/userMain.cpp ****             getThreadIdMod();
 255              		.loc 1 128 27 is_stmt 0
 256 0148 97000000 		call	_Z14getThreadIdModv@plt
 256      E7800000 
 257              	.LVL29:
 129:test/userMain.cpp ****             printString("TEST 5 getThreadId kompletan \n");
 258              		.loc 1 129 13 is_stmt 1
 129:test/userMain.cpp ****             printString("TEST 5 getThreadId kompletan \n");
 259              		.loc 1 129 24 is_stmt 0
 260 0150 17050000 		lla	a0,.LC8
 260      13050500 
 261 0158 97000000 		call	_Z11printStringPKc@plt
 261      E7800000 
 262              	.LVL30:
GAS LISTING /tmp/ccsueqqw.s 			page 11


 131:test/userMain.cpp ****             break;
 263              		.loc 1 131 13 is_stmt 1
 264 0160 6FF09FF3 		j	.L1
 265              	.LVL31:
 266              	.L13:
 132:test/userMain.cpp ****         case 9:
 267              		.loc 1 132 9
 134:test/userMain.cpp ****             setMaximumThread();
 268              		.loc 1 134 13
 134:test/userMain.cpp ****             setMaximumThread();
 269              		.loc 1 134 29 is_stmt 0
 270 0164 97000000 		call	_Z16setMaximumThreadv@plt
 270      E7800000 
 271              	.LVL32:
 135:test/userMain.cpp ****             printString("TEST 9 semMaxThread kompletan\n");
 272              		.loc 1 135 13 is_stmt 1
 135:test/userMain.cpp ****             printString("TEST 9 semMaxThread kompletan\n");
 273              		.loc 1 135 24 is_stmt 0
 274 016c 17050000 		lla	a0,.LC9
 274      13050500 
 275 0174 97000000 		call	_Z11printStringPKc@plt
 275      E7800000 
 276              	.LVL33:
 137:test/userMain.cpp ****             break;
 277              		.loc 1 137 13 is_stmt 1
 278 017c 6FF0DFF1 		j	.L1
 279              	.LVL34:
 280              	.L12:
 138:test/userMain.cpp ****         case 10:
 281              		.loc 1 138 9
 140:test/userMain.cpp ****             joinAllModif();
 282              		.loc 1 140 13
 140:test/userMain.cpp ****             joinAllModif();
 283              		.loc 1 140 25 is_stmt 0
 284 0180 97000000 		call	_Z12joinAllModifv@plt
 284      E7800000 
 285              	.LVL35:
 141:test/userMain.cpp ****             printString("TEST 10 joinAll kompletan\n");
 286              		.loc 1 141 13 is_stmt 1
 141:test/userMain.cpp ****             printString("TEST 10 joinAll kompletan\n");
 287              		.loc 1 141 24 is_stmt 0
 288 0188 17050000 		lla	a0,.LC10
 288      13050500 
 289 0190 97000000 		call	_Z11printStringPKc@plt
 289      E7800000 
 290              	.LVL36:
 143:test/userMain.cpp ****             break;
 291              		.loc 1 143 13 is_stmt 1
 292 0198 6FF01FF0 		j	.L1
 293              	.LVL37:
 294              	.L11:
 144:test/userMain.cpp ****         case 11:
 295              		.loc 1 144 9
 146:test/userMain.cpp ****             semPriorModif();
 296              		.loc 1 146 13
 146:test/userMain.cpp ****             semPriorModif();
 297              		.loc 1 146 26 is_stmt 0
GAS LISTING /tmp/ccsueqqw.s 			page 12


 298 019c 97000000 		call	_Z13semPriorModifv@plt
 298      E7800000 
 299              	.LVL38:
 147:test/userMain.cpp ****             printString("TEST 11 semPrior kompletan\n");
 300              		.loc 1 147 13 is_stmt 1
 147:test/userMain.cpp ****             printString("TEST 11 semPrior kompletan\n");
 301              		.loc 1 147 24 is_stmt 0
 302 01a4 17050000 		lla	a0,.LC11
 302      13050500 
 303 01ac 97000000 		call	_Z11printStringPKc@plt
 303      E7800000 
 304              	.LVL39:
 149:test/userMain.cpp ****             break;
 305              		.loc 1 149 13 is_stmt 1
 306 01b4 6FF05FEE 		j	.L1
 307              	.LVL40:
 308              	.L10:
 150:test/userMain.cpp ****         case 12:
 309              		.loc 1 150 9
 152:test/userMain.cpp ****             pingMod();
 310              		.loc 1 152 13
 152:test/userMain.cpp ****             pingMod();
 311              		.loc 1 152 20 is_stmt 0
 312 01b8 97000000 		call	_Z7pingModv@plt
 312      E7800000 
 313              	.LVL41:
 153:test/userMain.cpp ****             printString("TEST 12 pingMod kompletan\n");
 314              		.loc 1 153 13 is_stmt 1
 153:test/userMain.cpp ****             printString("TEST 12 pingMod kompletan\n");
 315              		.loc 1 153 24 is_stmt 0
 316 01c0 17050000 		lla	a0,.LC12
 316      13050500 
 317 01c8 97000000 		call	_Z11printStringPKc@plt
 317      E7800000 
 318              	.LVL42:
 155:test/userMain.cpp ****             break;
 319              		.loc 1 155 13 is_stmt 1
 320 01d0 6FF09FEC 		j	.L1
 321              	.LVL43:
 322              	.L9:
 156:test/userMain.cpp ****         case 13:
 323              		.loc 1 156 9
 158:test/userMain.cpp ****             matricaMod();
 324              		.loc 1 158 13
 158:test/userMain.cpp ****             matricaMod();
 325              		.loc 1 158 23 is_stmt 0
 326 01d4 97000000 		call	_Z10matricaModv@plt
 326      E7800000 
 327              	.LVL44:
 159:test/userMain.cpp ****             printString("TEST 13 matricaMnozenje kompletan\n");
 328              		.loc 1 159 13 is_stmt 1
 159:test/userMain.cpp ****             printString("TEST 13 matricaMnozenje kompletan\n");
 329              		.loc 1 159 24 is_stmt 0
 330 01dc 17050000 		lla	a0,.LC13
 330      13050500 
 331 01e4 97000000 		call	_Z11printStringPKc@plt
 331      E7800000 
GAS LISTING /tmp/ccsueqqw.s 			page 13


 332              	.LVL45:
 161:test/userMain.cpp ****             break;
 333              		.loc 1 161 13 is_stmt 1
 334 01ec 6FF0DFEA 		j	.L1
 335              	.LVL46:
 336              	.L7:
 162:test/userMain.cpp ****         case 14:
 337              		.loc 1 162 9
 164:test/userMain.cpp ****             ownerMod();
 338              		.loc 1 164 13
 164:test/userMain.cpp ****             ownerMod();
 339              		.loc 1 164 21 is_stmt 0
 340 01f0 97000000 		call	_Z8ownerModv@plt
 340      E7800000 
 341              	.LVL47:
 165:test/userMain.cpp ****             printString("TEST 14 ownerModifikacija kompletna\n");
 342              		.loc 1 165 13 is_stmt 1
 165:test/userMain.cpp ****             printString("TEST 14 ownerModifikacija kompletna\n");
 343              		.loc 1 165 24 is_stmt 0
 344 01f8 17050000 		lla	a0,.LC14
 344      13050500 
 345 0200 97000000 		call	_Z11printStringPKc@plt
 345      E7800000 
 346              	.LVL48:
 167:test/userMain.cpp ****             break;
 347              		.loc 1 167 13 is_stmt 1
 348 0208 6FF01FE9 		j	.L1
 349              	.LVL49:
 350              	.L6:
 170:test/userMain.cpp ****         default:
 351              		.loc 1 170 9
 171:test/userMain.cpp ****             printString("Niste uneli odgovarajuci broj za test\n");
 352              		.loc 1 171 13
 171:test/userMain.cpp ****             printString("Niste uneli odgovarajuci broj za test\n");
 353              		.loc 1 171 24 is_stmt 0
 354 020c 17050000 		lla	a0,.LC15
 354      13050500 
 355              	.LVL50:
 356 0214 97000000 		call	_Z11printStringPKc@plt
 356      E7800000 
 357              	.LVL51:
 358 021c 6FF0DFE7 		j	.L1
 359              		.cfi_endproc
 360              	.LFE20:
 362              	.Letext0:
 363              		.file 2 "test/../h/../lib/hw.h"
 364              		.file 3 "test/../h/syscall_c.hpp"
 365              		.file 4 "test/printing.hpp"
 366              		.file 5 "test/../test/Threads_C_API_test.hpp"
 367              		.file 6 "test/../test/Threads_CPP_API_test.hpp"
 368              		.file 7 "test/../test/ConsumerProducer_C_API_test.hpp"
 369              		.file 8 "test/../test/ConsumerProducer_CPP_Sync_API_test.hpp"
 370              		.file 9 "test/../test/System_Mode_test.hpp"
 371              		.file 10 "test/../test/getTreadIdModifikacija.hpp"
 372              		.file 11 "test/../test/SetMaximumThread.hpp"
 373              		.file 12 "test/joinAllModif.hpp"
 374              		.file 13 "test/semPriorMod.hpp"
GAS LISTING /tmp/ccsueqqw.s 			page 14


 375              		.file 14 "test/pingModif.hpp"
 376              		.file 15 "test/matricaModif.hpp"
 377              		.file 16 "test/ownerModif.hpp"
GAS LISTING /tmp/ccsueqqw.s 			page 15


DEFINED SYMBOLS
                            *ABS*:0000000000000000 userMain.cpp
     /tmp/ccsueqqw.s:59     .text:0000000000000000 _Z8userMainv
     /tmp/ccsueqqw.s:63     .text:0000000000000000 .L0 
     /tmp/ccsueqqw.s:64     .text:0000000000000000 .L0 
     /tmp/ccsueqqw.s:65     .text:0000000000000004 .L0 
     /tmp/ccsueqqw.s:69     .text:0000000000000010 .L0 
     /tmp/ccsueqqw.s:70     .text:0000000000000010 .L0 
     /tmp/ccsueqqw.s:71     .text:0000000000000010 .L0 
     /tmp/ccsueqqw.s:73     .text:0000000000000014 .L0 
     /tmp/ccsueqqw.s:75     .text:0000000000000014 .L0 
     /tmp/ccsueqqw.s:76     .text:0000000000000014 .L0 
     /tmp/ccsueqqw.s:80     .text:0000000000000024 .L0 
     /tmp/ccsueqqw.s:81     .text:0000000000000024 .L0 
     /tmp/ccsueqqw.s:85     .text:0000000000000028 .L0 
     /tmp/ccsueqqw.s:86     .text:0000000000000028 .L0 
     /tmp/ccsueqqw.s:87     .text:0000000000000028 .L0 
     /tmp/ccsueqqw.s:88     .text:0000000000000028 .L0 
     /tmp/ccsueqqw.s:91     .text:0000000000000030 .L0 
     /tmp/ccsueqqw.s:94     .text:0000000000000038 .L0 
     /tmp/ccsueqqw.s:97     .text:0000000000000040 .L0 
     /tmp/ccsueqqw.s:98     .text:0000000000000040 .L0 
     /tmp/ccsueqqw.s:104    .text:000000000000004c .L0 
     /tmp/ccsueqqw.s:105    .text:000000000000004c .L0 
     /tmp/ccsueqqw.s:108    .text:0000000000000050 .L0 
     /tmp/ccsueqqw.s:111    .text:0000000000000054 .L0 
     /tmp/ccsueqqw.s:115    .text:0000000000000058 .L0 
     /tmp/ccsueqqw.s:116    .text:0000000000000058 .L0 
     /tmp/ccsueqqw.s:117    .text:0000000000000058 .L0 
     /tmp/ccsueqqw.s:118    .text:0000000000000058 .L0 
     /tmp/ccsueqqw.s:120    .text:000000000000005c .L0 
     /tmp/ccsueqqw.s:123    .text:0000000000000064 .L0 
     /tmp/ccsueqqw.s:155    .text:0000000000000088 .L0 
     /tmp/ccsueqqw.s:156    .text:0000000000000088 .L0 
     /tmp/ccsueqqw.s:157    .text:0000000000000088 .L0 
     /tmp/ccsueqqw.s:163    .text:0000000000000098 .L0 
     /tmp/ccsueqqw.s:164    .text:0000000000000098 .L0 
     /tmp/ccsueqqw.s:165    .text:000000000000009c .L0 
     /tmp/ccsueqqw.s:166    .text:000000000000009c .L0 
     /tmp/ccsueqqw.s:168    .text:00000000000000a0 .L0 
     /tmp/ccsueqqw.s:169    .text:00000000000000a0 .L0 
     /tmp/ccsueqqw.s:171    .text:00000000000000a4 .L0 
     /tmp/ccsueqqw.s:173    .text:00000000000000a8 .L0 
     /tmp/ccsueqqw.s:177    .text:00000000000000ac .L0 
     /tmp/ccsueqqw.s:179    .text:00000000000000ac .L0 
     /tmp/ccsueqqw.s:180    .text:00000000000000ac .L0 
     /tmp/ccsueqqw.s:181    .text:00000000000000ac .L0 
     /tmp/ccsueqqw.s:184    .text:00000000000000b4 .L0 
     /tmp/ccsueqqw.s:185    .text:00000000000000b4 .L0 
     /tmp/ccsueqqw.s:189    .text:00000000000000c4 .L0 
     /tmp/ccsueqqw.s:193    .text:00000000000000c8 .L0 
     /tmp/ccsueqqw.s:194    .text:00000000000000c8 .L0 
     /tmp/ccsueqqw.s:195    .text:00000000000000c8 .L0 
     /tmp/ccsueqqw.s:198    .text:00000000000000d0 .L0 
     /tmp/ccsueqqw.s:199    .text:00000000000000d0 .L0 
     /tmp/ccsueqqw.s:203    .text:00000000000000e0 .L0 
     /tmp/ccsueqqw.s:207    .text:00000000000000e4 .L0 
GAS LISTING /tmp/ccsueqqw.s 			page 16


     /tmp/ccsueqqw.s:208    .text:00000000000000e4 .L0 
     /tmp/ccsueqqw.s:209    .text:00000000000000e4 .L0 
     /tmp/ccsueqqw.s:212    .text:00000000000000ec .L0 
     /tmp/ccsueqqw.s:213    .text:00000000000000ec .L0 
     /tmp/ccsueqqw.s:217    .text:00000000000000fc .L0 
     /tmp/ccsueqqw.s:221    .text:0000000000000100 .L0 
     /tmp/ccsueqqw.s:222    .text:0000000000000100 .L0 
     /tmp/ccsueqqw.s:223    .text:0000000000000100 .L0 
     /tmp/ccsueqqw.s:226    .text:0000000000000108 .L0 
     /tmp/ccsueqqw.s:227    .text:0000000000000108 .L0 
     /tmp/ccsueqqw.s:231    .text:0000000000000118 .L0 
     /tmp/ccsueqqw.s:235    .text:000000000000011c .L0 
     /tmp/ccsueqqw.s:236    .text:000000000000011c .L0 
     /tmp/ccsueqqw.s:237    .text:000000000000011c .L0 
     /tmp/ccsueqqw.s:240    .text:0000000000000124 .L0 
     /tmp/ccsueqqw.s:241    .text:0000000000000124 .L0 
     /tmp/ccsueqqw.s:245    .text:0000000000000134 .L0 
     /tmp/ccsueqqw.s:246    .text:0000000000000134 .L0 
     /tmp/ccsueqqw.s:250    .text:0000000000000144 .L0 
     /tmp/ccsueqqw.s:254    .text:0000000000000148 .L0 
     /tmp/ccsueqqw.s:255    .text:0000000000000148 .L0 
     /tmp/ccsueqqw.s:256    .text:0000000000000148 .L0 
     /tmp/ccsueqqw.s:259    .text:0000000000000150 .L0 
     /tmp/ccsueqqw.s:260    .text:0000000000000150 .L0 
     /tmp/ccsueqqw.s:264    .text:0000000000000160 .L0 
     /tmp/ccsueqqw.s:268    .text:0000000000000164 .L0 
     /tmp/ccsueqqw.s:269    .text:0000000000000164 .L0 
     /tmp/ccsueqqw.s:270    .text:0000000000000164 .L0 
     /tmp/ccsueqqw.s:273    .text:000000000000016c .L0 
     /tmp/ccsueqqw.s:274    .text:000000000000016c .L0 
     /tmp/ccsueqqw.s:278    .text:000000000000017c .L0 
     /tmp/ccsueqqw.s:282    .text:0000000000000180 .L0 
     /tmp/ccsueqqw.s:283    .text:0000000000000180 .L0 
     /tmp/ccsueqqw.s:284    .text:0000000000000180 .L0 
     /tmp/ccsueqqw.s:287    .text:0000000000000188 .L0 
     /tmp/ccsueqqw.s:288    .text:0000000000000188 .L0 
     /tmp/ccsueqqw.s:292    .text:0000000000000198 .L0 
     /tmp/ccsueqqw.s:296    .text:000000000000019c .L0 
     /tmp/ccsueqqw.s:297    .text:000000000000019c .L0 
     /tmp/ccsueqqw.s:298    .text:000000000000019c .L0 
     /tmp/ccsueqqw.s:301    .text:00000000000001a4 .L0 
     /tmp/ccsueqqw.s:302    .text:00000000000001a4 .L0 
     /tmp/ccsueqqw.s:306    .text:00000000000001b4 .L0 
     /tmp/ccsueqqw.s:310    .text:00000000000001b8 .L0 
     /tmp/ccsueqqw.s:311    .text:00000000000001b8 .L0 
     /tmp/ccsueqqw.s:312    .text:00000000000001b8 .L0 
     /tmp/ccsueqqw.s:315    .text:00000000000001c0 .L0 
     /tmp/ccsueqqw.s:316    .text:00000000000001c0 .L0 
     /tmp/ccsueqqw.s:320    .text:00000000000001d0 .L0 
     /tmp/ccsueqqw.s:324    .text:00000000000001d4 .L0 
     /tmp/ccsueqqw.s:325    .text:00000000000001d4 .L0 
     /tmp/ccsueqqw.s:326    .text:00000000000001d4 .L0 
     /tmp/ccsueqqw.s:329    .text:00000000000001dc .L0 
     /tmp/ccsueqqw.s:330    .text:00000000000001dc .L0 
     /tmp/ccsueqqw.s:334    .text:00000000000001ec .L0 
     /tmp/ccsueqqw.s:338    .text:00000000000001f0 .L0 
     /tmp/ccsueqqw.s:339    .text:00000000000001f0 .L0 
GAS LISTING /tmp/ccsueqqw.s 			page 17


     /tmp/ccsueqqw.s:340    .text:00000000000001f0 .L0 
     /tmp/ccsueqqw.s:343    .text:00000000000001f8 .L0 
     /tmp/ccsueqqw.s:344    .text:00000000000001f8 .L0 
     /tmp/ccsueqqw.s:348    .text:0000000000000208 .L0 
     /tmp/ccsueqqw.s:352    .text:000000000000020c .L0 
     /tmp/ccsueqqw.s:353    .text:000000000000020c .L0 
     /tmp/ccsueqqw.s:354    .text:000000000000020c .L0 
     /tmp/ccsueqqw.s:359    .text:0000000000000220 .L0 
     /tmp/ccsueqqw.s:378    .text:0000000000000220 .L0 
     /tmp/ccsueqqw.s:8      .rodata.str1.8:0000000000000000 .LC0
     /tmp/ccsueqqw.s:76     .text:0000000000000014 .L0 
     /tmp/ccsueqqw.s:135    .rodata:0000000000000000 .L8
     /tmp/ccsueqqw.s:127    .text:0000000000000070 .L0 
     /tmp/ccsueqqw.s:11     .rodata.str1.8:0000000000000020 .LC1
     /tmp/ccsueqqw.s:157    .text:0000000000000088 .L0 
     /tmp/ccsueqqw.s:14     .rodata.str1.8:0000000000000050 .LC2
     /tmp/ccsueqqw.s:185    .text:00000000000000b4 .L0 
     /tmp/ccsueqqw.s:17     .rodata.str1.8:0000000000000090 .LC3
     /tmp/ccsueqqw.s:199    .text:00000000000000d0 .L0 
     /tmp/ccsueqqw.s:20     .rodata.str1.8:00000000000000d0 .LC4
     /tmp/ccsueqqw.s:213    .text:00000000000000ec .L0 
     /tmp/ccsueqqw.s:23     .rodata.str1.8:0000000000000120 .LC5
     /tmp/ccsueqqw.s:227    .text:0000000000000108 .L0 
     /tmp/ccsueqqw.s:26     .rodata.str1.8:0000000000000178 .LC6
     /tmp/ccsueqqw.s:241    .text:0000000000000124 .L0 
     /tmp/ccsueqqw.s:29     .rodata.str1.8:0000000000000198 .LC7
     /tmp/ccsueqqw.s:246    .text:0000000000000134 .L0 
     /tmp/ccsueqqw.s:32     .rodata.str1.8:00000000000001f0 .LC8
     /tmp/ccsueqqw.s:260    .text:0000000000000150 .L0 
     /tmp/ccsueqqw.s:35     .rodata.str1.8:0000000000000210 .LC9
     /tmp/ccsueqqw.s:274    .text:000000000000016c .L0 
     /tmp/ccsueqqw.s:38     .rodata.str1.8:0000000000000230 .LC10
     /tmp/ccsueqqw.s:288    .text:0000000000000188 .L0 
     /tmp/ccsueqqw.s:41     .rodata.str1.8:0000000000000250 .LC11
     /tmp/ccsueqqw.s:302    .text:00000000000001a4 .L0 
     /tmp/ccsueqqw.s:44     .rodata.str1.8:0000000000000270 .LC12
     /tmp/ccsueqqw.s:316    .text:00000000000001c0 .L0 
     /tmp/ccsueqqw.s:47     .rodata.str1.8:0000000000000290 .LC13
     /tmp/ccsueqqw.s:330    .text:00000000000001dc .L0 
     /tmp/ccsueqqw.s:50     .rodata.str1.8:00000000000002b8 .LC14
     /tmp/ccsueqqw.s:344    .text:00000000000001f8 .L0 
     /tmp/ccsueqqw.s:53     .rodata.str1.8:00000000000002e0 .LC15
     /tmp/ccsueqqw.s:354    .text:000000000000020c .L0 
     /tmp/ccsueqqw.s:113    .text:0000000000000058 .L2
     /tmp/ccsueqqw.s:83     .text:0000000000000028 .L3
     /tmp/ccsueqqw.s:153    .text:0000000000000088 .L21
     /tmp/ccsueqqw.s:350    .text:000000000000020c .L6
     /tmp/ccsueqqw.s:162    .text:0000000000000098 .L1
     /tmp/ccsueqqw.s:176    .text:00000000000000ac .L19
     /tmp/ccsueqqw.s:191    .text:00000000000000c8 .L18
     /tmp/ccsueqqw.s:205    .text:00000000000000e4 .L17
     /tmp/ccsueqqw.s:219    .text:0000000000000100 .L16
     /tmp/ccsueqqw.s:233    .text:000000000000011c .L15
     /tmp/ccsueqqw.s:252    .text:0000000000000148 .L14
     /tmp/ccsueqqw.s:266    .text:0000000000000164 .L13
     /tmp/ccsueqqw.s:280    .text:0000000000000180 .L12
     /tmp/ccsueqqw.s:294    .text:000000000000019c .L11
GAS LISTING /tmp/ccsueqqw.s 			page 18


     /tmp/ccsueqqw.s:308    .text:00000000000001b8 .L10
     /tmp/ccsueqqw.s:322    .text:00000000000001d4 .L9
     /tmp/ccsueqqw.s:336    .text:00000000000001f0 .L7
     /tmp/ccsueqqw.s:847    .debug_abbrev:0000000000000000 .Ldebug_abbrev0
     /tmp/ccsueqqw.s:1304   .debug_str:00000000000002c7 .LASF48
     /tmp/ccsueqqw.s:1236   .debug_str:0000000000000073 .LASF49
     /tmp/ccsueqqw.s:1288   .debug_str:0000000000000224 .LASF50
     /tmp/ccsueqqw.s:5      .text:0000000000000000 .Ltext0
     /tmp/ccsueqqw.s:362    .text:0000000000000220 .Letext0
     /tmp/ccsueqqw.s:1216   .debug_line:0000000000000000 .Ldebug_line0
     /tmp/ccsueqqw.s:1278   .debug_str:00000000000001cd .LASF0
     /tmp/ccsueqqw.s:1282   .debug_str:00000000000001f1 .LASF1
     /tmp/ccsueqqw.s:1270   .debug_str:000000000000018a .LASF2
     /tmp/ccsueqqw.s:1260   .debug_str:0000000000000138 .LASF4
     /tmp/ccsueqqw.s:1300   .debug_str:00000000000002a1 .LASF3
     /tmp/ccsueqqw.s:1232   .debug_str:000000000000005c .LASF5
     /tmp/ccsueqqw.s:1284   .debug_str:0000000000000204 .LASF6
     /tmp/ccsueqqw.s:1276   .debug_str:00000000000001ba .LASF7
     /tmp/ccsueqqw.s:1308   .debug_str:000000000000039a .LASF8
     /tmp/ccsueqqw.s:1256   .debug_str:0000000000000125 .LASF9
     /tmp/ccsueqqw.s:1292   .debug_str:0000000000000259 .LASF10
     /tmp/ccsueqqw.s:1306   .debug_str:000000000000038b .LASF11
     /tmp/ccsueqqw.s:1234   .debug_str:0000000000000063 .LASF12
     /tmp/ccsueqqw.s:1220   .debug_str:0000000000000010 .LASF13
     /tmp/ccsueqqw.s:1238   .debug_str:0000000000000085 .LASF14
     /tmp/ccsueqqw.s:1298   .debug_str:000000000000028b .LASF15
     /tmp/ccsueqqw.s:1240   .debug_str:0000000000000091 .LASF16
     /tmp/ccsueqqw.s:1258   .debug_str:0000000000000133 .LASF17
     /tmp/ccsueqqw.s:1250   .debug_str:00000000000000f4 .LASF18
     /tmp/ccsueqqw.s:1246   .debug_str:00000000000000c8 .LASF51
     /tmp/ccsueqqw.s:1264   .debug_str:000000000000014b .LASF52
     /tmp/ccsueqqw.s:60     .text:0000000000000000 .LFB20
     /tmp/ccsueqqw.s:360    .text:0000000000000220 .LFE20
     /tmp/ccsueqqw.s:1294   .debug_str:0000000000000268 .LASF19
     /tmp/ccsueqqw.s:1116   .debug_loc:0000000000000000 .LLST0
     /tmp/ccsueqqw.s:1140   .debug_loc:0000000000000070 .LLST1
     /tmp/ccsueqqw.s:78     .text:0000000000000024 .LVL0
     /tmp/ccsueqqw.s:89     .text:0000000000000030 .LVL2
     /tmp/ccsueqqw.s:160    .text:0000000000000098 .LVL11
     /tmp/ccsueqqw.s:182    .text:00000000000000b4 .LVL13
     /tmp/ccsueqqw.s:187    .text:00000000000000c4 .LVL14
     /tmp/ccsueqqw.s:196    .text:00000000000000d0 .LVL16
     /tmp/ccsueqqw.s:201    .text:00000000000000e0 .LVL17
     /tmp/ccsueqqw.s:210    .text:00000000000000ec .LVL19
     /tmp/ccsueqqw.s:215    .text:00000000000000fc .LVL20
     /tmp/ccsueqqw.s:224    .text:0000000000000108 .LVL22
     /tmp/ccsueqqw.s:229    .text:0000000000000118 .LVL23
     /tmp/ccsueqqw.s:238    .text:0000000000000124 .LVL25
     /tmp/ccsueqqw.s:243    .text:0000000000000134 .LVL26
     /tmp/ccsueqqw.s:248    .text:0000000000000144 .LVL27
     /tmp/ccsueqqw.s:257    .text:0000000000000150 .LVL29
     /tmp/ccsueqqw.s:262    .text:0000000000000160 .LVL30
     /tmp/ccsueqqw.s:271    .text:000000000000016c .LVL32
     /tmp/ccsueqqw.s:276    .text:000000000000017c .LVL33
     /tmp/ccsueqqw.s:285    .text:0000000000000188 .LVL35
     /tmp/ccsueqqw.s:290    .text:0000000000000198 .LVL36
     /tmp/ccsueqqw.s:299    .text:00000000000001a4 .LVL38
GAS LISTING /tmp/ccsueqqw.s 			page 19


     /tmp/ccsueqqw.s:304    .text:00000000000001b4 .LVL39
     /tmp/ccsueqqw.s:313    .text:00000000000001c0 .LVL41
     /tmp/ccsueqqw.s:318    .text:00000000000001d0 .LVL42
     /tmp/ccsueqqw.s:327    .text:00000000000001dc .LVL44
     /tmp/ccsueqqw.s:332    .text:00000000000001ec .LVL45
     /tmp/ccsueqqw.s:341    .text:00000000000001f8 .LVL47
     /tmp/ccsueqqw.s:346    .text:0000000000000208 .LVL48
     /tmp/ccsueqqw.s:357    .text:000000000000021c .LVL51
     /tmp/ccsueqqw.s:1316   .debug_str:00000000000003d3 .LASF20
     /tmp/ccsueqqw.s:1262   .debug_str:000000000000013f .LASF22
     /tmp/ccsueqqw.s:1228   .debug_str:0000000000000042 .LASF21
     /tmp/ccsueqqw.s:1222   .debug_str:0000000000000020 .LASF23
     /tmp/ccsueqqw.s:1244   .debug_str:00000000000000b0 .LASF24
     /tmp/ccsueqqw.s:1310   .debug_str:00000000000003aa .LASF25
     /tmp/ccsueqqw.s:1254   .debug_str:000000000000010b .LASF26
     /tmp/ccsueqqw.s:1290   .debug_str:0000000000000244 .LASF27
     /tmp/ccsueqqw.s:1268   .debug_str:000000000000016e .LASF28
     /tmp/ccsueqqw.s:1280   .debug_str:00000000000001da .LASF29
     /tmp/ccsueqqw.s:1248   .debug_str:00000000000000d1 .LASF30
     /tmp/ccsueqqw.s:1296   .debug_str:000000000000026d .LASF31
     /tmp/ccsueqqw.s:1266   .debug_str:0000000000000158 .LASF32
     /tmp/ccsueqqw.s:1224   .debug_str:0000000000000025 .LASF33
     /tmp/ccsueqqw.s:1302   .debug_str:00000000000002b3 .LASF34
     /tmp/ccsueqqw.s:1274   .debug_str:00000000000001ab .LASF35
     /tmp/ccsueqqw.s:1322   .debug_str:00000000000003fe .LASF36
     /tmp/ccsueqqw.s:1230   .debug_str:000000000000004b .LASF37
     /tmp/ccsueqqw.s:1252   .debug_str:00000000000000f9 .LASF38
     /tmp/ccsueqqw.s:1286   .debug_str:0000000000000217 .LASF39
     /tmp/ccsueqqw.s:1272   .debug_str:0000000000000198 .LASF40
     /tmp/ccsueqqw.s:1312   .debug_str:00000000000003bd .LASF41
     /tmp/ccsueqqw.s:1226   .debug_str:0000000000000036 .LASF42
     /tmp/ccsueqqw.s:1314   .debug_str:00000000000003cb .LASF43
     /tmp/ccsueqqw.s:1218   .debug_str:0000000000000000 .LASF44
     /tmp/ccsueqqw.s:1318   .debug_str:00000000000003e6 .LASF45
     /tmp/ccsueqqw.s:1320   .debug_str:00000000000003f1 .LASF46
     /tmp/ccsueqqw.s:1242   .debug_str:00000000000000a7 .LASF47
     /tmp/ccsueqqw.s:82     .text:0000000000000028 .LVL1
     /tmp/ccsueqqw.s:100    .text:0000000000000048 .LVL3
     /tmp/ccsueqqw.s:102    .text:000000000000004c .LVL4
     /tmp/ccsueqqw.s:109    .text:0000000000000054 .LVL6
     /tmp/ccsueqqw.s:112    .text:0000000000000058 .LVL7
     /tmp/ccsueqqw.s:126    .text:0000000000000070 .LVL8
     /tmp/ccsueqqw.s:152    .text:0000000000000088 .LVL9
     /tmp/ccsueqqw.s:106    .text:0000000000000050 .LVL5
     /tmp/ccsueqqw.s:158    .text:0000000000000090 .LVL10
     /tmp/ccsueqqw.s:175    .text:00000000000000ac .LVL12
     /tmp/ccsueqqw.s:190    .text:00000000000000c8 .LVL15
     /tmp/ccsueqqw.s:204    .text:00000000000000e4 .LVL18
     /tmp/ccsueqqw.s:218    .text:0000000000000100 .LVL21
     /tmp/ccsueqqw.s:232    .text:000000000000011c .LVL24
     /tmp/ccsueqqw.s:251    .text:0000000000000148 .LVL28
     /tmp/ccsueqqw.s:265    .text:0000000000000164 .LVL31
     /tmp/ccsueqqw.s:279    .text:0000000000000180 .LVL34
     /tmp/ccsueqqw.s:293    .text:000000000000019c .LVL37
     /tmp/ccsueqqw.s:307    .text:00000000000001b8 .LVL40
     /tmp/ccsueqqw.s:321    .text:00000000000001d4 .LVL43
     /tmp/ccsueqqw.s:335    .text:00000000000001f0 .LVL46
GAS LISTING /tmp/ccsueqqw.s 			page 20


     /tmp/ccsueqqw.s:349    .text:000000000000020c .LVL49
     /tmp/ccsueqqw.s:355    .text:0000000000000214 .LVL50
     /tmp/ccsueqqw.s:379    .debug_info:0000000000000000 .Ldebug_info0

UNDEFINED SYMBOLS
_Z11printStringPKc
_Z4getcv
_Z18Threads_C_API_testv
_Z20Threads_CPP_API_testv
_Z22producerConsumer_C_APIv
_Z29producerConsumer_CPP_Sync_APIv
_Z16System_Mode_testv
_Z14getThreadIdModv
_Z16setMaximumThreadv
_Z12joinAllModifv
_Z13semPriorModifv
_Z7pingModv
_Z10matricaModv
_Z8ownerModv
